
LPC1768/PotentioLED.elf:     file format elf32-littlearm
architecture: arm, flags 0x00000112:
EXEC_P, HAS_SYMS, D_PAGED
start address 0x00001985


Disassembly of section .text:

00000000 <__isr_vector>:
       0:	10008000 	.word	0x10008000
       4:	00001985 	.word	0x00001985
       8:	000019b5 	.word	0x000019b5
       c:	000019b7 	.word	0x000019b7
      10:	000019b9 	.word	0x000019b9
      14:	000019bb 	.word	0x000019bb
      18:	000019bd 	.word	0x000019bd
	...
      2c:	000019bf 	.word	0x000019bf
      30:	000019c1 	.word	0x000019c1
      34:	00000000 	.word	0x00000000
      38:	000019c3 	.word	0x000019c3
      3c:	000019c5 	.word	0x000019c5
      40:	000019c7 	.word	0x000019c7
      44:	000019c7 	.word	0x000019c7
      48:	000019c7 	.word	0x000019c7
      4c:	000019c7 	.word	0x000019c7
      50:	000019c7 	.word	0x000019c7
      54:	000019c7 	.word	0x000019c7
      58:	000019c7 	.word	0x000019c7
      5c:	000019c7 	.word	0x000019c7
      60:	000019c7 	.word	0x000019c7
      64:	000019c7 	.word	0x000019c7
      68:	000019c7 	.word	0x000019c7
      6c:	000019c7 	.word	0x000019c7
      70:	000019c7 	.word	0x000019c7
      74:	000019c7 	.word	0x000019c7
      78:	000019c7 	.word	0x000019c7
      7c:	000019c7 	.word	0x000019c7
      80:	000019c7 	.word	0x000019c7
      84:	000019c7 	.word	0x000019c7
      88:	000019c7 	.word	0x000019c7
      8c:	000019c7 	.word	0x000019c7
      90:	000019c7 	.word	0x000019c7
      94:	000019c7 	.word	0x000019c7
      98:	000019c7 	.word	0x000019c7
      9c:	000019c7 	.word	0x000019c7
      a0:	000019c7 	.word	0x000019c7
      a4:	000019c7 	.word	0x000019c7
      a8:	000019c7 	.word	0x000019c7
      ac:	000019c7 	.word	0x000019c7
      b0:	000019c7 	.word	0x000019c7
      b4:	000019c7 	.word	0x000019c7
      b8:	000019c7 	.word	0x000019c7
      bc:	000019c7 	.word	0x000019c7
      c0:	000019c7 	.word	0x000019c7
      c4:	000019c7 	.word	0x000019c7
      c8:	000019c7 	.word	0x000019c7

000000cc <__do_global_dtors_aux>:
      cc:	b510      	push	{r4, lr}
      ce:	4c05      	ldr	r4, [pc, #20]	; (e4 <__do_global_dtors_aux+0x18>)
      d0:	7823      	ldrb	r3, [r4, #0]
      d2:	b933      	cbnz	r3, e2 <__do_global_dtors_aux+0x16>
      d4:	4b04      	ldr	r3, [pc, #16]	; (e8 <__do_global_dtors_aux+0x1c>)
      d6:	b113      	cbz	r3, de <__do_global_dtors_aux+0x12>
      d8:	4804      	ldr	r0, [pc, #16]	; (ec <__do_global_dtors_aux+0x20>)
      da:	f3af 8000 	nop.w
      de:	2301      	movs	r3, #1
      e0:	7023      	strb	r3, [r4, #0]
      e2:	bd10      	pop	{r4, pc}
      e4:	100002b0 	.word	0x100002b0
      e8:	00000000 	.word	0x00000000
      ec:	00006920 	.word	0x00006920

000000f0 <frame_dummy>:
      f0:	4b0c      	ldr	r3, [pc, #48]	; (124 <frame_dummy+0x34>)
      f2:	b143      	cbz	r3, 106 <frame_dummy+0x16>
      f4:	480c      	ldr	r0, [pc, #48]	; (128 <frame_dummy+0x38>)
      f6:	b510      	push	{r4, lr}
      f8:	490c      	ldr	r1, [pc, #48]	; (12c <frame_dummy+0x3c>)
      fa:	f3af 8000 	nop.w
      fe:	480c      	ldr	r0, [pc, #48]	; (130 <frame_dummy+0x40>)
     100:	6803      	ldr	r3, [r0, #0]
     102:	b923      	cbnz	r3, 10e <frame_dummy+0x1e>
     104:	bd10      	pop	{r4, pc}
     106:	480a      	ldr	r0, [pc, #40]	; (130 <frame_dummy+0x40>)
     108:	6803      	ldr	r3, [r0, #0]
     10a:	b933      	cbnz	r3, 11a <frame_dummy+0x2a>
     10c:	4770      	bx	lr
     10e:	4b09      	ldr	r3, [pc, #36]	; (134 <frame_dummy+0x44>)
     110:	2b00      	cmp	r3, #0
     112:	d0f7      	beq.n	104 <frame_dummy+0x14>
     114:	e8bd 4010 	ldmia.w	sp!, {r4, lr}
     118:	4718      	bx	r3
     11a:	4b06      	ldr	r3, [pc, #24]	; (134 <frame_dummy+0x44>)
     11c:	2b00      	cmp	r3, #0
     11e:	d0f5      	beq.n	10c <frame_dummy+0x1c>
     120:	4718      	bx	r3
     122:	bf00      	nop
     124:	00000000 	.word	0x00000000
     128:	00006920 	.word	0x00006920
     12c:	100002b4 	.word	0x100002b4
     130:	100002b0 	.word	0x100002b0
     134:	00000000 	.word	0x00000000

00000138 <mbed::AnalogIn::~AnalogIn()>:
     138:	4770      	bx	lr

0000013a <mbed::AnalogOut::~AnalogOut()>:
     13a:	4770      	bx	lr

0000013c <mbed::AnalogOut::lock()>:
     13c:	4770      	bx	lr

0000013e <mbed::AnalogOut::unlock()>:
     13e:	4770      	bx	lr

00000140 <mbed::AnalogIn::~AnalogIn()>:
     140:	b510      	push	{r4, lr}
     142:	4604      	mov	r4, r0
     144:	f001 fb4f 	bl	17e6 <operator delete(void*)>
     148:	4620      	mov	r0, r4
     14a:	bd10      	pop	{r4, pc}

0000014c <mbed::AnalogOut::~AnalogOut()>:
     14c:	b510      	push	{r4, lr}
     14e:	4604      	mov	r4, r0
     150:	f001 fb49 	bl	17e6 <operator delete(void*)>
     154:	4620      	mov	r0, r4
     156:	bd10      	pop	{r4, pc}

00000158 <mbed::SerialBase::~SerialBase()>:
     158:	b570      	push	{r4, r5, r6, lr}
     15a:	4605      	mov	r5, r0
     15c:	4b09      	ldr	r3, [pc, #36]	; (184 <mbed::SerialBase::~SerialBase()+0x2c>)
     15e:	4606      	mov	r6, r0
     160:	f845 3b0c 	str.w	r3, [r5], #12
     164:	b15d      	cbz	r5, 17e <mbed::SerialBase::~SerialBase()+0x26>
     166:	f100 042c 	add.w	r4, r0, #44	; 0x2c
     16a:	42ac      	cmp	r4, r5
     16c:	d007      	beq.n	17e <mbed::SerialBase::~SerialBase()+0x26>
     16e:	3c10      	subs	r4, #16
     170:	68e3      	ldr	r3, [r4, #12]
     172:	2b00      	cmp	r3, #0
     174:	d0f9      	beq.n	16a <mbed::SerialBase::~SerialBase()+0x12>
     176:	689b      	ldr	r3, [r3, #8]
     178:	4620      	mov	r0, r4
     17a:	4798      	blx	r3
     17c:	e7f5      	b.n	16a <mbed::SerialBase::~SerialBase()+0x12>
     17e:	4630      	mov	r0, r6
     180:	bd70      	pop	{r4, r5, r6, pc}
     182:	bf00      	nop
     184:	0000655c 	.word	0x0000655c

00000188 <mbed::Serial::~Serial()>:
     188:	b510      	push	{r4, lr}
     18a:	4604      	mov	r4, r0
     18c:	4b05      	ldr	r3, [pc, #20]	; (1a4 <mbed::Serial::~Serial()+0x1c>)
     18e:	6003      	str	r3, [r0, #0]
     190:	3320      	adds	r3, #32
     192:	f840 3f30 	str.w	r3, [r0, #48]!
     196:	f001 f81b 	bl	11d0 <mbed::Stream::~Stream()>
     19a:	4620      	mov	r0, r4
     19c:	f7ff ffdc 	bl	158 <mbed::SerialBase::~SerialBase()>
     1a0:	4620      	mov	r0, r4
     1a2:	bd10      	pop	{r4, pc}
     1a4:	00006430 	.word	0x00006430

000001a8 <non-virtual thunk to mbed::Serial::~Serial()>:
     1a8:	f1a0 0030 	sub.w	r0, r0, #48	; 0x30
     1ac:	e7ec      	b.n	188 <mbed::Serial::~Serial()>
     1ae:	bf00      	nop

000001b0 <mbed::SerialBase::~SerialBase()>:
     1b0:	b510      	push	{r4, lr}
     1b2:	4604      	mov	r4, r0
     1b4:	f7ff ffd0 	bl	158 <mbed::SerialBase::~SerialBase()>
     1b8:	4620      	mov	r0, r4
     1ba:	f001 fb14 	bl	17e6 <operator delete(void*)>
     1be:	4620      	mov	r0, r4
     1c0:	bd10      	pop	{r4, pc}

000001c2 <SingletonPtr<PlatformMutex>::get()>:
     1c2:	6803      	ldr	r3, [r0, #0]
     1c4:	b90b      	cbnz	r3, 1ca <SingletonPtr<PlatformMutex>::get()+0x8>
     1c6:	1d03      	adds	r3, r0, #4
     1c8:	6003      	str	r3, [r0, #0]
     1ca:	6800      	ldr	r0, [r0, #0]
     1cc:	4770      	bx	lr
	...

000001d0 <mbed::AnalogIn::lock()>:
     1d0:	b508      	push	{r3, lr}
     1d2:	4802      	ldr	r0, [pc, #8]	; (1dc <mbed::AnalogIn::lock()+0xc>)
     1d4:	f7ff fff5 	bl	1c2 <SingletonPtr<PlatformMutex>::get()>
     1d8:	bd08      	pop	{r3, pc}
     1da:	bf00      	nop
     1dc:	1000042c 	.word	0x1000042c

000001e0 <mbed::AnalogIn::unlock()>:
     1e0:	b508      	push	{r3, lr}
     1e2:	4802      	ldr	r0, [pc, #8]	; (1ec <mbed::AnalogIn::unlock()+0xc>)
     1e4:	f7ff ffed 	bl	1c2 <SingletonPtr<PlatformMutex>::get()>
     1e8:	bd08      	pop	{r3, pc}
     1ea:	bf00      	nop
     1ec:	1000042c 	.word	0x1000042c

000001f0 <main>:
     1f0:	b580      	push	{r7, lr}
     1f2:	4c15      	ldr	r4, [pc, #84]	; (248 <main+0x58>)
     1f4:	4f15      	ldr	r7, [pc, #84]	; (24c <main+0x5c>)
     1f6:	4d16      	ldr	r5, [pc, #88]	; (250 <main+0x60>)
     1f8:	4638      	mov	r0, r7
     1fa:	f000 f96d 	bl	4d8 <wait>
     1fe:	4620      	mov	r0, r4
     200:	f7ff ffdf 	bl	1c2 <SingletonPtr<PlatformMutex>::get()>
     204:	4628      	mov	r0, r5
     206:	f000 fe45 	bl	e94 <analogin_read>
     20a:	4606      	mov	r6, r0
     20c:	4620      	mov	r0, r4
     20e:	f7ff ffd8 	bl	1c2 <SingletonPtr<PlatformMutex>::get()>
     212:	4631      	mov	r1, r6
     214:	480f      	ldr	r0, [pc, #60]	; (254 <main+0x64>)
     216:	f000 fa03 	bl	620 <analogout_write>
     21a:	4620      	mov	r0, r4
     21c:	f7ff ffd1 	bl	1c2 <SingletonPtr<PlatformMutex>::get()>
     220:	4628      	mov	r0, r5
     222:	f000 fe37 	bl	e94 <analogin_read>
     226:	4606      	mov	r6, r0
     228:	4620      	mov	r0, r4
     22a:	f7ff ffca 	bl	1c2 <SingletonPtr<PlatformMutex>::get()>
     22e:	490a      	ldr	r1, [pc, #40]	; (258 <main+0x68>)
     230:	4630      	mov	r0, r6
     232:	f001 feb7 	bl	1fa4 <__aeabi_fmul>
     236:	f001 fd2b 	bl	1c90 <__aeabi_f2d>
     23a:	4602      	mov	r2, r0
     23c:	460b      	mov	r3, r1
     23e:	4807      	ldr	r0, [pc, #28]	; (25c <main+0x6c>)
     240:	4907      	ldr	r1, [pc, #28]	; (260 <main+0x70>)
     242:	f000 ffd7 	bl	11f4 <mbed::Stream::printf(char const*, ...)>
     246:	e7d7      	b.n	1f8 <main+0x8>
     248:	1000042c 	.word	0x1000042c
     24c:	3dcccccd 	.word	0x3dcccccd
     250:	100002d0 	.word	0x100002d0
     254:	100002d8 	.word	0x100002d8
     258:	42c80000 	.word	0x42c80000
     25c:	1000030c 	.word	0x1000030c
     260:	0000620c 	.word	0x0000620c

00000264 <mbed::Serial::~Serial()>:
     264:	b510      	push	{r4, lr}
     266:	4604      	mov	r4, r0
     268:	f7ff ff8e 	bl	188 <mbed::Serial::~Serial()>
     26c:	4620      	mov	r0, r4
     26e:	f001 faba 	bl	17e6 <operator delete(void*)>
     272:	4620      	mov	r0, r4
     274:	bd10      	pop	{r4, pc}

00000276 <non-virtual thunk to mbed::Serial::~Serial()>:
     276:	f1a0 0030 	sub.w	r0, r0, #48	; 0x30
     27a:	e7f3      	b.n	264 <mbed::Serial::~Serial()>

0000027c <_GLOBAL__sub_I_ain>:
     27c:	b570      	push	{r4, r5, r6, lr}
     27e:	4d19      	ldr	r5, [pc, #100]	; (2e4 <_GLOBAL__sub_I_ain+0x68>)
     280:	4b19      	ldr	r3, [pc, #100]	; (2e8 <_GLOBAL__sub_I_ain+0x6c>)
     282:	462c      	mov	r4, r5
     284:	4e19      	ldr	r6, [pc, #100]	; (2ec <_GLOBAL__sub_I_ain+0x70>)
     286:	f844 3b04 	str.w	r3, [r4], #4
     28a:	4630      	mov	r0, r6
     28c:	f7ff ff99 	bl	1c2 <SingletonPtr<PlatformMutex>::get()>
     290:	4917      	ldr	r1, [pc, #92]	; (2f0 <_GLOBAL__sub_I_ain+0x74>)
     292:	4620      	mov	r0, r4
     294:	f000 fdc2 	bl	e1c <analogin_init>
     298:	4c16      	ldr	r4, [pc, #88]	; (2f4 <_GLOBAL__sub_I_ain+0x78>)
     29a:	4630      	mov	r0, r6
     29c:	f7ff ff91 	bl	1c2 <SingletonPtr<PlatformMutex>::get()>
     2a0:	4628      	mov	r0, r5
     2a2:	4d15      	ldr	r5, [pc, #84]	; (2f8 <_GLOBAL__sub_I_ain+0x7c>)
     2a4:	4622      	mov	r2, r4
     2a6:	4915      	ldr	r1, [pc, #84]	; (2fc <_GLOBAL__sub_I_ain+0x80>)
     2a8:	f001 fa72 	bl	1790 <__aeabi_atexit>
     2ac:	4628      	mov	r0, r5
     2ae:	4b14      	ldr	r3, [pc, #80]	; (300 <_GLOBAL__sub_I_ain+0x84>)
     2b0:	4914      	ldr	r1, [pc, #80]	; (304 <_GLOBAL__sub_I_ain+0x88>)
     2b2:	f840 3b04 	str.w	r3, [r0], #4
     2b6:	f000 f995 	bl	5e4 <analogout_init>
     2ba:	4628      	mov	r0, r5
     2bc:	4d12      	ldr	r5, [pc, #72]	; (308 <_GLOBAL__sub_I_ain+0x8c>)
     2be:	4622      	mov	r2, r4
     2c0:	4912      	ldr	r1, [pc, #72]	; (30c <_GLOBAL__sub_I_ain+0x90>)
     2c2:	f001 fa65 	bl	1790 <__aeabi_atexit>
     2c6:	4a12      	ldr	r2, [pc, #72]	; (310 <_GLOBAL__sub_I_ain+0x94>)
     2c8:	4912      	ldr	r1, [pc, #72]	; (314 <_GLOBAL__sub_I_ain+0x98>)
     2ca:	4628      	mov	r0, r5
     2cc:	f44f 33e1 	mov.w	r3, #115200	; 0x1c200
     2d0:	f000 fec2 	bl	1058 <mbed::Serial::Serial(PinName, PinName, int)>
     2d4:	4622      	mov	r2, r4
     2d6:	4628      	mov	r0, r5
     2d8:	e8bd 4070 	ldmia.w	sp!, {r4, r5, r6, lr}
     2dc:	490e      	ldr	r1, [pc, #56]	; (318 <_GLOBAL__sub_I_ain+0x9c>)
     2de:	f001 ba57 	b.w	1790 <__aeabi_atexit>
     2e2:	bf00      	nop
     2e4:	100002cc 	.word	0x100002cc
     2e8:	000061e4 	.word	0x000061e4
     2ec:	1000042c 	.word	0x1000042c
     2f0:	2009c017 	.word	0x2009c017
     2f4:	100000c8 	.word	0x100000c8
     2f8:	100002d4 	.word	0x100002d4
     2fc:	00000139 	.word	0x00000139
     300:	000061fc 	.word	0x000061fc
     304:	2009c01a 	.word	0x2009c01a
     308:	100002dc 	.word	0x100002dc
     30c:	0000013b 	.word	0x0000013b
     310:	2009c003 	.word	0x2009c003
     314:	2009c002 	.word	0x2009c002
     318:	00000189 	.word	0x00000189

0000031c <_start>:
     31c:	4807      	ldr	r0, [pc, #28]	; (33c <_start+0x20>)
     31e:	4a08      	ldr	r2, [pc, #32]	; (340 <_start+0x24>)
     320:	b508      	push	{r3, lr}
     322:	1a12      	subs	r2, r2, r0
     324:	2100      	movs	r1, #0
     326:	f002 fba4 	bl	2a72 <memset>
     32a:	f001 f9eb 	bl	1704 <software_init_hook>
     32e:	f002 faef 	bl	2910 <__libc_init_array>
     332:	f001 f9ee 	bl	1712 <__wrap_main>
     336:	f001 fa2d 	bl	1794 <__wrap_exit>
     33a:	bf00      	nop
     33c:	100002b0 	.word	0x100002b0
     340:	10000558 	.word	0x10000558

00000344 <__wrap__isatty>:
     344:	2802      	cmp	r0, #2
     346:	dd01      	ble.n	34c <__wrap__isatty+0x8>
     348:	f001 b98e 	b.w	1668 <_isatty>
     34c:	2001      	movs	r0, #1
     34e:	4770      	bx	lr

00000350 <abort>:
     350:	b508      	push	{r3, lr}
     352:	2001      	movs	r0, #1
     354:	f001 fa1e 	bl	1794 <__wrap_exit>

00000358 <__cxa_pure_virtual>:
     358:	b508      	push	{r3, lr}
     35a:	f7ff fff9 	bl	350 <abort>

0000035e <_gpio_init_in>:
     35e:	b570      	push	{r4, r5, r6, lr}
     360:	460e      	mov	r6, r1
     362:	4604      	mov	r4, r0
     364:	4615      	mov	r5, r2
     366:	f000 f987 	bl	678 <gpio_init>
     36a:	3601      	adds	r6, #1
     36c:	d009      	beq.n	382 <_gpio_init_in+0x24>
     36e:	4620      	mov	r0, r4
     370:	2100      	movs	r1, #0
     372:	f000 f99b 	bl	6ac <gpio_dir>
     376:	4629      	mov	r1, r5
     378:	4620      	mov	r0, r4
     37a:	e8bd 4070 	ldmia.w	sp!, {r4, r5, r6, lr}
     37e:	f000 b992 	b.w	6a6 <gpio_mode>
     382:	bd70      	pop	{r4, r5, r6, pc}

00000384 <_gpio_init_out.part.1>:
     384:	b538      	push	{r3, r4, r5, lr}
     386:	4604      	mov	r4, r0
     388:	460d      	mov	r5, r1
     38a:	6843      	ldr	r3, [r0, #4]
     38c:	b15a      	cbz	r2, 3a6 <_gpio_init_out.part.1+0x22>
     38e:	68c2      	ldr	r2, [r0, #12]
     390:	4620      	mov	r0, r4
     392:	6013      	str	r3, [r2, #0]
     394:	2101      	movs	r1, #1
     396:	f000 f989 	bl	6ac <gpio_dir>
     39a:	4629      	mov	r1, r5
     39c:	4620      	mov	r0, r4
     39e:	e8bd 4038 	ldmia.w	sp!, {r3, r4, r5, lr}
     3a2:	f000 b980 	b.w	6a6 <gpio_mode>
     3a6:	6902      	ldr	r2, [r0, #16]
     3a8:	e7f2      	b.n	390 <_gpio_init_out.part.1+0xc>

000003aa <gpio_init_in>:
     3aa:	2203      	movs	r2, #3
     3ac:	f7ff bfd7 	b.w	35e <_gpio_init_in>

000003b0 <gpio_init_out_ex>:
     3b0:	b570      	push	{r4, r5, r6, lr}
     3b2:	460e      	mov	r6, r1
     3b4:	4604      	mov	r4, r0
     3b6:	4615      	mov	r5, r2
     3b8:	f000 f95e 	bl	678 <gpio_init>
     3bc:	3601      	adds	r6, #1
     3be:	d006      	beq.n	3ce <gpio_init_out_ex+0x1e>
     3c0:	462a      	mov	r2, r5
     3c2:	4620      	mov	r0, r4
     3c4:	e8bd 4070 	ldmia.w	sp!, {r4, r5, r6, lr}
     3c8:	2102      	movs	r1, #2
     3ca:	f7ff bfdb 	b.w	384 <_gpio_init_out.part.1>
     3ce:	bd70      	pop	{r4, r5, r6, pc}

000003d0 <gpio_init_out>:
     3d0:	2200      	movs	r2, #0
     3d2:	f7ff bfed 	b.w	3b0 <gpio_init_out_ex>
	...

000003d8 <us_ticker_irq_handler>:
     3d8:	4801      	ldr	r0, [pc, #4]	; (3e0 <us_ticker_irq_handler+0x8>)
     3da:	f000 b803 	b.w	3e4 <ticker_irq_handler>
     3de:	bf00      	nop
     3e0:	00006224 	.word	0x00006224

000003e4 <ticker_irq_handler>:
     3e4:	6803      	ldr	r3, [r0, #0]
     3e6:	b570      	push	{r4, r5, r6, lr}
     3e8:	68db      	ldr	r3, [r3, #12]
     3ea:	4604      	mov	r4, r0
     3ec:	4798      	blx	r3
     3ee:	6863      	ldr	r3, [r4, #4]
     3f0:	685a      	ldr	r2, [r3, #4]
     3f2:	6823      	ldr	r3, [r4, #0]
     3f4:	b91a      	cbnz	r2, 3fe <ticker_irq_handler+0x1a>
     3f6:	689b      	ldr	r3, [r3, #8]
     3f8:	e8bd 4070 	ldmia.w	sp!, {r4, r5, r6, lr}
     3fc:	4718      	bx	r3
     3fe:	685b      	ldr	r3, [r3, #4]
     400:	6815      	ldr	r5, [r2, #0]
     402:	4798      	blx	r3
     404:	6863      	ldr	r3, [r4, #4]
     406:	1a28      	subs	r0, r5, r0
     408:	2800      	cmp	r0, #0
     40a:	685a      	ldr	r2, [r3, #4]
     40c:	dc07      	bgt.n	41e <ticker_irq_handler+0x3a>
     40e:	6891      	ldr	r1, [r2, #8]
     410:	6059      	str	r1, [r3, #4]
     412:	681b      	ldr	r3, [r3, #0]
     414:	2b00      	cmp	r3, #0
     416:	d0ea      	beq.n	3ee <ticker_irq_handler+0xa>
     418:	6850      	ldr	r0, [r2, #4]
     41a:	4798      	blx	r3
     41c:	e7e7      	b.n	3ee <ticker_irq_handler+0xa>
     41e:	6823      	ldr	r3, [r4, #0]
     420:	6810      	ldr	r0, [r2, #0]
     422:	691b      	ldr	r3, [r3, #16]
     424:	e8bd 4070 	ldmia.w	sp!, {r4, r5, r6, lr}
     428:	4718      	bx	r3
	...

0000042c <pinmap_pinout>:
     42c:	b510      	push	{r4, lr}
     42e:	4604      	mov	r4, r0
     430:	3001      	adds	r0, #1
     432:	d10d      	bne.n	450 <pinmap_pinout+0x24>
     434:	bd10      	pop	{r4, pc}
     436:	429c      	cmp	r4, r3
     438:	d109      	bne.n	44e <pinmap_pinout+0x22>
     43a:	4620      	mov	r0, r4
     43c:	6889      	ldr	r1, [r1, #8]
     43e:	f000 fd35 	bl	eac <pin_function>
     442:	4620      	mov	r0, r4
     444:	e8bd 4010 	ldmia.w	sp!, {r4, lr}
     448:	2102      	movs	r1, #2
     44a:	f000 bd48 	b.w	ede <pin_mode>
     44e:	310c      	adds	r1, #12
     450:	680b      	ldr	r3, [r1, #0]
     452:	1c5a      	adds	r2, r3, #1
     454:	d1ef      	bne.n	436 <pinmap_pinout+0xa>
     456:	4802      	ldr	r0, [pc, #8]	; (460 <pinmap_pinout+0x34>)
     458:	e8bd 4010 	ldmia.w	sp!, {r4, lr}
     45c:	f000 b880 	b.w	560 <error>
     460:	00006271 	.word	0x00006271

00000464 <pinmap_merge>:
     464:	4288      	cmp	r0, r1
     466:	b508      	push	{r3, lr}
     468:	d008      	beq.n	47c <pinmap_merge+0x18>
     46a:	1c43      	adds	r3, r0, #1
     46c:	d006      	beq.n	47c <pinmap_merge+0x18>
     46e:	3101      	adds	r1, #1
     470:	d006      	beq.n	480 <pinmap_merge+0x1c>
     472:	4804      	ldr	r0, [pc, #16]	; (484 <pinmap_merge+0x20>)
     474:	f000 f874 	bl	560 <error>
     478:	f04f 31ff 	mov.w	r1, #4294967295	; 0xffffffff
     47c:	4608      	mov	r0, r1
     47e:	bd08      	pop	{r3, pc}
     480:	4601      	mov	r1, r0
     482:	e7fb      	b.n	47c <pinmap_merge+0x18>
     484:	00006240 	.word	0x00006240

00000488 <pinmap_find_peripheral>:
     488:	680b      	ldr	r3, [r1, #0]
     48a:	1c5a      	adds	r2, r3, #1
     48c:	d101      	bne.n	492 <pinmap_find_peripheral+0xa>
     48e:	4618      	mov	r0, r3
     490:	4770      	bx	lr
     492:	4283      	cmp	r3, r0
     494:	d101      	bne.n	49a <pinmap_find_peripheral+0x12>
     496:	6848      	ldr	r0, [r1, #4]
     498:	4770      	bx	lr
     49a:	310c      	adds	r1, #12
     49c:	e7f4      	b.n	488 <pinmap_find_peripheral>
	...

000004a0 <pinmap_peripheral>:
     4a0:	1c42      	adds	r2, r0, #1
     4a2:	b510      	push	{r4, lr}
     4a4:	4604      	mov	r4, r0
     4a6:	d007      	beq.n	4b8 <pinmap_peripheral+0x18>
     4a8:	f7ff ffee 	bl	488 <pinmap_find_peripheral>
     4ac:	1c43      	adds	r3, r0, #1
     4ae:	4604      	mov	r4, r0
     4b0:	d102      	bne.n	4b8 <pinmap_peripheral+0x18>
     4b2:	4802      	ldr	r0, [pc, #8]	; (4bc <pinmap_peripheral+0x1c>)
     4b4:	f000 f854 	bl	560 <error>
     4b8:	4620      	mov	r0, r4
     4ba:	bd10      	pop	{r4, pc}
     4bc:	00006251 	.word	0x00006251

000004c0 <wait_us>:
     4c0:	b538      	push	{r3, r4, r5, lr}
     4c2:	4604      	mov	r4, r0
     4c4:	f000 fc50 	bl	d68 <us_ticker_read>
     4c8:	4605      	mov	r5, r0
     4ca:	f000 fc4d 	bl	d68 <us_ticker_read>
     4ce:	1b40      	subs	r0, r0, r5
     4d0:	42a0      	cmp	r0, r4
     4d2:	d3fa      	bcc.n	4ca <wait_us+0xa>
     4d4:	bd38      	pop	{r3, r4, r5, pc}
	...

000004d8 <wait>:
     4d8:	b508      	push	{r3, lr}
     4da:	4904      	ldr	r1, [pc, #16]	; (4ec <wait+0x14>)
     4dc:	f001 fd62 	bl	1fa4 <__aeabi_fmul>
     4e0:	f001 ff26 	bl	2330 <__aeabi_f2iz>
     4e4:	e8bd 4008 	ldmia.w	sp!, {r3, lr}
     4e8:	f7ff bfea 	b.w	4c0 <wait_us>
     4ec:	49742400 	.word	0x49742400

000004f0 <wait_ms>:
     4f0:	f44f 737a 	mov.w	r3, #1000	; 0x3e8
     4f4:	4358      	muls	r0, r3
     4f6:	f7ff bfe3 	b.w	4c0 <wait_us>

000004fa <mbed_interface_connected>:
     4fa:	f000 b829 	b.w	550 <semihost_connected>

000004fe <core_util_are_interrupts_enabled>:
     4fe:	f3ef 8010 	mrs	r0, PRIMASK
     502:	43c0      	mvns	r0, r0
     504:	f000 0001 	and.w	r0, r0, #1
     508:	4770      	bx	lr
	...

0000050c <core_util_critical_section_enter>:
     50c:	b508      	push	{r3, lr}
     50e:	f7ff fff6 	bl	4fe <core_util_are_interrupts_enabled>
     512:	b672      	cpsid	i
     514:	4b06      	ldr	r3, [pc, #24]	; (530 <core_util_critical_section_enter+0x24>)
     516:	681a      	ldr	r2, [r3, #0]
     518:	b922      	cbnz	r2, 524 <core_util_critical_section_enter+0x18>
     51a:	f080 0001 	eor.w	r0, r0, #1
     51e:	4a05      	ldr	r2, [pc, #20]	; (534 <core_util_critical_section_enter+0x28>)
     520:	b2c0      	uxtb	r0, r0
     522:	7010      	strb	r0, [r2, #0]
     524:	681a      	ldr	r2, [r3, #0]
     526:	681a      	ldr	r2, [r3, #0]
     528:	3201      	adds	r2, #1
     52a:	601a      	str	r2, [r3, #0]
     52c:	bd08      	pop	{r3, pc}
     52e:	bf00      	nop
     530:	10000330 	.word	0x10000330
     534:	1000032c 	.word	0x1000032c

00000538 <semihost_exit>:
     538:	b530      	push	{r4, r5, lr}
     53a:	b085      	sub	sp, #20
     53c:	466d      	mov	r5, sp
     53e:	2418      	movs	r4, #24
     540:	4620      	mov	r0, r4
     542:	4629      	mov	r1, r5
     544:	beab      	bkpt	0x00ab
     546:	4604      	mov	r4, r0
     548:	4620      	mov	r0, r4
     54a:	b005      	add	sp, #20
     54c:	bd30      	pop	{r4, r5, pc}
	...

00000550 <semihost_connected>:
     550:	4b02      	ldr	r3, [pc, #8]	; (55c <semihost_connected+0xc>)
     552:	6818      	ldr	r0, [r3, #0]
     554:	f000 0001 	and.w	r0, r0, #1
     558:	4770      	bx	lr
     55a:	bf00      	nop
     55c:	e000edf0 	.word	0xe000edf0

00000560 <error>:
     560:	b40f      	push	{r0, r1, r2, r3}
     562:	2001      	movs	r0, #1
     564:	b508      	push	{r3, lr}
     566:	f001 f915 	bl	1794 <__wrap_exit>
	...

0000056c <mbed_die>:
     56c:	b500      	push	{lr}
     56e:	b099      	sub	sp, #100	; 0x64
     570:	f7ff ffcc 	bl	50c <core_util_critical_section_enter>
     574:	4917      	ldr	r1, [pc, #92]	; (5d4 <mbed_die+0x68>)
     576:	4668      	mov	r0, sp
     578:	f7ff ff2a 	bl	3d0 <gpio_init_out>
     57c:	4916      	ldr	r1, [pc, #88]	; (5d8 <mbed_die+0x6c>)
     57e:	a806      	add	r0, sp, #24
     580:	f7ff ff26 	bl	3d0 <gpio_init_out>
     584:	4915      	ldr	r1, [pc, #84]	; (5dc <mbed_die+0x70>)
     586:	a80c      	add	r0, sp, #48	; 0x30
     588:	f7ff ff22 	bl	3d0 <gpio_init_out>
     58c:	4914      	ldr	r1, [pc, #80]	; (5e0 <mbed_die+0x74>)
     58e:	a812      	add	r0, sp, #72	; 0x48
     590:	f7ff ff1e 	bl	3d0 <gpio_init_out>
     594:	9a01      	ldr	r2, [sp, #4]
     596:	9b03      	ldr	r3, [sp, #12]
     598:	2096      	movs	r0, #150	; 0x96
     59a:	601a      	str	r2, [r3, #0]
     59c:	9a07      	ldr	r2, [sp, #28]
     59e:	9b0a      	ldr	r3, [sp, #40]	; 0x28
     5a0:	601a      	str	r2, [r3, #0]
     5a2:	9a0d      	ldr	r2, [sp, #52]	; 0x34
     5a4:	9b10      	ldr	r3, [sp, #64]	; 0x40
     5a6:	601a      	str	r2, [r3, #0]
     5a8:	9a13      	ldr	r2, [sp, #76]	; 0x4c
     5aa:	9b15      	ldr	r3, [sp, #84]	; 0x54
     5ac:	601a      	str	r2, [r3, #0]
     5ae:	f7ff ff9f 	bl	4f0 <wait_ms>
     5b2:	9a01      	ldr	r2, [sp, #4]
     5b4:	9b04      	ldr	r3, [sp, #16]
     5b6:	2096      	movs	r0, #150	; 0x96
     5b8:	601a      	str	r2, [r3, #0]
     5ba:	9a07      	ldr	r2, [sp, #28]
     5bc:	9b09      	ldr	r3, [sp, #36]	; 0x24
     5be:	601a      	str	r2, [r3, #0]
     5c0:	9a0d      	ldr	r2, [sp, #52]	; 0x34
     5c2:	9b0f      	ldr	r3, [sp, #60]	; 0x3c
     5c4:	601a      	str	r2, [r3, #0]
     5c6:	9a13      	ldr	r2, [sp, #76]	; 0x4c
     5c8:	9b16      	ldr	r3, [sp, #88]	; 0x58
     5ca:	601a      	str	r2, [r3, #0]
     5cc:	f7ff ff90 	bl	4f0 <wait_ms>
     5d0:	e7e0      	b.n	594 <mbed_die+0x28>
     5d2:	bf00      	nop
     5d4:	2009c032 	.word	0x2009c032
     5d8:	2009c034 	.word	0x2009c034
     5dc:	2009c035 	.word	0x2009c035
     5e0:	2009c037 	.word	0x2009c037

000005e4 <analogout_init>:
     5e4:	b570      	push	{r4, r5, r6, lr}
     5e6:	460c      	mov	r4, r1
     5e8:	4d0a      	ldr	r5, [pc, #40]	; (614 <analogout_init+0x30>)
     5ea:	4606      	mov	r6, r0
     5ec:	4629      	mov	r1, r5
     5ee:	4620      	mov	r0, r4
     5f0:	f7ff ff56 	bl	4a0 <pinmap_peripheral>
     5f4:	4a08      	ldr	r2, [pc, #32]	; (618 <analogout_init+0x34>)
     5f6:	7030      	strb	r0, [r6, #0]
     5f8:	f8d2 31a8 	ldr.w	r3, [r2, #424]	; 0x1a8
     5fc:	4629      	mov	r1, r5
     5fe:	f423 0340 	bic.w	r3, r3, #12582912	; 0xc00000
     602:	f8c2 31a8 	str.w	r3, [r2, #424]	; 0x1a8
     606:	4620      	mov	r0, r4
     608:	f7ff ff10 	bl	42c <pinmap_pinout>
     60c:	2200      	movs	r2, #0
     60e:	4b03      	ldr	r3, [pc, #12]	; (61c <analogout_init+0x38>)
     610:	601a      	str	r2, [r3, #0]
     612:	bd70      	pop	{r4, r5, r6, pc}
     614:	00006284 	.word	0x00006284
     618:	400fc000 	.word	0x400fc000
     61c:	4008c000 	.word	0x4008c000

00000620 <analogout_write>:
     620:	b538      	push	{r3, r4, r5, lr}
     622:	460d      	mov	r5, r1
     624:	2100      	movs	r1, #0
     626:	4628      	mov	r0, r5
     628:	f001 fe5a 	bl	22e0 <__aeabi_fcmplt>
     62c:	4c0b      	ldr	r4, [pc, #44]	; (65c <analogout_write+0x3c>)
     62e:	b110      	cbz	r0, 636 <analogout_write+0x16>
     630:	2300      	movs	r3, #0
     632:	6023      	str	r3, [r4, #0]
     634:	bd38      	pop	{r3, r4, r5, pc}
     636:	f04f 517e 	mov.w	r1, #1065353216	; 0x3f800000
     63a:	4628      	mov	r0, r5
     63c:	f001 fe6e 	bl	231c <__aeabi_fcmpgt>
     640:	b110      	cbz	r0, 648 <analogout_write+0x28>
     642:	f64f 73c0 	movw	r3, #65472	; 0xffc0
     646:	e7f4      	b.n	632 <analogout_write+0x12>
     648:	4905      	ldr	r1, [pc, #20]	; (660 <analogout_write+0x40>)
     64a:	4628      	mov	r0, r5
     64c:	f001 fcaa 	bl	1fa4 <__aeabi_fmul>
     650:	f001 fe6e 	bl	2330 <__aeabi_f2iz>
     654:	0180      	lsls	r0, r0, #6
     656:	b280      	uxth	r0, r0
     658:	6020      	str	r0, [r4, #0]
     65a:	bd38      	pop	{r3, r4, r5, pc}
     65c:	4008c000 	.word	0x4008c000
     660:	447fc000 	.word	0x447fc000

00000664 <gpio_set>:
     664:	b510      	push	{r4, lr}
     666:	2100      	movs	r1, #0
     668:	4604      	mov	r4, r0
     66a:	f000 fc1f 	bl	eac <pin_function>
     66e:	2001      	movs	r0, #1
     670:	f004 041f 	and.w	r4, r4, #31
     674:	40a0      	lsls	r0, r4
     676:	bd10      	pop	{r4, pc}

00000678 <gpio_init>:
     678:	b538      	push	{r3, r4, r5, lr}
     67a:	4605      	mov	r5, r0
     67c:	1c4b      	adds	r3, r1, #1
     67e:	460c      	mov	r4, r1
     680:	6029      	str	r1, [r5, #0]
     682:	d00f      	beq.n	6a4 <gpio_init+0x2c>
     684:	4608      	mov	r0, r1
     686:	f7ff ffed 	bl	664 <gpio_set>
     68a:	f024 041f 	bic.w	r4, r4, #31
     68e:	f104 0318 	add.w	r3, r4, #24
     692:	60eb      	str	r3, [r5, #12]
     694:	f104 031c 	add.w	r3, r4, #28
     698:	612b      	str	r3, [r5, #16]
     69a:	f104 0314 	add.w	r3, r4, #20
     69e:	6068      	str	r0, [r5, #4]
     6a0:	616b      	str	r3, [r5, #20]
     6a2:	60ac      	str	r4, [r5, #8]
     6a4:	bd38      	pop	{r3, r4, r5, pc}

000006a6 <gpio_mode>:
     6a6:	6800      	ldr	r0, [r0, #0]
     6a8:	f000 bc19 	b.w	ede <pin_mode>

000006ac <gpio_dir>:
     6ac:	b111      	cbz	r1, 6b4 <gpio_dir+0x8>
     6ae:	2901      	cmp	r1, #1
     6b0:	d007      	beq.n	6c2 <gpio_dir+0x16>
     6b2:	4770      	bx	lr
     6b4:	6882      	ldr	r2, [r0, #8]
     6b6:	6841      	ldr	r1, [r0, #4]
     6b8:	6813      	ldr	r3, [r2, #0]
     6ba:	ea23 0301 	bic.w	r3, r3, r1
     6be:	6013      	str	r3, [r2, #0]
     6c0:	4770      	bx	lr
     6c2:	6882      	ldr	r2, [r0, #8]
     6c4:	6841      	ldr	r1, [r0, #4]
     6c6:	6813      	ldr	r3, [r2, #0]
     6c8:	430b      	orrs	r3, r1
     6ca:	e7f8      	b.n	6be <gpio_dir+0x12>

000006cc <uart_irq>:
     6cc:	2801      	cmp	r0, #1
     6ce:	b410      	push	{r4}
     6d0:	d008      	beq.n	6e4 <uart_irq+0x18>
     6d2:	2802      	cmp	r0, #2
     6d4:	d008      	beq.n	6e8 <uart_irq+0x1c>
     6d6:	bc10      	pop	{r4}
     6d8:	4770      	bx	lr
     6da:	6850      	ldr	r0, [r2, #4]
     6dc:	f020 0001 	bic.w	r0, r0, #1
     6e0:	6050      	str	r0, [r2, #4]
     6e2:	e010      	b.n	706 <uart_irq+0x3a>
     6e4:	4603      	mov	r3, r0
     6e6:	e00e      	b.n	706 <uart_irq+0x3a>
     6e8:	2338      	movs	r3, #56	; 0x38
     6ea:	480f      	ldr	r0, [pc, #60]	; (728 <uart_irq+0x5c>)
     6ec:	fb03 0301 	mla	r3, r3, r1, r0
     6f0:	6858      	ldr	r0, [r3, #4]
     6f2:	3001      	adds	r0, #1
     6f4:	d006      	beq.n	704 <uart_irq+0x38>
     6f6:	6918      	ldr	r0, [r3, #16]
     6f8:	689c      	ldr	r4, [r3, #8]
     6fa:	6004      	str	r4, [r0, #0]
     6fc:	f893 3036 	ldrb.w	r3, [r3, #54]	; 0x36
     700:	2b00      	cmp	r3, #0
     702:	d0ea      	beq.n	6da <uart_irq+0xe>
     704:	2300      	movs	r3, #0
     706:	2238      	movs	r2, #56	; 0x38
     708:	4351      	muls	r1, r2
     70a:	4807      	ldr	r0, [pc, #28]	; (728 <uart_irq+0x5c>)
     70c:	1842      	adds	r2, r0, r1
     70e:	5840      	ldr	r0, [r0, r1]
     710:	2800      	cmp	r0, #0
     712:	d0e0      	beq.n	6d6 <uart_irq+0xa>
     714:	b91b      	cbnz	r3, 71e <uart_irq+0x52>
     716:	f892 2036 	ldrb.w	r2, [r2, #54]	; 0x36
     71a:	2a00      	cmp	r2, #0
     71c:	d0db      	beq.n	6d6 <uart_irq+0xa>
     71e:	4a03      	ldr	r2, [pc, #12]	; (72c <uart_irq+0x60>)
     720:	4619      	mov	r1, r3
     722:	6812      	ldr	r2, [r2, #0]
     724:	bc10      	pop	{r4}
     726:	4710      	bx	r2
     728:	1000033c 	.word	0x1000033c
     72c:	10000334 	.word	0x10000334

00000730 <uart0_irq>:
     730:	4a03      	ldr	r2, [pc, #12]	; (740 <uart0_irq+0x10>)
     732:	2100      	movs	r1, #0
     734:	6890      	ldr	r0, [r2, #8]
     736:	f3c0 0042 	ubfx	r0, r0, #1, #3
     73a:	f7ff bfc7 	b.w	6cc <uart_irq>
     73e:	bf00      	nop
     740:	4000c000 	.word	0x4000c000

00000744 <uart1_irq>:
     744:	4a03      	ldr	r2, [pc, #12]	; (754 <uart1_irq+0x10>)
     746:	2101      	movs	r1, #1
     748:	6890      	ldr	r0, [r2, #8]
     74a:	f3c0 0042 	ubfx	r0, r0, #1, #3
     74e:	f7ff bfbd 	b.w	6cc <uart_irq>
     752:	bf00      	nop
     754:	40010000 	.word	0x40010000

00000758 <uart2_irq>:
     758:	4a03      	ldr	r2, [pc, #12]	; (768 <uart2_irq+0x10>)
     75a:	2102      	movs	r1, #2
     75c:	6890      	ldr	r0, [r2, #8]
     75e:	f3c0 0042 	ubfx	r0, r0, #1, #3
     762:	f7ff bfb3 	b.w	6cc <uart_irq>
     766:	bf00      	nop
     768:	40098000 	.word	0x40098000

0000076c <uart3_irq>:
     76c:	4a03      	ldr	r2, [pc, #12]	; (77c <uart3_irq+0x10>)
     76e:	2103      	movs	r1, #3
     770:	6890      	ldr	r0, [r2, #8]
     772:	f3c0 0042 	ubfx	r0, r0, #1, #3
     776:	f7ff bfa9 	b.w	6cc <uart_irq>
     77a:	bf00      	nop
     77c:	4009c000 	.word	0x4009c000

00000780 <serial_irq_set_internal>:
     780:	b570      	push	{r4, r5, r6, lr}
     782:	460b      	mov	r3, r1
     784:	6806      	ldr	r6, [r0, #0]
     786:	4929      	ldr	r1, [pc, #164]	; (82c <Heap_Size+0x2c>)
     788:	428e      	cmp	r6, r1
     78a:	d022      	beq.n	7d2 <serial_irq_set_internal+0x52>
     78c:	dc06      	bgt.n	79c <serial_irq_set_internal+0x1c>
     78e:	f5a1 4180 	sub.w	r1, r1, #16384	; 0x4000
     792:	428e      	cmp	r6, r1
     794:	d00c      	beq.n	7b0 <serial_irq_set_internal+0x30>
     796:	2100      	movs	r1, #0
     798:	460c      	mov	r4, r1
     79a:	e00b      	b.n	7b4 <serial_irq_set_internal+0x34>
     79c:	4924      	ldr	r1, [pc, #144]	; (830 <Heap_Size+0x30>)
     79e:	428e      	cmp	r6, r1
     7a0:	d01a      	beq.n	7d8 <serial_irq_set_internal+0x58>
     7a2:	f501 4180 	add.w	r1, r1, #16384	; 0x4000
     7a6:	428e      	cmp	r6, r1
     7a8:	d1f5      	bne.n	796 <serial_irq_set_internal+0x16>
     7aa:	4922      	ldr	r1, [pc, #136]	; (834 <Heap_Size+0x34>)
     7ac:	2408      	movs	r4, #8
     7ae:	e001      	b.n	7b4 <serial_irq_set_internal+0x34>
     7b0:	2405      	movs	r4, #5
     7b2:	4921      	ldr	r1, [pc, #132]	; (838 <Heap_Size+0x38>)
     7b4:	b19a      	cbz	r2, 7de <serial_irq_set_internal+0x5e>
     7b6:	2501      	movs	r5, #1
     7b8:	6872      	ldr	r2, [r6, #4]
     7ba:	fa05 f303 	lsl.w	r3, r5, r3
     7be:	4313      	orrs	r3, r2
     7c0:	6073      	str	r3, [r6, #4]
     7c2:	4620      	mov	r0, r4
     7c4:	f000 fbb8 	bl	f38 <__NVIC_SetVector>
     7c8:	4b1c      	ldr	r3, [pc, #112]	; (83c <Heap_Size+0x3c>)
     7ca:	fa05 f404 	lsl.w	r4, r5, r4
     7ce:	601c      	str	r4, [r3, #0]
     7d0:	bd70      	pop	{r4, r5, r6, pc}
     7d2:	491b      	ldr	r1, [pc, #108]	; (840 <Heap_Size+0x40>)
     7d4:	2406      	movs	r4, #6
     7d6:	e7ed      	b.n	7b4 <serial_irq_set_internal+0x34>
     7d8:	491a      	ldr	r1, [pc, #104]	; (844 <Heap_Size+0x44>)
     7da:	2407      	movs	r4, #7
     7dc:	e7ea      	b.n	7b4 <serial_irq_set_internal+0x34>
     7de:	2b01      	cmp	r3, #1
     7e0:	d00a      	beq.n	7f8 <serial_irq_set_internal+0x78>
     7e2:	6842      	ldr	r2, [r0, #4]
     7e4:	2038      	movs	r0, #56	; 0x38
     7e6:	4918      	ldr	r1, [pc, #96]	; (848 <Heap_Size+0x48>)
     7e8:	fb00 1202 	mla	r2, r0, r2, r1
     7ec:	f892 1036 	ldrb.w	r1, [r2, #54]	; 0x36
     7f0:	f892 2035 	ldrb.w	r2, [r2, #53]	; 0x35
     7f4:	42d1      	cmn	r1, r2
     7f6:	d117      	bne.n	828 <Heap_Size+0x28>
     7f8:	2201      	movs	r2, #1
     7fa:	fa02 f003 	lsl.w	r0, r2, r3
     7fe:	fab3 f383 	clz	r3, r3
     802:	6871      	ldr	r1, [r6, #4]
     804:	095b      	lsrs	r3, r3, #5
     806:	ea21 0100 	bic.w	r1, r1, r0
     80a:	6071      	str	r1, [r6, #4]
     80c:	6871      	ldr	r1, [r6, #4]
     80e:	fa02 f303 	lsl.w	r3, r2, r3
     812:	420b      	tst	r3, r1
     814:	d108      	bne.n	828 <Heap_Size+0x28>
     816:	4b09      	ldr	r3, [pc, #36]	; (83c <Heap_Size+0x3c>)
     818:	fa02 f404 	lsl.w	r4, r2, r4
     81c:	f8c3 4080 	str.w	r4, [r3, #128]	; 0x80
     820:	f3bf 8f4f 	dsb	sy
     824:	f3bf 8f6f 	isb	sy
     828:	bd70      	pop	{r4, r5, r6, pc}
     82a:	bf00      	nop
     82c:	40010000 	.word	0x40010000
     830:	40098000 	.word	0x40098000
     834:	0000076d 	.word	0x0000076d
     838:	00000731 	.word	0x00000731
     83c:	e000e100 	.word	0xe000e100
     840:	00000745 	.word	0x00000745
     844:	00000759 	.word	0x00000759
     848:	1000033c 	.word	0x1000033c

0000084c <serial_baud>:
     84c:	e92d 4ff0 	stmdb	sp!, {r4, r5, r6, r7, r8, r9, r10, r11, lr}
     850:	4b64      	ldr	r3, [pc, #400]	; (9e4 <serial_baud+0x198>)
     852:	6804      	ldr	r4, [r0, #0]
     854:	b087      	sub	sp, #28
     856:	429c      	cmp	r4, r3
     858:	f000 808d 	beq.w	976 <serial_baud+0x12a>
     85c:	dc6a      	bgt.n	934 <serial_baud+0xe8>
     85e:	f5a3 4380 	sub.w	r3, r3, #16384	; 0x4000
     862:	429c      	cmp	r4, r3
     864:	d079      	beq.n	95a <serial_baud+0x10e>
     866:	4b60      	ldr	r3, [pc, #384]	; (9e8 <serial_baud+0x19c>)
     868:	0108      	lsls	r0, r1, #4
     86a:	f8d3 c000 	ldr.w	r12, [r3]
     86e:	fbbc f2f0 	udiv	r2, r12, r0
     872:	b293      	uxth	r3, r2
     874:	fb00 c212 	mls	r2, r0, r2, r12
     878:	2a00      	cmp	r2, #0
     87a:	f000 80aa 	beq.w	9d2 <serial_baud+0x186>
     87e:	2501      	movs	r5, #1
     880:	46e6      	mov	lr, r12
     882:	4699      	mov	r9, r3
     884:	46ab      	mov	r11, r5
     886:	f04f 0a00 	mov.w	r10, #0
     88a:	9101      	str	r1, [sp, #4]
     88c:	9103      	str	r1, [sp, #12]
     88e:	2600      	movs	r6, #0
     890:	ea4f 034e 	mov.w	r3, lr, lsl #1
     894:	9304      	str	r3, [sp, #16]
     896:	f8dd 8004 	ldr.w	r8, [sp, #4]
     89a:	ea4f 038e 	mov.w	r3, lr, lsl #2
     89e:	b2ef      	uxtb	r7, r5
     8a0:	9305      	str	r3, [sp, #20]
     8a2:	b2f3      	uxtb	r3, r6
     8a4:	9300      	str	r3, [sp, #0]
     8a6:	9b04      	ldr	r3, [sp, #16]
     8a8:	2b00      	cmp	r3, #0
     8aa:	bfab      	itete	ge
     8ac:	9b05      	ldrge	r3, [sp, #20]
     8ae:	fbb3 f3f8 	udivlt	r3, r3, r8
     8b2:	fbb3 f3f8 	udivge	r3, r3, r8
     8b6:	091b      	lsrlt	r3, r3, #4
     8b8:	bfa8      	it	ge
     8ba:	095b      	lsrge	r3, r3, #5
     8bc:	3301      	adds	r3, #1
     8be:	f3c3 034f 	ubfx	r3, r3, #1, #16
     8c2:	2b00      	cmp	r3, #0
     8c4:	f000 8088 	beq.w	9d8 <serial_baud+0x18c>
     8c8:	b116      	cbz	r6, 8d0 <serial_baud+0x84>
     8ca:	2b01      	cmp	r3, #1
     8cc:	bf08      	it	eq
     8ce:	2302      	moveq	r3, #2
     8d0:	19a8      	adds	r0, r5, r6
     8d2:	4358      	muls	r0, r3
     8d4:	00c0      	lsls	r0, r0, #3
     8d6:	fbbe f0f0 	udiv	r0, lr, r0
     8da:	3001      	adds	r0, #1
     8dc:	ebc1 0050 	rsb	r0, r1, r0, lsr #1
     8e0:	2800      	cmp	r0, #0
     8e2:	bfb8      	it	lt
     8e4:	4240      	neglt	r0, r0
     8e6:	9002      	str	r0, [sp, #8]
     8e8:	9a02      	ldr	r2, [sp, #8]
     8ea:	9803      	ldr	r0, [sp, #12]
     8ec:	4282      	cmp	r2, r0
     8ee:	da62      	bge.n	9b6 <serial_baud+0x16a>
     8f0:	4291      	cmp	r1, r2
     8f2:	d15a      	bne.n	9aa <serial_baud+0x15e>
     8f4:	2d0f      	cmp	r5, #15
     8f6:	d107      	bne.n	908 <serial_baud+0xbc>
     8f8:	46bb      	mov	r11, r7
     8fa:	4699      	mov	r9, r3
     8fc:	f8dd a000 	ldr.w	r10, [sp]
     900:	465f      	mov	r7, r11
     902:	464b      	mov	r3, r9
     904:	f8cd a000 	str.w	r10, [sp]
     908:	7b21      	ldrb	r1, [r4, #12]
     90a:	f041 0180 	orr.w	r1, r1, #128	; 0x80
     90e:	7321      	strb	r1, [r4, #12]
     910:	f3c3 2107 	ubfx	r1, r3, #8, #8
     914:	b2db      	uxtb	r3, r3
     916:	7121      	strb	r1, [r4, #4]
     918:	7023      	strb	r3, [r4, #0]
     91a:	9b00      	ldr	r3, [sp, #0]
     91c:	ea43 1207 	orr.w	r2, r3, r7, lsl #4
     920:	b2d2      	uxtb	r2, r2
     922:	f884 2028 	strb.w	r2, [r4, #40]	; 0x28
     926:	7b23      	ldrb	r3, [r4, #12]
     928:	f003 037f 	and.w	r3, r3, #127	; 0x7f
     92c:	7323      	strb	r3, [r4, #12]
     92e:	b007      	add	sp, #28
     930:	e8bd 8ff0 	ldmia.w	sp!, {r4, r5, r6, r7, r8, r9, r10, r11, pc}
     934:	4b2d      	ldr	r3, [pc, #180]	; (9ec <serial_baud+0x1a0>)
     936:	429c      	cmp	r4, r3
     938:	d029      	beq.n	98e <serial_baud+0x142>
     93a:	f503 4380 	add.w	r3, r3, #16384	; 0x4000
     93e:	429c      	cmp	r4, r3
     940:	d191      	bne.n	866 <serial_baud+0x1a>
     942:	4b2b      	ldr	r3, [pc, #172]	; (9f0 <serial_baud+0x1a4>)
     944:	f8d3 21ac 	ldr.w	r2, [r3, #428]	; 0x1ac
     948:	f422 2240 	bic.w	r2, r2, #786432	; 0xc0000
     94c:	f8c3 21ac 	str.w	r2, [r3, #428]	; 0x1ac
     950:	f8d3 21ac 	ldr.w	r2, [r3, #428]	; 0x1ac
     954:	f442 2280 	orr.w	r2, r2, #262144	; 0x40000
     958:	e024      	b.n	9a4 <serial_baud+0x158>
     95a:	4b25      	ldr	r3, [pc, #148]	; (9f0 <serial_baud+0x1a4>)
     95c:	f8d3 21a8 	ldr.w	r2, [r3, #424]	; 0x1a8
     960:	f022 02c0 	bic.w	r2, r2, #192	; 0xc0
     964:	f8c3 21a8 	str.w	r2, [r3, #424]	; 0x1a8
     968:	f8d3 21a8 	ldr.w	r2, [r3, #424]	; 0x1a8
     96c:	f042 0240 	orr.w	r2, r2, #64	; 0x40
     970:	f8c3 21a8 	str.w	r2, [r3, #424]	; 0x1a8
     974:	e777      	b.n	866 <serial_baud+0x1a>
     976:	4b1e      	ldr	r3, [pc, #120]	; (9f0 <serial_baud+0x1a4>)
     978:	f8d3 21a8 	ldr.w	r2, [r3, #424]	; 0x1a8
     97c:	f422 7240 	bic.w	r2, r2, #768	; 0x300
     980:	f8c3 21a8 	str.w	r2, [r3, #424]	; 0x1a8
     984:	f8d3 21a8 	ldr.w	r2, [r3, #424]	; 0x1a8
     988:	f442 7280 	orr.w	r2, r2, #256	; 0x100
     98c:	e7f0      	b.n	970 <serial_baud+0x124>
     98e:	4b18      	ldr	r3, [pc, #96]	; (9f0 <serial_baud+0x1a4>)
     990:	f8d3 21ac 	ldr.w	r2, [r3, #428]	; 0x1ac
     994:	f422 3240 	bic.w	r2, r2, #196608	; 0x30000
     998:	f8c3 21ac 	str.w	r2, [r3, #428]	; 0x1ac
     99c:	f8d3 21ac 	ldr.w	r2, [r3, #428]	; 0x1ac
     9a0:	f442 3280 	orr.w	r2, r2, #65536	; 0x10000
     9a4:	f8c3 21ac 	str.w	r2, [r3, #428]	; 0x1ac
     9a8:	e75d      	b.n	866 <serial_baud+0x1a>
     9aa:	46bb      	mov	r11, r7
     9ac:	4699      	mov	r9, r3
     9ae:	9a02      	ldr	r2, [sp, #8]
     9b0:	f8dd a000 	ldr.w	r10, [sp]
     9b4:	9203      	str	r2, [sp, #12]
     9b6:	3601      	adds	r6, #1
     9b8:	b2f3      	uxtb	r3, r6
     9ba:	42bb      	cmp	r3, r7
     9bc:	4488      	add	r8, r1
     9be:	f4ff af70 	bcc.w	8a2 <serial_baud+0x56>
     9c2:	2d0f      	cmp	r5, #15
     9c4:	d09c      	beq.n	900 <serial_baud+0xb4>
     9c6:	9b01      	ldr	r3, [sp, #4]
     9c8:	3501      	adds	r5, #1
     9ca:	440b      	add	r3, r1
     9cc:	44e6      	add	lr, r12
     9ce:	9301      	str	r3, [sp, #4]
     9d0:	e75d      	b.n	88e <serial_baud+0x42>
     9d2:	2701      	movs	r7, #1
     9d4:	9200      	str	r2, [sp, #0]
     9d6:	e797      	b.n	908 <serial_baud+0xbc>
     9d8:	2e00      	cmp	r6, #0
     9da:	bf0c      	ite	eq
     9dc:	2301      	moveq	r3, #1
     9de:	2302      	movne	r3, #2
     9e0:	e776      	b.n	8d0 <serial_baud+0x84>
     9e2:	bf00      	nop
     9e4:	40010000 	.word	0x40010000
     9e8:	100000cc 	.word	0x100000cc
     9ec:	40098000 	.word	0x40098000
     9f0:	400fc000 	.word	0x400fc000

000009f4 <serial_irq_handler>:
     9f4:	4b03      	ldr	r3, [pc, #12]	; (a04 <serial_irq_handler+0x10>)
     9f6:	6019      	str	r1, [r3, #0]
     9f8:	2338      	movs	r3, #56	; 0x38
     9fa:	6841      	ldr	r1, [r0, #4]
     9fc:	434b      	muls	r3, r1
     9fe:	4902      	ldr	r1, [pc, #8]	; (a08 <serial_irq_handler+0x14>)
     a00:	50ca      	str	r2, [r1, r3]
     a02:	4770      	bx	lr
     a04:	10000334 	.word	0x10000334
     a08:	1000033c 	.word	0x1000033c

00000a0c <serial_getc>:
     a0c:	b510      	push	{r4, lr}
     a0e:	6802      	ldr	r2, [r0, #0]
     a10:	7d13      	ldrb	r3, [r2, #20]
     a12:	07db      	lsls	r3, r3, #31
     a14:	d5fc      	bpl.n	a10 <serial_getc+0x4>
     a16:	2438      	movs	r4, #56	; 0x38
     a18:	6843      	ldr	r3, [r0, #4]
     a1a:	4808      	ldr	r0, [pc, #32]	; (a3c <serial_getc+0x30>)
     a1c:	7811      	ldrb	r1, [r2, #0]
     a1e:	fb04 0303 	mla	r3, r4, r3, r0
     a22:	6858      	ldr	r0, [r3, #4]
     a24:	b2c9      	uxtb	r1, r1
     a26:	3001      	adds	r0, #1
     a28:	d006      	beq.n	a38 <serial_getc+0x2c>
     a2a:	6958      	ldr	r0, [r3, #20]
     a2c:	689b      	ldr	r3, [r3, #8]
     a2e:	6003      	str	r3, [r0, #0]
     a30:	6853      	ldr	r3, [r2, #4]
     a32:	f043 0301 	orr.w	r3, r3, #1
     a36:	6053      	str	r3, [r2, #4]
     a38:	4608      	mov	r0, r1
     a3a:	bd10      	pop	{r4, pc}
     a3c:	1000033c 	.word	0x1000033c

00000a40 <serial_writable>:
     a40:	2138      	movs	r1, #56	; 0x38
     a42:	4a11      	ldr	r2, [pc, #68]	; (a88 <serial_writable+0x48>)
     a44:	6843      	ldr	r3, [r0, #4]
     a46:	fb01 2303 	mla	r3, r1, r3, r2
     a4a:	69da      	ldr	r2, [r3, #28]
     a4c:	3201      	adds	r2, #1
     a4e:	d009      	beq.n	a64 <serial_writable+0x24>
     a50:	6b1a      	ldr	r2, [r3, #48]	; 0x30
     a52:	6a1b      	ldr	r3, [r3, #32]
     a54:	6812      	ldr	r2, [r2, #0]
     a56:	421a      	tst	r2, r3
     a58:	d114      	bne.n	a84 <serial_writable+0x44>
     a5a:	6803      	ldr	r3, [r0, #0]
     a5c:	7d18      	ldrb	r0, [r3, #20]
     a5e:	f3c0 1080 	ubfx	r0, r0, #6, #1
     a62:	4770      	bx	lr
     a64:	6802      	ldr	r2, [r0, #0]
     a66:	7d12      	ldrb	r2, [r2, #20]
     a68:	0692      	lsls	r2, r2, #26
     a6a:	d504      	bpl.n	a76 <serial_writable+0x36>
     a6c:	2200      	movs	r2, #0
     a6e:	2001      	movs	r0, #1
     a70:	f883 2034 	strb.w	r2, [r3, #52]	; 0x34
     a74:	4770      	bx	lr
     a76:	f893 0034 	ldrb.w	r0, [r3, #52]	; 0x34
     a7a:	280f      	cmp	r0, #15
     a7c:	bf8c      	ite	hi
     a7e:	2000      	movhi	r0, #0
     a80:	2001      	movls	r0, #1
     a82:	4770      	bx	lr
     a84:	2000      	movs	r0, #0
     a86:	4770      	bx	lr
     a88:	1000033c 	.word	0x1000033c

00000a8c <serial_putc>:
     a8c:	b538      	push	{r3, r4, r5, lr}
     a8e:	4604      	mov	r4, r0
     a90:	460d      	mov	r5, r1
     a92:	4620      	mov	r0, r4
     a94:	f7ff ffd4 	bl	a40 <serial_writable>
     a98:	2800      	cmp	r0, #0
     a9a:	d0fa      	beq.n	a92 <serial_putc+0x6>
     a9c:	2138      	movs	r1, #56	; 0x38
     a9e:	6823      	ldr	r3, [r4, #0]
     aa0:	b2ed      	uxtb	r5, r5
     aa2:	701d      	strb	r5, [r3, #0]
     aa4:	6863      	ldr	r3, [r4, #4]
     aa6:	4a04      	ldr	r2, [pc, #16]	; (ab8 <serial_putc+0x2c>)
     aa8:	fb01 2303 	mla	r3, r1, r3, r2
     aac:	f893 2034 	ldrb.w	r2, [r3, #52]	; 0x34
     ab0:	3201      	adds	r2, #1
     ab2:	f883 2034 	strb.w	r2, [r3, #52]	; 0x34
     ab6:	bd38      	pop	{r3, r4, r5, pc}
     ab8:	1000033c 	.word	0x1000033c

00000abc <serial_set_flow_control>:
     abc:	e92d 4ff8 	stmdb	sp!, {r3, r4, r5, r6, r7, r8, r9, r10, r11, lr}
     ac0:	469a      	mov	r10, r3
     ac2:	4c3c      	ldr	r4, [pc, #240]	; (bb4 <serial_set_flow_control+0xf8>)
     ac4:	6803      	ldr	r3, [r0, #0]
     ac6:	4605      	mov	r5, r0
     ac8:	42a3      	cmp	r3, r4
     aca:	bf18      	it	ne
     acc:	2400      	movne	r4, #0
     ace:	4689      	mov	r9, r1
     ad0:	4690      	mov	r8, r2
     ad2:	6847      	ldr	r7, [r0, #4]
     ad4:	b11c      	cbz	r4, ade <serial_set_flow_control+0x22>
     ad6:	7c23      	ldrb	r3, [r4, #16]
     ad8:	f003 033f 	and.w	r3, r3, #63	; 0x3f
     adc:	7423      	strb	r3, [r4, #16]
     ade:	2338      	movs	r3, #56	; 0x38
     ae0:	f04f 32ff 	mov.w	r2, #4294967295	; 0xffffffff
     ae4:	4e34      	ldr	r6, [pc, #208]	; (bb8 <serial_set_flow_control+0xfc>)
     ae6:	4628      	mov	r0, r5
     ae8:	fb03 6307 	mla	r3, r3, r7, r6
     aec:	61da      	str	r2, [r3, #28]
     aee:	605a      	str	r2, [r3, #4]
     af0:	2200      	movs	r2, #0
     af2:	f883 2035 	strb.w	r2, [r3, #53]	; 0x35
     af6:	4611      	mov	r1, r2
     af8:	f7ff fe42 	bl	780 <serial_irq_set_internal>
     afc:	f1b9 0f00 	cmp.w	r9, #0
     b00:	d055      	beq.n	bae <serial_set_flow_control+0xf2>
     b02:	492e      	ldr	r1, [pc, #184]	; (bbc <serial_set_flow_control+0x100>)
     b04:	4640      	mov	r0, r8
     b06:	f7ff fcbf 	bl	488 <pinmap_find_peripheral>
     b0a:	492d      	ldr	r1, [pc, #180]	; (bc0 <serial_set_flow_control+0x104>)
     b0c:	4683      	mov	r11, r0
     b0e:	4650      	mov	r0, r10
     b10:	f7ff fcba 	bl	488 <pinmap_find_peripheral>
     b14:	f1a9 0302 	sub.w	r3, r9, #2
     b18:	2b01      	cmp	r3, #1
     b1a:	d81b      	bhi.n	b54 <serial_set_flow_control+0x98>
     b1c:	f1ba 3fff 	cmp.w	r10, #4294967295	; 0xffffffff
     b20:	d00b      	beq.n	b3a <serial_set_flow_control+0x7e>
     b22:	4b24      	ldr	r3, [pc, #144]	; (bb4 <serial_set_flow_control+0xf8>)
     b24:	4298      	cmp	r0, r3
     b26:	d10d      	bne.n	b44 <serial_set_flow_control+0x88>
     b28:	b164      	cbz	r4, b44 <serial_set_flow_control+0x88>
     b2a:	7c23      	ldrb	r3, [r4, #16]
     b2c:	4924      	ldr	r1, [pc, #144]	; (bc0 <serial_set_flow_control+0x104>)
     b2e:	f043 0380 	orr.w	r3, r3, #128	; 0x80
     b32:	7423      	strb	r3, [r4, #16]
     b34:	4650      	mov	r0, r10
     b36:	f7ff fc79 	bl	42c <pinmap_pinout>
     b3a:	f1b9 0f03 	cmp.w	r9, #3
     b3e:	d00c      	beq.n	b5a <serial_set_flow_control+0x9e>
     b40:	e8bd 8ff8 	ldmia.w	sp!, {r3, r4, r5, r6, r7, r8, r9, r10, r11, pc}
     b44:	2038      	movs	r0, #56	; 0x38
     b46:	fb00 6007 	mla	r0, r0, r7, r6
     b4a:	4651      	mov	r1, r10
     b4c:	301c      	adds	r0, #28
     b4e:	f7ff fc2c 	bl	3aa <gpio_init_in>
     b52:	e7f2      	b.n	b3a <serial_set_flow_control+0x7e>
     b54:	f1b9 0f01 	cmp.w	r9, #1
     b58:	d129      	bne.n	bae <serial_set_flow_control+0xf2>
     b5a:	f1b8 3fff 	cmp.w	r8, #4294967295	; 0xffffffff
     b5e:	d101      	bne.n	b64 <serial_set_flow_control+0xa8>
     b60:	e8bd 8ff8 	ldmia.w	sp!, {r3, r4, r5, r6, r7, r8, r9, r10, r11, pc}
     b64:	2207      	movs	r2, #7
     b66:	682b      	ldr	r3, [r5, #0]
     b68:	721a      	strb	r2, [r3, #8]
     b6a:	4b12      	ldr	r3, [pc, #72]	; (bb4 <serial_set_flow_control+0xf8>)
     b6c:	459b      	cmp	r11, r3
     b6e:	d10a      	bne.n	b86 <serial_set_flow_control+0xca>
     b70:	b14c      	cbz	r4, b86 <serial_set_flow_control+0xca>
     b72:	7c23      	ldrb	r3, [r4, #16]
     b74:	4640      	mov	r0, r8
     b76:	f043 0340 	orr.w	r3, r3, #64	; 0x40
     b7a:	7423      	strb	r3, [r4, #16]
     b7c:	490f      	ldr	r1, [pc, #60]	; (bbc <serial_set_flow_control+0x100>)
     b7e:	e8bd 4ff8 	ldmia.w	sp!, {r3, r4, r5, r6, r7, r8, r9, r10, r11, lr}
     b82:	f7ff bc53 	b.w	42c <pinmap_pinout>
     b86:	2438      	movs	r4, #56	; 0x38
     b88:	fb04 6007 	mla	r0, r4, r7, r6
     b8c:	4641      	mov	r1, r8
     b8e:	2200      	movs	r2, #0
     b90:	3004      	adds	r0, #4
     b92:	f7ff fc0d 	bl	3b0 <gpio_init_out_ex>
     b96:	2201      	movs	r2, #1
     b98:	686b      	ldr	r3, [r5, #4]
     b9a:	4628      	mov	r0, r5
     b9c:	fb04 6603 	mla	r6, r4, r3, r6
     ba0:	f886 2035 	strb.w	r2, [r6, #53]	; 0x35
     ba4:	2100      	movs	r1, #0
     ba6:	e8bd 4ff8 	ldmia.w	sp!, {r3, r4, r5, r6, r7, r8, r9, r10, r11, lr}
     baa:	f7ff bde9 	b.w	780 <serial_irq_set_internal>
     bae:	e8bd 8ff8 	ldmia.w	sp!, {r3, r4, r5, r6, r7, r8, r9, r10, r11, pc}
     bb2:	bf00      	nop
     bb4:	40010000 	.word	0x40010000
     bb8:	1000033c 	.word	0x1000033c
     bbc:	000062c0 	.word	0x000062c0
     bc0:	0000629c 	.word	0x0000629c

00000bc4 <serial_init>:
     bc4:	e92d 41f0 	stmdb	sp!, {r4, r5, r6, r7, r8, lr}
     bc8:	460f      	mov	r7, r1
     bca:	4605      	mov	r5, r0
     bcc:	4946      	ldr	r1, [pc, #280]	; (ce8 <Stack_Size+0xe8>)
     bce:	4638      	mov	r0, r7
     bd0:	4616      	mov	r6, r2
     bd2:	f7ff fc65 	bl	4a0 <pinmap_peripheral>
     bd6:	4945      	ldr	r1, [pc, #276]	; (cec <Stack_Size+0xec>)
     bd8:	4604      	mov	r4, r0
     bda:	4630      	mov	r0, r6
     bdc:	f7ff fc60 	bl	4a0 <pinmap_peripheral>
     be0:	4601      	mov	r1, r0
     be2:	4620      	mov	r0, r4
     be4:	f7ff fc3e 	bl	464 <pinmap_merge>
     be8:	4b41      	ldr	r3, [pc, #260]	; (cf0 <Stack_Size+0xf0>)
     bea:	4604      	mov	r4, r0
     bec:	4298      	cmp	r0, r3
     bee:	6028      	str	r0, [r5, #0]
     bf0:	d05d      	beq.n	cae <Stack_Size+0xae>
     bf2:	d847      	bhi.n	c84 <Stack_Size+0x84>
     bf4:	f5a3 4380 	sub.w	r3, r3, #16384	; 0x4000
     bf8:	4298      	cmp	r0, r3
     bfa:	d050      	beq.n	c9e <Stack_Size+0x9e>
     bfc:	2301      	movs	r3, #1
     bfe:	f04f 0800 	mov.w	r8, #0
     c02:	7223      	strb	r3, [r4, #8]
     c04:	f44f 5116 	mov.w	r1, #9600	; 0x2580
     c08:	4628      	mov	r0, r5
     c0a:	f8c4 8004 	str.w	r8, [r4, #4]
     c0e:	f7ff fe1d 	bl	84c <serial_baud>
     c12:	2203      	movs	r2, #3
     c14:	682b      	ldr	r3, [r5, #0]
     c16:	4934      	ldr	r1, [pc, #208]	; (ce8 <Stack_Size+0xe8>)
     c18:	731a      	strb	r2, [r3, #12]
     c1a:	4638      	mov	r0, r7
     c1c:	f7ff fc06 	bl	42c <pinmap_pinout>
     c20:	4932      	ldr	r1, [pc, #200]	; (cec <Stack_Size+0xec>)
     c22:	4630      	mov	r0, r6
     c24:	f7ff fc02 	bl	42c <pinmap_pinout>
     c28:	1c7a      	adds	r2, r7, #1
     c2a:	d003      	beq.n	c34 <Stack_Size+0x34>
     c2c:	4641      	mov	r1, r8
     c2e:	4638      	mov	r0, r7
     c30:	f000 f955 	bl	ede <pin_mode>
     c34:	1c73      	adds	r3, r6, #1
     c36:	d003      	beq.n	c40 <Stack_Size+0x40>
     c38:	2100      	movs	r1, #0
     c3a:	4630      	mov	r0, r6
     c3c:	f000 f94f 	bl	ede <pin_mode>
     c40:	4b2b      	ldr	r3, [pc, #172]	; (cf0 <Stack_Size+0xf0>)
     c42:	429c      	cmp	r4, r3
     c44:	d04b      	beq.n	cde <Stack_Size+0xde>
     c46:	d83e      	bhi.n	cc6 <Stack_Size+0xc6>
     c48:	f5a3 4380 	sub.w	r3, r3, #16384	; 0x4000
     c4c:	429c      	cmp	r4, r3
     c4e:	d043      	beq.n	cd8 <Stack_Size+0xd8>
     c50:	2138      	movs	r1, #56	; 0x38
     c52:	686a      	ldr	r2, [r5, #4]
     c54:	4b27      	ldr	r3, [pc, #156]	; (cf4 <Stack_Size+0xf4>)
     c56:	4628      	mov	r0, r5
     c58:	fb01 3202 	mla	r2, r1, r2, r3
     c5c:	f04f 33ff 	mov.w	r3, #4294967295	; 0xffffffff
     c60:	2100      	movs	r1, #0
     c62:	6053      	str	r3, [r2, #4]
     c64:	61d3      	str	r3, [r2, #28]
     c66:	461a      	mov	r2, r3
     c68:	f7ff ff28 	bl	abc <serial_set_flow_control>
     c6c:	4b22      	ldr	r3, [pc, #136]	; (cf8 <Stack_Size+0xf8>)
     c6e:	429c      	cmp	r4, r3
     c70:	d106      	bne.n	c80 <Stack_Size+0x80>
     c72:	2201      	movs	r2, #1
     c74:	4b21      	ldr	r3, [pc, #132]	; (cfc <Stack_Size+0xfc>)
     c76:	6869      	ldr	r1, [r5, #4]
     c78:	601a      	str	r2, [r3, #0]
     c7a:	6828      	ldr	r0, [r5, #0]
     c7c:	4b20      	ldr	r3, [pc, #128]	; (d00 <Stack_Size+0x100>)
     c7e:	c303      	stmia	r3!, {r0, r1}
     c80:	e8bd 81f0 	ldmia.w	sp!, {r4, r5, r6, r7, r8, pc}
     c84:	4b1f      	ldr	r3, [pc, #124]	; (d04 <Stack_Size+0x104>)
     c86:	4298      	cmp	r0, r3
     c88:	d017      	beq.n	cba <Stack_Size+0xba>
     c8a:	f503 4380 	add.w	r3, r3, #16384	; 0x4000
     c8e:	4298      	cmp	r0, r3
     c90:	d1b4      	bne.n	bfc <serial_init+0x38>
     c92:	4a1d      	ldr	r2, [pc, #116]	; (d08 <Stack_Size+0x108>)
     c94:	f8d2 30c4 	ldr.w	r3, [r2, #196]	; 0xc4
     c98:	f043 7300 	orr.w	r3, r3, #33554432	; 0x2000000
     c9c:	e004      	b.n	ca8 <Stack_Size+0xa8>
     c9e:	4a1a      	ldr	r2, [pc, #104]	; (d08 <Stack_Size+0x108>)
     ca0:	f8d2 30c4 	ldr.w	r3, [r2, #196]	; 0xc4
     ca4:	f043 0308 	orr.w	r3, r3, #8
     ca8:	f8c2 30c4 	str.w	r3, [r2, #196]	; 0xc4
     cac:	e7a6      	b.n	bfc <serial_init+0x38>
     cae:	4a16      	ldr	r2, [pc, #88]	; (d08 <Stack_Size+0x108>)
     cb0:	f8d2 30c4 	ldr.w	r3, [r2, #196]	; 0xc4
     cb4:	f043 0310 	orr.w	r3, r3, #16
     cb8:	e7f6      	b.n	ca8 <Stack_Size+0xa8>
     cba:	4a13      	ldr	r2, [pc, #76]	; (d08 <Stack_Size+0x108>)
     cbc:	f8d2 30c4 	ldr.w	r3, [r2, #196]	; 0xc4
     cc0:	f043 7380 	orr.w	r3, r3, #16777216	; 0x1000000
     cc4:	e7f0      	b.n	ca8 <Stack_Size+0xa8>
     cc6:	4b0f      	ldr	r3, [pc, #60]	; (d04 <Stack_Size+0x104>)
     cc8:	429c      	cmp	r4, r3
     cca:	d00a      	beq.n	ce2 <Stack_Size+0xe2>
     ccc:	f503 4380 	add.w	r3, r3, #16384	; 0x4000
     cd0:	429c      	cmp	r4, r3
     cd2:	d1bd      	bne.n	c50 <Stack_Size+0x50>
     cd4:	2303      	movs	r3, #3
     cd6:	e000      	b.n	cda <Stack_Size+0xda>
     cd8:	2300      	movs	r3, #0
     cda:	606b      	str	r3, [r5, #4]
     cdc:	e7b8      	b.n	c50 <Stack_Size+0x50>
     cde:	2301      	movs	r3, #1
     ce0:	e7fb      	b.n	cda <Stack_Size+0xda>
     ce2:	2302      	movs	r3, #2
     ce4:	e7f9      	b.n	cda <Stack_Size+0xda>
     ce6:	bf00      	nop
     ce8:	00006350 	.word	0x00006350
     cec:	000062e4 	.word	0x000062e4
     cf0:	40010000 	.word	0x40010000
     cf4:	1000033c 	.word	0x1000033c
     cf8:	4000c000 	.word	0x4000c000
     cfc:	10000338 	.word	0x10000338
     d00:	1000054c 	.word	0x1000054c
     d04:	40098000 	.word	0x40098000
     d08:	400fc000 	.word	0x400fc000

00000d0c <us_ticker_init>:
     d0c:	b508      	push	{r3, lr}
     d0e:	4b10      	ldr	r3, [pc, #64]	; (d50 <us_ticker_init+0x44>)
     d10:	6818      	ldr	r0, [r3, #0]
     d12:	b9e0      	cbnz	r0, d4e <us_ticker_init+0x42>
     d14:	2101      	movs	r1, #1
     d16:	4a0f      	ldr	r2, [pc, #60]	; (d54 <us_ticker_init+0x48>)
     d18:	6019      	str	r1, [r3, #0]
     d1a:	f8d2 30c4 	ldr.w	r3, [r2, #196]	; 0xc4
     d1e:	f443 0300 	orr.w	r3, r3, #8388608	; 0x800000
     d22:	f8c2 30c4 	str.w	r3, [r2, #196]	; 0xc4
     d26:	f5a2 22d0 	sub.w	r2, r2, #425984	; 0x68000
     d2a:	6710      	str	r0, [r2, #112]	; 0x70
     d2c:	2002      	movs	r0, #2
     d2e:	4b0a      	ldr	r3, [pc, #40]	; (d58 <us_ticker_init+0x4c>)
     d30:	681b      	ldr	r3, [r3, #0]
     d32:	6050      	str	r0, [r2, #4]
     d34:	4809      	ldr	r0, [pc, #36]	; (d5c <us_ticker_init+0x50>)
     d36:	fbb3 f3f0 	udiv	r3, r3, r0
     d3a:	3b01      	subs	r3, #1
     d3c:	60d3      	str	r3, [r2, #12]
     d3e:	2004      	movs	r0, #4
     d40:	6051      	str	r1, [r2, #4]
     d42:	4907      	ldr	r1, [pc, #28]	; (d60 <us_ticker_init+0x54>)
     d44:	f000 f8f8 	bl	f38 <__NVIC_SetVector>
     d48:	2210      	movs	r2, #16
     d4a:	4b06      	ldr	r3, [pc, #24]	; (d64 <us_ticker_init+0x58>)
     d4c:	601a      	str	r2, [r3, #0]
     d4e:	bd08      	pop	{r3, pc}
     d50:	1000041c 	.word	0x1000041c
     d54:	400fc000 	.word	0x400fc000
     d58:	100000cc 	.word	0x100000cc
     d5c:	003d0900 	.word	0x003d0900
     d60:	000003d9 	.word	0x000003d9
     d64:	e000e100 	.word	0xe000e100

00000d68 <us_ticker_read>:
     d68:	b508      	push	{r3, lr}
     d6a:	4b04      	ldr	r3, [pc, #16]	; (d7c <us_ticker_read+0x14>)
     d6c:	681b      	ldr	r3, [r3, #0]
     d6e:	b90b      	cbnz	r3, d74 <us_ticker_read+0xc>
     d70:	f7ff ffcc 	bl	d0c <us_ticker_init>
     d74:	4b02      	ldr	r3, [pc, #8]	; (d80 <us_ticker_read+0x18>)
     d76:	6898      	ldr	r0, [r3, #8]
     d78:	bd08      	pop	{r3, pc}
     d7a:	bf00      	nop
     d7c:	1000041c 	.word	0x1000041c
     d80:	40094000 	.word	0x40094000

00000d84 <us_ticker_set_interrupt>:
     d84:	4b03      	ldr	r3, [pc, #12]	; (d94 <us_ticker_set_interrupt+0x10>)
     d86:	6198      	str	r0, [r3, #24]
     d88:	695a      	ldr	r2, [r3, #20]
     d8a:	f042 0201 	orr.w	r2, r2, #1
     d8e:	615a      	str	r2, [r3, #20]
     d90:	4770      	bx	lr
     d92:	bf00      	nop
     d94:	40094000 	.word	0x40094000

00000d98 <us_ticker_disable_interrupt>:
     d98:	4a02      	ldr	r2, [pc, #8]	; (da4 <us_ticker_disable_interrupt+0xc>)
     d9a:	6953      	ldr	r3, [r2, #20]
     d9c:	f023 0301 	bic.w	r3, r3, #1
     da0:	6153      	str	r3, [r2, #20]
     da2:	4770      	bx	lr
     da4:	40094000 	.word	0x40094000

00000da8 <us_ticker_clear_interrupt>:
     da8:	2201      	movs	r2, #1
     daa:	4b01      	ldr	r3, [pc, #4]	; (db0 <us_ticker_clear_interrupt+0x8>)
     dac:	601a      	str	r2, [r3, #0]
     dae:	4770      	bx	lr
     db0:	40094000 	.word	0x40094000

00000db4 <adc_read>:
     db4:	4b0c      	ldr	r3, [pc, #48]	; (de8 <adc_read+0x34>)
     db6:	7800      	ldrb	r0, [r0, #0]
     db8:	681a      	ldr	r2, [r3, #0]
     dba:	f022 02ff 	bic.w	r2, r2, #255	; 0xff
     dbe:	601a      	str	r2, [r3, #0]
     dc0:	2201      	movs	r2, #1
     dc2:	6819      	ldr	r1, [r3, #0]
     dc4:	4082      	lsls	r2, r0
     dc6:	430a      	orrs	r2, r1
     dc8:	601a      	str	r2, [r3, #0]
     dca:	681a      	ldr	r2, [r3, #0]
     dcc:	f042 7280 	orr.w	r2, r2, #16777216	; 0x1000000
     dd0:	601a      	str	r2, [r3, #0]
     dd2:	6858      	ldr	r0, [r3, #4]
     dd4:	2800      	cmp	r0, #0
     dd6:	dafc      	bge.n	dd2 <adc_read+0x1e>
     dd8:	681a      	ldr	r2, [r3, #0]
     dda:	f3c0 100b 	ubfx	r0, r0, #4, #12
     dde:	f022 7280 	bic.w	r2, r2, #16777216	; 0x1000000
     de2:	601a      	str	r2, [r3, #0]
     de4:	4770      	bx	lr
     de6:	bf00      	nop
     de8:	40034000 	.word	0x40034000

00000dec <adc_read_u32>:
     dec:	b570      	push	{r4, r5, r6, lr}
     dee:	4606      	mov	r6, r0
     df0:	f7ff ffe0 	bl	db4 <adc_read>
     df4:	4604      	mov	r4, r0
     df6:	4630      	mov	r0, r6
     df8:	f7ff ffdc 	bl	db4 <adc_read>
     dfc:	4605      	mov	r5, r0
     dfe:	4630      	mov	r0, r6
     e00:	f7ff ffd8 	bl	db4 <adc_read>
     e04:	42ac      	cmp	r4, r5
     e06:	bf82      	ittt	hi
     e08:	4623      	movhi	r3, r4
     e0a:	462c      	movhi	r4, r5
     e0c:	461d      	movhi	r5, r3
     e0e:	42a8      	cmp	r0, r5
     e10:	bf28      	it	cs
     e12:	4628      	movcs	r0, r5
     e14:	42a0      	cmp	r0, r4
     e16:	bf38      	it	cc
     e18:	4620      	movcc	r0, r4
     e1a:	bd70      	pop	{r4, r5, r6, pc}

00000e1c <analogin_init>:
     e1c:	b570      	push	{r4, r5, r6, lr}
     e1e:	460c      	mov	r4, r1
     e20:	4d16      	ldr	r5, [pc, #88]	; (e7c <analogin_init+0x60>)
     e22:	4606      	mov	r6, r0
     e24:	4629      	mov	r1, r5
     e26:	4620      	mov	r0, r4
     e28:	f7ff fb3a 	bl	4a0 <pinmap_peripheral>
     e2c:	4b14      	ldr	r3, [pc, #80]	; (e80 <analogin_init+0x64>)
     e2e:	7030      	strb	r0, [r6, #0]
     e30:	f8d3 20c4 	ldr.w	r2, [r3, #196]	; 0xc4
     e34:	4629      	mov	r1, r5
     e36:	f442 5280 	orr.w	r2, r2, #4096	; 0x1000
     e3a:	f8c3 20c4 	str.w	r2, [r3, #196]	; 0xc4
     e3e:	f8d3 21a8 	ldr.w	r2, [r3, #424]	; 0x1a8
     e42:	4620      	mov	r0, r4
     e44:	e8bd 4070 	ldmia.w	sp!, {r4, r5, r6, lr}
     e48:	f022 7240 	bic.w	r2, r2, #50331648	; 0x3000000
     e4c:	f8c3 21a8 	str.w	r2, [r3, #424]	; 0x1a8
     e50:	f8d3 21a8 	ldr.w	r2, [r3, #424]	; 0x1a8
     e54:	f042 7280 	orr.w	r2, r2, #16777216	; 0x1000000
     e58:	f8c3 21a8 	str.w	r2, [r3, #424]	; 0x1a8
     e5c:	4b09      	ldr	r3, [pc, #36]	; (e84 <analogin_init+0x68>)
     e5e:	681a      	ldr	r2, [r3, #0]
     e60:	4b09      	ldr	r3, [pc, #36]	; (e88 <analogin_init+0x6c>)
     e62:	4413      	add	r3, r2
     e64:	4a09      	ldr	r2, [pc, #36]	; (e8c <analogin_init+0x70>)
     e66:	fb93 f3f2 	sdiv	r3, r3, r2
     e6a:	3b01      	subs	r3, #1
     e6c:	021b      	lsls	r3, r3, #8
     e6e:	4a08      	ldr	r2, [pc, #32]	; (e90 <analogin_init+0x74>)
     e70:	f443 1300 	orr.w	r3, r3, #2097152	; 0x200000
     e74:	6013      	str	r3, [r2, #0]
     e76:	f7ff bad9 	b.w	42c <pinmap_pinout>
     e7a:	bf00      	nop
     e7c:	000063bc 	.word	0x000063bc
     e80:	400fc000 	.word	0x400fc000
     e84:	100000cc 	.word	0x100000cc
     e88:	00c65d3f 	.word	0x00c65d3f
     e8c:	00c65d40 	.word	0x00c65d40
     e90:	40034000 	.word	0x40034000

00000e94 <analogin_read>:
     e94:	b508      	push	{r3, lr}
     e96:	f7ff ffa9 	bl	dec <adc_read_u32>
     e9a:	f001 f82b 	bl	1ef4 <__aeabi_ui2f>
     e9e:	4902      	ldr	r1, [pc, #8]	; (ea8 <analogin_read+0x14>)
     ea0:	f001 f880 	bl	1fa4 <__aeabi_fmul>
     ea4:	bd08      	pop	{r3, pc}
     ea6:	bf00      	nop
     ea8:	39800801 	.word	0x39800801

00000eac <pin_function>:
     eac:	b510      	push	{r4, lr}
     eae:	2403      	movs	r4, #3
     eb0:	f100 4060 	add.w	r0, r0, #3758096384	; 0xe0000000
     eb4:	f5a0 201c 	sub.w	r0, r0, #638976	; 0x9c000
     eb8:	0043      	lsls	r3, r0, #1
     eba:	0900      	lsrs	r0, r0, #4
     ebc:	0080      	lsls	r0, r0, #2
     ebe:	f100 4080 	add.w	r0, r0, #1073741824	; 0x40000000
     ec2:	f500 3030 	add.w	r0, r0, #180224	; 0x2c000
     ec6:	6802      	ldr	r2, [r0, #0]
     ec8:	f003 031e 	and.w	r3, r3, #30
     ecc:	409c      	lsls	r4, r3
     ece:	ea22 0204 	bic.w	r2, r2, r4
     ed2:	6002      	str	r2, [r0, #0]
     ed4:	6802      	ldr	r2, [r0, #0]
     ed6:	4099      	lsls	r1, r3
     ed8:	4311      	orrs	r1, r2
     eda:	6001      	str	r1, [r0, #0]
     edc:	bd10      	pop	{r4, pc}

00000ede <pin_mode>:
     ede:	f100 4060 	add.w	r0, r0, #3758096384	; 0xe0000000
     ee2:	f5a0 201c 	sub.w	r0, r0, #638976	; 0x9c000
     ee6:	0943      	lsrs	r3, r0, #5
     ee8:	009b      	lsls	r3, r3, #2
     eea:	f103 4380 	add.w	r3, r3, #1073741824	; 0x40000000
     eee:	f503 3330 	add.w	r3, r3, #180224	; 0x2c000
     ef2:	b530      	push	{r4, r5, lr}
     ef4:	f000 021f 	and.w	r2, r0, #31
     ef8:	6e9c      	ldr	r4, [r3, #104]	; 0x68
     efa:	f3c1 0580 	ubfx	r5, r1, #2, #1
     efe:	fa05 f202 	lsl.w	r2, r5, r2
     f02:	ea24 0402 	bic.w	r4, r4, r2
     f06:	669c      	str	r4, [r3, #104]	; 0x68
     f08:	6e9c      	ldr	r4, [r3, #104]	; 0x68
     f0a:	4322      	orrs	r2, r4
     f0c:	669a      	str	r2, [r3, #104]	; 0x68
     f0e:	b995      	cbnz	r5, f36 <pin_mode+0x58>
     f10:	2403      	movs	r4, #3
     f12:	0043      	lsls	r3, r0, #1
     f14:	0900      	lsrs	r0, r0, #4
     f16:	0080      	lsls	r0, r0, #2
     f18:	f100 4080 	add.w	r0, r0, #1073741824	; 0x40000000
     f1c:	f500 3030 	add.w	r0, r0, #180224	; 0x2c000
     f20:	6c02      	ldr	r2, [r0, #64]	; 0x40
     f22:	f003 031e 	and.w	r3, r3, #30
     f26:	409c      	lsls	r4, r3
     f28:	ea22 0204 	bic.w	r2, r2, r4
     f2c:	6402      	str	r2, [r0, #64]	; 0x40
     f2e:	6c02      	ldr	r2, [r0, #64]	; 0x40
     f30:	4099      	lsls	r1, r3
     f32:	4311      	orrs	r1, r2
     f34:	6401      	str	r1, [r0, #64]	; 0x40
     f36:	bd30      	pop	{r4, r5, pc}

00000f38 <__NVIC_SetVector>:
     f38:	b530      	push	{r4, r5, lr}
     f3a:	4c0c      	ldr	r4, [pc, #48]	; (f6c <__NVIC_SetVector+0x34>)
     f3c:	68a2      	ldr	r2, [r4, #8]
     f3e:	68a4      	ldr	r4, [r4, #8]
     f40:	4613      	mov	r3, r2
     f42:	f1b4 5f80 	cmp.w	r4, #268435456	; 0x10000000
     f46:	d20c      	bcs.n	f62 <__NVIC_SetVector+0x2a>
     f48:	1f13      	subs	r3, r2, #4
     f4a:	4c09      	ldr	r4, [pc, #36]	; (f70 <__NVIC_SetVector+0x38>)
     f4c:	4a09      	ldr	r2, [pc, #36]	; (f74 <__NVIC_SetVector+0x3c>)
     f4e:	f853 5f04 	ldr.w	r5, [r3, #4]!
     f52:	f842 5f04 	str.w	r5, [r2, #4]!
     f56:	42a2      	cmp	r2, r4
     f58:	d1f9      	bne.n	f4e <__NVIC_SetVector+0x16>
     f5a:	f04f 5380 	mov.w	r3, #268435456	; 0x10000000
     f5e:	4a03      	ldr	r2, [pc, #12]	; (f6c <__NVIC_SetVector+0x34>)
     f60:	6093      	str	r3, [r2, #8]
     f62:	3010      	adds	r0, #16
     f64:	f843 1020 	str.w	r1, [r3, r0, lsl #2]
     f68:	bd30      	pop	{r4, r5, pc}
     f6a:	bf00      	nop
     f6c:	e000ed00 	.word	0xe000ed00
     f70:	100000c0 	.word	0x100000c0
     f74:	0ffffffc 	.word	0x0ffffffc

00000f78 <SystemInit>:
     f78:	2220      	movs	r2, #32
     f7a:	4b26      	ldr	r3, [pc, #152]	; (1014 <SystemInit+0x9c>)
     f7c:	f8c3 21a0 	str.w	r2, [r3, #416]	; 0x1a0
     f80:	f8d3 21a0 	ldr.w	r2, [r3, #416]	; 0x1a0
     f84:	0692      	lsls	r2, r2, #26
     f86:	d503      	bpl.n	f90 <SystemInit+0x18>
     f88:	f8d3 21a0 	ldr.w	r2, [r3, #416]	; 0x1a0
     f8c:	0650      	lsls	r0, r2, #25
     f8e:	d5fb      	bpl.n	f88 <SystemInit+0x10>
     f90:	2202      	movs	r2, #2
     f92:	f8c3 2104 	str.w	r2, [r3, #260]	; 0x104
     f96:	2200      	movs	r2, #0
     f98:	2001      	movs	r0, #1
     f9a:	f8c3 21a8 	str.w	r2, [r3, #424]	; 0x1a8
     f9e:	f8c3 21ac 	str.w	r2, [r3, #428]	; 0x1ac
     fa2:	220b      	movs	r2, #11
     fa4:	f8c3 010c 	str.w	r0, [r3, #268]	; 0x10c
     fa8:	21aa      	movs	r1, #170	; 0xaa
     faa:	f8c3 2084 	str.w	r2, [r3, #132]	; 0x84
     fae:	2255      	movs	r2, #85	; 0x55
     fb0:	f8c3 108c 	str.w	r1, [r3, #140]	; 0x8c
     fb4:	f8c3 208c 	str.w	r2, [r3, #140]	; 0x8c
     fb8:	f8c3 0080 	str.w	r0, [r3, #128]	; 0x80
     fbc:	f8c3 108c 	str.w	r1, [r3, #140]	; 0x8c
     fc0:	f8c3 208c 	str.w	r2, [r3, #140]	; 0x8c
     fc4:	4b13      	ldr	r3, [pc, #76]	; (1014 <SystemInit+0x9c>)
     fc6:	461a      	mov	r2, r3
     fc8:	f8d3 1088 	ldr.w	r1, [r3, #136]	; 0x88
     fcc:	0149      	lsls	r1, r1, #5
     fce:	d5fb      	bpl.n	fc8 <SystemInit+0x50>
     fd0:	2103      	movs	r1, #3
     fd2:	f8c3 1080 	str.w	r1, [r3, #128]	; 0x80
     fd6:	21aa      	movs	r1, #170	; 0xaa
     fd8:	f8c3 108c 	str.w	r1, [r3, #140]	; 0x8c
     fdc:	2155      	movs	r1, #85	; 0x55
     fde:	f8c3 108c 	str.w	r1, [r3, #140]	; 0x8c
     fe2:	f8d2 3088 	ldr.w	r3, [r2, #136]	; 0x88
     fe6:	f013 7f40 	tst.w	r3, #50331648	; 0x3000000
     fea:	d0fa      	beq.n	fe2 <SystemInit+0x6a>
     fec:	2305      	movs	r3, #5
     fee:	f8c2 3108 	str.w	r3, [r2, #264]	; 0x108
     ff2:	4b09      	ldr	r3, [pc, #36]	; (1018 <SystemInit+0xa0>)
     ff4:	f8c2 30c4 	str.w	r3, [r2, #196]	; 0xc4
     ff8:	2300      	movs	r3, #0
     ffa:	f8c2 31c8 	str.w	r3, [r2, #456]	; 0x1c8
     ffe:	6813      	ldr	r3, [r2, #0]
    1000:	f423 4370 	bic.w	r3, r3, #61440	; 0xf000
    1004:	f023 033a 	bic.w	r3, r3, #58	; 0x3a
    1008:	f443 5340 	orr.w	r3, r3, #12288	; 0x3000
    100c:	f043 033a 	orr.w	r3, r3, #58	; 0x3a
    1010:	6013      	str	r3, [r2, #0]
    1012:	4770      	bx	lr
    1014:	400fc000 	.word	0x400fc000
    1018:	042887de 	.word	0x042887de

0000101c <mbed::FileLike::lseek(long, int)>:
    101c:	6803      	ldr	r3, [r0, #0]
    101e:	69db      	ldr	r3, [r3, #28]
    1020:	4718      	bx	r3

00001022 <mbed::FileLike::fsync()>:
    1022:	6803      	ldr	r3, [r0, #0]
    1024:	695b      	ldr	r3, [r3, #20]
    1026:	4718      	bx	r3

00001028 <mbed::FileLike::flen()>:
    1028:	6803      	ldr	r3, [r0, #0]
    102a:	6a9b      	ldr	r3, [r3, #40]	; 0x28
    102c:	4718      	bx	r3

0000102e <mbed::Serial::lock()>:
    102e:	4770      	bx	lr

00001030 <non-virtual thunk to mbed::Serial::lock()>:
    1030:	f1a0 0030 	sub.w	r0, r0, #48	; 0x30
    1034:	f7ff bffb 	b.w	102e <mbed::Serial::lock()>

00001038 <non-virtual thunk to mbed::Serial::unlock()>:
    1038:	f1a0 0030 	sub.w	r0, r0, #48	; 0x30
    103c:	f7ff bff7 	b.w	102e <mbed::Serial::lock()>

00001040 <mbed::Serial::_getc()>:
    1040:	f000 b98a 	b.w	1358 <mbed::SerialBase::_base_getc()>

00001044 <non-virtual thunk to mbed::Serial::_getc()>:
    1044:	f1a0 0030 	sub.w	r0, r0, #48	; 0x30
    1048:	f7ff bffa 	b.w	1040 <mbed::Serial::_getc()>

0000104c <mbed::Serial::_putc(int)>:
    104c:	f000 b987 	b.w	135e <mbed::SerialBase::_base_putc(int)>

00001050 <non-virtual thunk to mbed::Serial::_putc(int)>:
    1050:	f1a0 0030 	sub.w	r0, r0, #48	; 0x30
    1054:	f7ff bffa 	b.w	104c <mbed::Serial::_putc(int)>

00001058 <mbed::Serial::Serial(PinName, PinName, int)>:
    1058:	b510      	push	{r4, lr}
    105a:	4604      	mov	r4, r0
    105c:	f000 f986 	bl	136c <mbed::SerialBase::SerialBase(PinName, PinName, int)>
    1060:	2100      	movs	r1, #0
    1062:	f104 0030 	add.w	r0, r4, #48	; 0x30
    1066:	f000 f895 	bl	1194 <mbed::Stream::Stream(char const*)>
    106a:	4b04      	ldr	r3, [pc, #16]	; (107c <mbed::Serial::Serial(PinName, PinName, int)+0x24>)
    106c:	4620      	mov	r0, r4
    106e:	f103 0208 	add.w	r2, r3, #8
    1072:	3328      	adds	r3, #40	; 0x28
    1074:	6022      	str	r2, [r4, #0]
    1076:	6323      	str	r3, [r4, #48]	; 0x30
    1078:	bd10      	pop	{r4, pc}
    107a:	bf00      	nop
    107c:	00006428 	.word	0x00006428

00001080 <mbed::Callback<void ()>::~Callback()>:
    1080:	68c3      	ldr	r3, [r0, #12]
    1082:	b510      	push	{r4, lr}
    1084:	4604      	mov	r4, r0
    1086:	b10b      	cbz	r3, 108c <mbed::Callback<void ()>::~Callback()+0xc>
    1088:	689b      	ldr	r3, [r3, #8]
    108a:	4798      	blx	r3
    108c:	4620      	mov	r0, r4
    108e:	bd10      	pop	{r4, pc}

00001090 <mbed::FilePath::FilePath(char const*)>:
    1090:	2300      	movs	r3, #0
    1092:	b510      	push	{r4, lr}
    1094:	6003      	str	r3, [r0, #0]
    1096:	6043      	str	r3, [r0, #4]
    1098:	780a      	ldrb	r2, [r1, #0]
    109a:	4604      	mov	r4, r0
    109c:	2a2f      	cmp	r2, #47	; 0x2f
    109e:	d10d      	bne.n	10bc <mbed::FilePath::FilePath(char const*)+0x2c>
    10a0:	784a      	ldrb	r2, [r1, #1]
    10a2:	b15a      	cbz	r2, 10bc <mbed::FilePath::FilePath(char const*)+0x2c>
    10a4:	1c48      	adds	r0, r1, #1
    10a6:	4619      	mov	r1, r3
    10a8:	6020      	str	r0, [r4, #0]
    10aa:	6823      	ldr	r3, [r4, #0]
    10ac:	781a      	ldrb	r2, [r3, #0]
    10ae:	2a2f      	cmp	r2, #47	; 0x2f
    10b0:	d106      	bne.n	10c0 <mbed::FilePath::FilePath(char const*)+0x30>
    10b2:	3301      	adds	r3, #1
    10b4:	6023      	str	r3, [r4, #0]
    10b6:	f000 f923 	bl	1300 <mbed::FileBase::lookup(char const*, unsigned int)>
    10ba:	6060      	str	r0, [r4, #4]
    10bc:	4620      	mov	r0, r4
    10be:	bd10      	pop	{r4, pc}
    10c0:	2a00      	cmp	r2, #0
    10c2:	d0f8      	beq.n	10b6 <mbed::FilePath::FilePath(char const*)+0x26>
    10c4:	3301      	adds	r3, #1
    10c6:	3101      	adds	r1, #1
    10c8:	6023      	str	r3, [r4, #0]
    10ca:	e7ee      	b.n	10aa <mbed::FilePath::FilePath(char const*)+0x1a>

000010cc <mbed::FilePath::fileName()>:
    10cc:	6800      	ldr	r0, [r0, #0]
    10ce:	4770      	bx	lr

000010d0 <mbed::FilePath::isFileSystem()>:
    10d0:	6840      	ldr	r0, [r0, #4]
    10d2:	b508      	push	{r3, lr}
    10d4:	b120      	cbz	r0, 10e0 <mbed::FilePath::isFileSystem()+0x10>
    10d6:	f000 f8c3 	bl	1260 <mbed::FileBase::getPathType()>
    10da:	1e43      	subs	r3, r0, #1
    10dc:	4258      	negs	r0, r3
    10de:	4158      	adcs	r0, r3
    10e0:	bd08      	pop	{r3, pc}

000010e2 <mbed::FilePath::fileSystem()>:
    10e2:	b510      	push	{r4, lr}
    10e4:	4604      	mov	r4, r0
    10e6:	f7ff fff3 	bl	10d0 <mbed::FilePath::isFileSystem()>
    10ea:	b100      	cbz	r0, 10ee <mbed::FilePath::fileSystem()+0xc>
    10ec:	6860      	ldr	r0, [r4, #4]
    10ee:	bd10      	pop	{r4, pc}

000010f0 <mbed::FilePath::isFile()>:
    10f0:	6840      	ldr	r0, [r0, #4]
    10f2:	b508      	push	{r3, lr}
    10f4:	b120      	cbz	r0, 1100 <mbed::FilePath::isFile()+0x10>
    10f6:	f000 f8b3 	bl	1260 <mbed::FileBase::getPathType()>
    10fa:	fab0 f080 	clz	r0, r0
    10fe:	0940      	lsrs	r0, r0, #5
    1100:	bd08      	pop	{r3, pc}

00001102 <mbed::FilePath::file()>:
    1102:	b510      	push	{r4, lr}
    1104:	4604      	mov	r4, r0
    1106:	f7ff fff3 	bl	10f0 <mbed::FilePath::isFile()>
    110a:	b100      	cbz	r0, 110e <mbed::FilePath::file()+0xc>
    110c:	6860      	ldr	r0, [r4, #4]
    110e:	bd10      	pop	{r4, pc}

00001110 <mbed::FilePath::exists()>:
    1110:	6840      	ldr	r0, [r0, #4]
    1112:	3000      	adds	r0, #0
    1114:	bf18      	it	ne
    1116:	2001      	movne	r0, #1
    1118:	4770      	bx	lr

0000111a <mbed::FileLike::lock()>:
    111a:	4770      	bx	lr

0000111c <mbed::FileLike::unlock()>:
    111c:	4770      	bx	lr

0000111e <mbed::Stream::write(void const*, unsigned int)>:
    111e:	b5f8      	push	{r3, r4, r5, r6, r7, lr}
    1120:	460e      	mov	r6, r1
    1122:	6803      	ldr	r3, [r0, #0]
    1124:	4604      	mov	r4, r0
    1126:	6b9b      	ldr	r3, [r3, #56]	; 0x38
    1128:	188f      	adds	r7, r1, r2
    112a:	4635      	mov	r5, r6
    112c:	4798      	blx	r3
    112e:	42bd      	cmp	r5, r7
    1130:	d007      	beq.n	1142 <mbed::Stream::write(void const*, unsigned int)+0x24>
    1132:	6823      	ldr	r3, [r4, #0]
    1134:	f815 1b01 	ldrb.w	r1, [r5], #1
    1138:	6c1b      	ldr	r3, [r3, #64]	; 0x40
    113a:	4620      	mov	r0, r4
    113c:	4798      	blx	r3
    113e:	3001      	adds	r0, #1
    1140:	d1f5      	bne.n	112e <mbed::Stream::write(void const*, unsigned int)+0x10>
    1142:	6823      	ldr	r3, [r4, #0]
    1144:	4620      	mov	r0, r4
    1146:	6bdb      	ldr	r3, [r3, #60]	; 0x3c
    1148:	4798      	blx	r3
    114a:	1ba8      	subs	r0, r5, r6
    114c:	bdf8      	pop	{r3, r4, r5, r6, r7, pc}

0000114e <mbed::Stream::read(void*, unsigned int)>:
    114e:	b5f8      	push	{r3, r4, r5, r6, r7, lr}
    1150:	460e      	mov	r6, r1
    1152:	6803      	ldr	r3, [r0, #0]
    1154:	4604      	mov	r4, r0
    1156:	6b9b      	ldr	r3, [r3, #56]	; 0x38
    1158:	188f      	adds	r7, r1, r2
    115a:	4635      	mov	r5, r6
    115c:	4798      	blx	r3
    115e:	42bd      	cmp	r5, r7
    1160:	d008      	beq.n	1174 <mbed::Stream::read(void*, unsigned int)+0x26>
    1162:	6823      	ldr	r3, [r4, #0]
    1164:	4620      	mov	r0, r4
    1166:	6c5b      	ldr	r3, [r3, #68]	; 0x44
    1168:	4798      	blx	r3
    116a:	1c43      	adds	r3, r0, #1
    116c:	d002      	beq.n	1174 <mbed::Stream::read(void*, unsigned int)+0x26>
    116e:	f805 0b01 	strb.w	r0, [r5], #1
    1172:	e7f4      	b.n	115e <mbed::Stream::read(void*, unsigned int)+0x10>
    1174:	6823      	ldr	r3, [r4, #0]
    1176:	4620      	mov	r0, r4
    1178:	6bdb      	ldr	r3, [r3, #60]	; 0x3c
    117a:	4798      	blx	r3
    117c:	1ba8      	subs	r0, r5, r6
    117e:	bdf8      	pop	{r3, r4, r5, r6, r7, pc}

00001180 <mbed::Stream::seek(long, int)>:
    1180:	2000      	movs	r0, #0
    1182:	4770      	bx	lr

00001184 <mbed::Stream::tell()>:
    1184:	2000      	movs	r0, #0
    1186:	4770      	bx	lr

00001188 <mbed::Stream::rewind()>:
    1188:	4770      	bx	lr

0000118a <mbed::Stream::sync()>:
    118a:	2000      	movs	r0, #0
    118c:	4770      	bx	lr

0000118e <mbed::Stream::size()>:
    118e:	2000      	movs	r0, #0
    1190:	4770      	bx	lr
	...

00001194 <mbed::Stream::Stream(char const*)>:
    1194:	b51f      	push	{r0, r1, r2, r3, r4, lr}
    1196:	4604      	mov	r4, r0
    1198:	2200      	movs	r2, #0
    119a:	f000 f863 	bl	1264 <mbed::FileBase::FileBase(char const*, mbed::PathType)>
    119e:	4b09      	ldr	r3, [pc, #36]	; (11c4 <mbed::Stream::Stream(char const*)+0x30>)
    11a0:	4622      	mov	r2, r4
    11a2:	6023      	str	r3, [r4, #0]
    11a4:	2300      	movs	r3, #0
    11a6:	4908      	ldr	r1, [pc, #32]	; (11c8 <mbed::Stream::Stream(char const*)+0x34>)
    11a8:	6123      	str	r3, [r4, #16]
    11aa:	a801      	add	r0, sp, #4
    11ac:	f002 fd54 	bl	3c58 <siprintf>
    11b0:	4906      	ldr	r1, [pc, #24]	; (11cc <mbed::Stream::Stream(char const*)+0x38>)
    11b2:	a801      	add	r0, sp, #4
    11b4:	f001 faf4 	bl	27a0 <fopen>
    11b8:	6120      	str	r0, [r4, #16]
    11ba:	f000 faee 	bl	179a <mbed::mbed_set_unbuffered_stream(__sFILE*)>
    11be:	4620      	mov	r0, r4
    11c0:	b004      	add	sp, #16
    11c2:	bd10      	pop	{r4, pc}
    11c4:	000064f0 	.word	0x000064f0
    11c8:	000064e0 	.word	0x000064e0
    11cc:	000064e4 	.word	0x000064e4

000011d0 <mbed::Stream::~Stream()>:
    11d0:	b510      	push	{r4, lr}
    11d2:	4604      	mov	r4, r0
    11d4:	4b05      	ldr	r3, [pc, #20]	; (11ec <mbed::Stream::~Stream()+0x1c>)
    11d6:	6003      	str	r3, [r0, #0]
    11d8:	6900      	ldr	r0, [r0, #16]
    11da:	f001 f927 	bl	242c <fclose>
    11de:	4b04      	ldr	r3, [pc, #16]	; (11f0 <mbed::Stream::~Stream()+0x20>)
    11e0:	4620      	mov	r0, r4
    11e2:	6023      	str	r3, [r4, #0]
    11e4:	f000 f85c 	bl	12a0 <mbed::FileBase::~FileBase()>
    11e8:	4620      	mov	r0, r4
    11ea:	bd10      	pop	{r4, pc}
    11ec:	000064f0 	.word	0x000064f0
    11f0:	000064a0 	.word	0x000064a0

000011f4 <mbed::Stream::printf(char const*, ...)>:
    11f4:	b40e      	push	{r1, r2, r3}
    11f6:	b577      	push	{r0, r1, r2, r4, r5, r6, lr}
    11f8:	4604      	mov	r4, r0
    11fa:	6803      	ldr	r3, [r0, #0]
    11fc:	ad07      	add	r5, sp, #28
    11fe:	f855 6b04 	ldr.w	r6, [r5], #4
    1202:	6b9b      	ldr	r3, [r3, #56]	; 0x38
    1204:	4798      	blx	r3
    1206:	6920      	ldr	r0, [r4, #16]
    1208:	9501      	str	r5, [sp, #4]
    120a:	f001 f9c9 	bl	25a0 <fflush>
    120e:	9a01      	ldr	r2, [sp, #4]
    1210:	4631      	mov	r1, r6
    1212:	6920      	ldr	r0, [r4, #16]
    1214:	f001 fe52 	bl	2ebc <vfiprintf>
    1218:	4605      	mov	r5, r0
    121a:	6823      	ldr	r3, [r4, #0]
    121c:	4620      	mov	r0, r4
    121e:	6bdb      	ldr	r3, [r3, #60]	; 0x3c
    1220:	4798      	blx	r3
    1222:	4628      	mov	r0, r5
    1224:	b003      	add	sp, #12
    1226:	e8bd 4070 	ldmia.w	sp!, {r4, r5, r6, lr}
    122a:	b003      	add	sp, #12
    122c:	4770      	bx	lr

0000122e <void mbed::Callback<void ()>::function_call<void (*)()>(void const*)>:
    122e:	6803      	ldr	r3, [r0, #0]
    1230:	4718      	bx	r3

00001232 <void mbed::Callback<void ()>::function_move<void (*)()>(void*, void const*)>:
    1232:	b108      	cbz	r0, 1238 <void mbed::Callback<void ()>::function_move<void (*)()>(void*, void const*)+0x6>
    1234:	680b      	ldr	r3, [r1, #0]
    1236:	6003      	str	r3, [r0, #0]
    1238:	4770      	bx	lr

0000123a <void mbed::Callback<void ()>::function_dtor<void (*)()>(void*)>:
    123a:	4770      	bx	lr

0000123c <mbed::Callback<void ()>::operator=(mbed::Callback<void ()> const&)>:
    123c:	4288      	cmp	r0, r1
    123e:	b538      	push	{r3, r4, r5, lr}
    1240:	4604      	mov	r4, r0
    1242:	460d      	mov	r5, r1
    1244:	d00a      	beq.n	125c <mbed::Callback<void ()>::operator=(mbed::Callback<void ()> const&)+0x20>
    1246:	f7ff ff1b 	bl	1080 <mbed::Callback<void ()>::~Callback()>
    124a:	b13c      	cbz	r4, 125c <mbed::Callback<void ()>::operator=(mbed::Callback<void ()> const&)+0x20>
    124c:	68eb      	ldr	r3, [r5, #12]
    124e:	b11b      	cbz	r3, 1258 <mbed::Callback<void ()>::operator=(mbed::Callback<void ()> const&)+0x1c>
    1250:	685b      	ldr	r3, [r3, #4]
    1252:	4629      	mov	r1, r5
    1254:	4620      	mov	r0, r4
    1256:	4798      	blx	r3
    1258:	68eb      	ldr	r3, [r5, #12]
    125a:	60e3      	str	r3, [r4, #12]
    125c:	4620      	mov	r0, r4
    125e:	bd38      	pop	{r3, r4, r5, pc}

00001260 <mbed::FileBase::getPathType()>:
    1260:	7b00      	ldrb	r0, [r0, #12]
    1262:	4770      	bx	lr

00001264 <mbed::FileBase::FileBase(char const*, mbed::PathType)>:
    1264:	b538      	push	{r3, r4, r5, lr}
    1266:	4b0b      	ldr	r3, [pc, #44]	; (1294 <mbed::FileBase::FileBase(char const*, mbed::PathType)+0x30>)
    1268:	4604      	mov	r4, r0
    126a:	6003      	str	r3, [r0, #0]
    126c:	2300      	movs	r3, #0
    126e:	460d      	mov	r5, r1
    1270:	6043      	str	r3, [r0, #4]
    1272:	60a1      	str	r1, [r4, #8]
    1274:	7302      	strb	r2, [r0, #12]
    1276:	4808      	ldr	r0, [pc, #32]	; (1298 <mbed::FileBase::FileBase(char const*, mbed::PathType)+0x34>)
    1278:	f7fe ffa3 	bl	1c2 <SingletonPtr<PlatformMutex>::get()>
    127c:	b145      	cbz	r5, 1290 <mbed::FileBase::FileBase(char const*, mbed::PathType)+0x2c>
    127e:	4b07      	ldr	r3, [pc, #28]	; (129c <mbed::FileBase::FileBase(char const*, mbed::PathType)+0x38>)
    1280:	681a      	ldr	r2, [r3, #0]
    1282:	601c      	str	r4, [r3, #0]
    1284:	6062      	str	r2, [r4, #4]
    1286:	4804      	ldr	r0, [pc, #16]	; (1298 <mbed::FileBase::FileBase(char const*, mbed::PathType)+0x34>)
    1288:	f7fe ff9b 	bl	1c2 <SingletonPtr<PlatformMutex>::get()>
    128c:	4620      	mov	r0, r4
    128e:	bd38      	pop	{r3, r4, r5, pc}
    1290:	6065      	str	r5, [r4, #4]
    1292:	e7f8      	b.n	1286 <mbed::FileBase::FileBase(char const*, mbed::PathType)+0x22>
    1294:	0000654c 	.word	0x0000654c
    1298:	10000424 	.word	0x10000424
    129c:	10000420 	.word	0x10000420

000012a0 <mbed::FileBase::~FileBase()>:
    12a0:	b510      	push	{r4, lr}
    12a2:	4604      	mov	r4, r0
    12a4:	4b0e      	ldr	r3, [pc, #56]	; (12e0 <mbed::FileBase::~FileBase()+0x40>)
    12a6:	6003      	str	r3, [r0, #0]
    12a8:	480e      	ldr	r0, [pc, #56]	; (12e4 <mbed::FileBase::~FileBase()+0x44>)
    12aa:	f7fe ff8a 	bl	1c2 <SingletonPtr<PlatformMutex>::get()>
    12ae:	68a3      	ldr	r3, [r4, #8]
    12b0:	b12b      	cbz	r3, 12be <mbed::FileBase::~FileBase()+0x1e>
    12b2:	4a0d      	ldr	r2, [pc, #52]	; (12e8 <mbed::FileBase::~FileBase()+0x48>)
    12b4:	6813      	ldr	r3, [r2, #0]
    12b6:	429c      	cmp	r4, r3
    12b8:	d10c      	bne.n	12d4 <mbed::FileBase::~FileBase()+0x34>
    12ba:	6863      	ldr	r3, [r4, #4]
    12bc:	6013      	str	r3, [r2, #0]
    12be:	4809      	ldr	r0, [pc, #36]	; (12e4 <mbed::FileBase::~FileBase()+0x44>)
    12c0:	f7fe ff7f 	bl	1c2 <SingletonPtr<PlatformMutex>::get()>
    12c4:	7b23      	ldrb	r3, [r4, #12]
    12c6:	b913      	cbnz	r3, 12ce <mbed::FileBase::~FileBase()+0x2e>
    12c8:	4620      	mov	r0, r4
    12ca:	f000 fa8f 	bl	17ec <mbed::remove_filehandle(mbed::FileLike*)>
    12ce:	4620      	mov	r0, r4
    12d0:	bd10      	pop	{r4, pc}
    12d2:	4613      	mov	r3, r2
    12d4:	685a      	ldr	r2, [r3, #4]
    12d6:	4294      	cmp	r4, r2
    12d8:	d1fb      	bne.n	12d2 <mbed::FileBase::~FileBase()+0x32>
    12da:	6862      	ldr	r2, [r4, #4]
    12dc:	605a      	str	r2, [r3, #4]
    12de:	e7ee      	b.n	12be <mbed::FileBase::~FileBase()+0x1e>
    12e0:	0000654c 	.word	0x0000654c
    12e4:	10000424 	.word	0x10000424
    12e8:	10000420 	.word	0x10000420

000012ec <mbed::FileBase::~FileBase()>:
    12ec:	b510      	push	{r4, lr}
    12ee:	4604      	mov	r4, r0
    12f0:	f7ff ffd6 	bl	12a0 <mbed::FileBase::~FileBase()>
    12f4:	4620      	mov	r0, r4
    12f6:	f000 fa76 	bl	17e6 <operator delete(void*)>
    12fa:	4620      	mov	r0, r4
    12fc:	bd10      	pop	{r4, pc}
	...

00001300 <mbed::FileBase::lookup(char const*, unsigned int)>:
    1300:	b5f8      	push	{r3, r4, r5, r6, r7, lr}
    1302:	4607      	mov	r7, r0
    1304:	480d      	ldr	r0, [pc, #52]	; (133c <mbed::FileBase::lookup(char const*, unsigned int)+0x3c>)
    1306:	460e      	mov	r6, r1
    1308:	f7fe ff5b 	bl	1c2 <SingletonPtr<PlatformMutex>::get()>
    130c:	4b0c      	ldr	r3, [pc, #48]	; (1340 <mbed::FileBase::lookup(char const*, unsigned int)+0x40>)
    130e:	681c      	ldr	r4, [r3, #0]
    1310:	b164      	cbz	r4, 132c <mbed::FileBase::lookup(char const*, unsigned int)+0x2c>
    1312:	68a5      	ldr	r5, [r4, #8]
    1314:	b17d      	cbz	r5, 1336 <mbed::FileBase::lookup(char const*, unsigned int)+0x36>
    1316:	4632      	mov	r2, r6
    1318:	4639      	mov	r1, r7
    131a:	4628      	mov	r0, r5
    131c:	f002 fd41 	bl	3da2 <strncmp>
    1320:	b948      	cbnz	r0, 1336 <mbed::FileBase::lookup(char const*, unsigned int)+0x36>
    1322:	4628      	mov	r0, r5
    1324:	f002 fd35 	bl	3d92 <strlen>
    1328:	4286      	cmp	r6, r0
    132a:	d104      	bne.n	1336 <mbed::FileBase::lookup(char const*, unsigned int)+0x36>
    132c:	4803      	ldr	r0, [pc, #12]	; (133c <mbed::FileBase::lookup(char const*, unsigned int)+0x3c>)
    132e:	f7fe ff48 	bl	1c2 <SingletonPtr<PlatformMutex>::get()>
    1332:	4620      	mov	r0, r4
    1334:	bdf8      	pop	{r3, r4, r5, r6, r7, pc}
    1336:	6864      	ldr	r4, [r4, #4]
    1338:	e7ea      	b.n	1310 <mbed::FileBase::lookup(char const*, unsigned int)+0x10>
    133a:	bf00      	nop
    133c:	10000424 	.word	0x10000424
    1340:	10000420 	.word	0x10000420

00001344 <mbed::donothing()>:
    1344:	4770      	bx	lr

00001346 <mbed::SerialBase::lock()>:
    1346:	4770      	bx	lr

00001348 <mbed::SerialBase::unlock()>:
    1348:	4770      	bx	lr

0000134a <mbed::SerialBase::_irq_handler(unsigned long, SerialIrq)>:
    134a:	eb00 1201 	add.w	r2, r0, r1, lsl #4
    134e:	6993      	ldr	r3, [r2, #24]
    1350:	f102 000c 	add.w	r0, r2, #12
    1354:	681b      	ldr	r3, [r3, #0]
    1356:	4718      	bx	r3

00001358 <mbed::SerialBase::_base_getc()>:
    1358:	3004      	adds	r0, #4
    135a:	f7ff bb57 	b.w	a0c <serial_getc>

0000135e <mbed::SerialBase::_base_putc(int)>:
    135e:	b510      	push	{r4, lr}
    1360:	460c      	mov	r4, r1
    1362:	3004      	adds	r0, #4
    1364:	f7ff fb92 	bl	a8c <serial_putc>
    1368:	4620      	mov	r0, r4
    136a:	bd10      	pop	{r4, pc}

0000136c <mbed::SerialBase::SerialBase(PinName, PinName, int)>:
    136c:	e92d 41ff 	stmdb	sp!, {r0, r1, r2, r3, r4, r5, r6, r7, r8, lr}
    1370:	460f      	mov	r7, r1
    1372:	2100      	movs	r1, #0
    1374:	4604      	mov	r4, r0
    1376:	4690      	mov	r8, r2
    1378:	4a17      	ldr	r2, [pc, #92]	; (13d8 <mbed::SerialBase::SerialBase(PinName, PinName, int)+0x6c>)
    137a:	4e18      	ldr	r6, [pc, #96]	; (13dc <mbed::SerialBase::SerialBase(PinName, PinName, int)+0x70>)
    137c:	4d18      	ldr	r5, [pc, #96]	; (13e0 <mbed::SerialBase::SerialBase(PinName, PinName, int)+0x74>)
    137e:	62c3      	str	r3, [r0, #44]	; 0x2c
    1380:	6002      	str	r2, [r0, #0]
    1382:	6041      	str	r1, [r0, #4]
    1384:	6081      	str	r1, [r0, #8]
    1386:	6181      	str	r1, [r0, #24]
    1388:	6281      	str	r1, [r0, #40]	; 0x28
    138a:	4669      	mov	r1, sp
    138c:	300c      	adds	r0, #12
    138e:	9503      	str	r5, [sp, #12]
    1390:	9600      	str	r6, [sp, #0]
    1392:	f7ff ff53 	bl	123c <mbed::Callback<void ()>::operator=(mbed::Callback<void ()> const&)>
    1396:	4668      	mov	r0, sp
    1398:	f7ff fe72 	bl	1080 <mbed::Callback<void ()>::~Callback()>
    139c:	4669      	mov	r1, sp
    139e:	f104 001c 	add.w	r0, r4, #28
    13a2:	9503      	str	r5, [sp, #12]
    13a4:	9600      	str	r6, [sp, #0]
    13a6:	1d25      	adds	r5, r4, #4
    13a8:	f7ff ff48 	bl	123c <mbed::Callback<void ()>::operator=(mbed::Callback<void ()> const&)>
    13ac:	4668      	mov	r0, sp
    13ae:	f7ff fe67 	bl	1080 <mbed::Callback<void ()>::~Callback()>
    13b2:	4642      	mov	r2, r8
    13b4:	4639      	mov	r1, r7
    13b6:	4628      	mov	r0, r5
    13b8:	f7ff fc04 	bl	bc4 <serial_init>
    13bc:	6ae1      	ldr	r1, [r4, #44]	; 0x2c
    13be:	4628      	mov	r0, r5
    13c0:	f7ff fa44 	bl	84c <serial_baud>
    13c4:	4628      	mov	r0, r5
    13c6:	4622      	mov	r2, r4
    13c8:	4906      	ldr	r1, [pc, #24]	; (13e4 <mbed::SerialBase::SerialBase(PinName, PinName, int)+0x78>)
    13ca:	f7ff fb13 	bl	9f4 <serial_irq_handler>
    13ce:	4620      	mov	r0, r4
    13d0:	b004      	add	sp, #16
    13d2:	e8bd 81f0 	ldmia.w	sp!, {r4, r5, r6, r7, r8, pc}
    13d6:	bf00      	nop
    13d8:	0000655c 	.word	0x0000655c
    13dc:	00001345 	.word	0x00001345
    13e0:	00006538 	.word	0x00006538
    13e4:	0000134b 	.word	0x0000134b

000013e8 <mbed::File::close()>:
    13e8:	b510      	push	{r4, lr}
    13ea:	4604      	mov	r4, r0
    13ec:	6900      	ldr	r0, [r0, #16]
    13ee:	b130      	cbz	r0, 13fe <mbed::File::close()+0x16>
    13f0:	6803      	ldr	r3, [r0, #0]
    13f2:	6961      	ldr	r1, [r4, #20]
    13f4:	6a5b      	ldr	r3, [r3, #36]	; 0x24
    13f6:	4798      	blx	r3
    13f8:	2300      	movs	r3, #0
    13fa:	6123      	str	r3, [r4, #16]
    13fc:	bd10      	pop	{r4, pc}
    13fe:	f06f 0015 	mvn.w	r0, #21
    1402:	bd10      	pop	{r4, pc}

00001404 <mbed::File::read(void*, unsigned int)>:
    1404:	b430      	push	{r4, r5}
    1406:	4604      	mov	r4, r0
    1408:	6900      	ldr	r0, [r0, #16]
    140a:	6803      	ldr	r3, [r0, #0]
    140c:	6a9d      	ldr	r5, [r3, #40]	; 0x28
    140e:	4613      	mov	r3, r2
    1410:	46ac      	mov	r12, r5
    1412:	460a      	mov	r2, r1
    1414:	6961      	ldr	r1, [r4, #20]
    1416:	bc30      	pop	{r4, r5}
    1418:	4760      	bx	r12

0000141a <mbed::File::write(void const*, unsigned int)>:
    141a:	b430      	push	{r4, r5}
    141c:	4604      	mov	r4, r0
    141e:	6900      	ldr	r0, [r0, #16]
    1420:	6803      	ldr	r3, [r0, #0]
    1422:	6add      	ldr	r5, [r3, #44]	; 0x2c
    1424:	4613      	mov	r3, r2
    1426:	46ac      	mov	r12, r5
    1428:	460a      	mov	r2, r1
    142a:	6961      	ldr	r1, [r4, #20]
    142c:	bc30      	pop	{r4, r5}
    142e:	4760      	bx	r12

00001430 <mbed::File::sync()>:
    1430:	6903      	ldr	r3, [r0, #16]
    1432:	6941      	ldr	r1, [r0, #20]
    1434:	681a      	ldr	r2, [r3, #0]
    1436:	4618      	mov	r0, r3
    1438:	6b12      	ldr	r2, [r2, #48]	; 0x30
    143a:	4710      	bx	r2

0000143c <mbed::File::isatty()>:
    143c:	6903      	ldr	r3, [r0, #16]
    143e:	6941      	ldr	r1, [r0, #20]
    1440:	681a      	ldr	r2, [r3, #0]
    1442:	4618      	mov	r0, r3
    1444:	6b52      	ldr	r2, [r2, #52]	; 0x34
    1446:	4710      	bx	r2

00001448 <mbed::File::seek(long, int)>:
    1448:	b430      	push	{r4, r5}
    144a:	4604      	mov	r4, r0
    144c:	6900      	ldr	r0, [r0, #16]
    144e:	6803      	ldr	r3, [r0, #0]
    1450:	6b9d      	ldr	r5, [r3, #56]	; 0x38
    1452:	4613      	mov	r3, r2
    1454:	46ac      	mov	r12, r5
    1456:	460a      	mov	r2, r1
    1458:	6961      	ldr	r1, [r4, #20]
    145a:	bc30      	pop	{r4, r5}
    145c:	4760      	bx	r12

0000145e <mbed::File::tell()>:
    145e:	6903      	ldr	r3, [r0, #16]
    1460:	6941      	ldr	r1, [r0, #20]
    1462:	681a      	ldr	r2, [r3, #0]
    1464:	4618      	mov	r0, r3
    1466:	6bd2      	ldr	r2, [r2, #60]	; 0x3c
    1468:	4710      	bx	r2

0000146a <mbed::File::rewind()>:
    146a:	6903      	ldr	r3, [r0, #16]
    146c:	6941      	ldr	r1, [r0, #20]
    146e:	681a      	ldr	r2, [r3, #0]
    1470:	4618      	mov	r0, r3
    1472:	6c12      	ldr	r2, [r2, #64]	; 0x40
    1474:	4710      	bx	r2

00001476 <mbed::File::size()>:
    1476:	6903      	ldr	r3, [r0, #16]
    1478:	6941      	ldr	r1, [r0, #20]
    147a:	681a      	ldr	r2, [r3, #0]
    147c:	4618      	mov	r0, r3
    147e:	6c52      	ldr	r2, [r2, #68]	; 0x44
    1480:	4710      	bx	r2

00001482 <mbed::File::open(mbed::FileSystem*, char const*, int)>:
    1482:	b570      	push	{r4, r5, r6, lr}
    1484:	460d      	mov	r5, r1
    1486:	6901      	ldr	r1, [r0, #16]
    1488:	4604      	mov	r4, r0
    148a:	b941      	cbnz	r1, 149e <mbed::File::open(mbed::FileSystem*, char const*, int)+0x1c>
    148c:	6829      	ldr	r1, [r5, #0]
    148e:	6a0e      	ldr	r6, [r1, #32]
    1490:	f100 0114 	add.w	r1, r0, #20
    1494:	4628      	mov	r0, r5
    1496:	47b0      	blx	r6
    1498:	b918      	cbnz	r0, 14a2 <mbed::File::open(mbed::FileSystem*, char const*, int)+0x20>
    149a:	6125      	str	r5, [r4, #16]
    149c:	bd70      	pop	{r4, r5, r6, pc}
    149e:	f06f 0015 	mvn.w	r0, #21
    14a2:	bd70      	pop	{r4, r5, r6, pc}

000014a4 <mbed::File::~File()>:
    14a4:	4b07      	ldr	r3, [pc, #28]	; (14c4 <mbed::File::~File()+0x20>)
    14a6:	b510      	push	{r4, lr}
    14a8:	6003      	str	r3, [r0, #0]
    14aa:	6903      	ldr	r3, [r0, #16]
    14ac:	4604      	mov	r4, r0
    14ae:	b10b      	cbz	r3, 14b4 <mbed::File::~File()+0x10>
    14b0:	f7ff ff9a 	bl	13e8 <mbed::File::close()>
    14b4:	4b04      	ldr	r3, [pc, #16]	; (14c8 <mbed::File::~File()+0x24>)
    14b6:	4620      	mov	r0, r4
    14b8:	6023      	str	r3, [r4, #0]
    14ba:	f7ff fef1 	bl	12a0 <mbed::FileBase::~FileBase()>
    14be:	4620      	mov	r0, r4
    14c0:	bd10      	pop	{r4, pc}
    14c2:	bf00      	nop
    14c4:	00006574 	.word	0x00006574
    14c8:	000064a0 	.word	0x000064a0

000014cc <mbed::File::~File()>:
    14cc:	b510      	push	{r4, lr}
    14ce:	4604      	mov	r4, r0
    14d0:	f7ff ffe8 	bl	14a4 <mbed::File::~File()>
    14d4:	4620      	mov	r0, r4
    14d6:	f000 f986 	bl	17e6 <operator delete(void*)>
    14da:	4620      	mov	r0, r4
    14dc:	bd10      	pop	{r4, pc}
	...

000014e0 <mbed::File::File()>:
    14e0:	2200      	movs	r2, #0
    14e2:	b510      	push	{r4, lr}
    14e4:	4604      	mov	r4, r0
    14e6:	4611      	mov	r1, r2
    14e8:	f7ff febc 	bl	1264 <mbed::FileBase::FileBase(char const*, mbed::PathType)>
    14ec:	4b03      	ldr	r3, [pc, #12]	; (14fc <mbed::File::File()+0x1c>)
    14ee:	4620      	mov	r0, r4
    14f0:	6023      	str	r3, [r4, #0]
    14f2:	2300      	movs	r3, #0
    14f4:	6123      	str	r3, [r4, #16]
    14f6:	6163      	str	r3, [r4, #20]
    14f8:	bd10      	pop	{r4, pc}
    14fa:	bf00      	nop
    14fc:	00006574 	.word	0x00006574

00001500 <__wrap__malloc_r>:
    1500:	f001 bb1a 	b.w	2b38 <_malloc_r>

00001504 <__wrap__realloc_r>:
    1504:	f001 bb76 	b.w	2bf4 <_realloc_r>

00001508 <__wrap__free_r>:
    1508:	f001 baca 	b.w	2aa0 <_free_r>

0000150c <__wrap__calloc_r>:
    150c:	f001 bab9 	b.w	2a82 <_calloc_r>

00001510 <ManagedFile::~ManagedFile()>:
    1510:	4b03      	ldr	r3, [pc, #12]	; (1520 <ManagedFile::~ManagedFile()+0x10>)
    1512:	b510      	push	{r4, lr}
    1514:	6003      	str	r3, [r0, #0]
    1516:	4604      	mov	r4, r0
    1518:	f7ff ffc4 	bl	14a4 <mbed::File::~File()>
    151c:	4620      	mov	r0, r4
    151e:	bd10      	pop	{r4, pc}
    1520:	000065c0 	.word	0x000065c0

00001524 <init_serial()>:
    1524:	b508      	push	{r3, lr}
    1526:	4b08      	ldr	r3, [pc, #32]	; (1548 <init_serial()+0x24>)
    1528:	681b      	ldr	r3, [r3, #0]
    152a:	b95b      	cbnz	r3, 1544 <init_serial()+0x20>
    152c:	4907      	ldr	r1, [pc, #28]	; (154c <init_serial()+0x28>)
    152e:	4808      	ldr	r0, [pc, #32]	; (1550 <init_serial()+0x2c>)
    1530:	4a08      	ldr	r2, [pc, #32]	; (1554 <init_serial()+0x30>)
    1532:	f7ff fb47 	bl	bc4 <serial_init>
    1536:	f44f 5116 	mov.w	r1, #9600	; 0x2580
    153a:	e8bd 4008 	ldmia.w	sp!, {r3, lr}
    153e:	4804      	ldr	r0, [pc, #16]	; (1550 <init_serial()+0x2c>)
    1540:	f7ff b984 	b.w	84c <serial_baud>
    1544:	bd08      	pop	{r3, pc}
    1546:	bf00      	nop
    1548:	10000338 	.word	0x10000338
    154c:	2009c002 	.word	0x2009c002
    1550:	1000054c 	.word	0x1000054c
    1554:	2009c003 	.word	0x2009c003

00001558 <mbed_sdk_init>:
    1558:	4770      	bx	lr
	...

0000155c <_close>:
    155c:	2802      	cmp	r0, #2
    155e:	b510      	push	{r4, lr}
    1560:	4604      	mov	r4, r0
    1562:	dc01      	bgt.n	1568 <_close+0xc>
    1564:	2000      	movs	r0, #0
    1566:	bd10      	pop	{r4, pc}
    1568:	f000 ff08 	bl	237c <__errno>
    156c:	2309      	movs	r3, #9
    156e:	2200      	movs	r2, #0
    1570:	6003      	str	r3, [r0, #0]
    1572:	4b09      	ldr	r3, [pc, #36]	; (1598 <_close+0x3c>)
    1574:	3c03      	subs	r4, #3
    1576:	f853 0024 	ldr.w	r0, [r3, r4, lsl #2]
    157a:	f843 2024 	str.w	r2, [r3, r4, lsl #2]
    157e:	b140      	cbz	r0, 1592 <_close+0x36>
    1580:	6803      	ldr	r3, [r0, #0]
    1582:	691b      	ldr	r3, [r3, #16]
    1584:	4798      	blx	r3
    1586:	1e04      	subs	r4, r0, #0
    1588:	daec      	bge.n	1564 <_close+0x8>
    158a:	f000 fef7 	bl	237c <__errno>
    158e:	4264      	negs	r4, r4
    1590:	6004      	str	r4, [r0, #0]
    1592:	f04f 30ff 	mov.w	r0, #4294967295	; 0xffffffff
    1596:	bd10      	pop	{r4, pc}
    1598:	10000434 	.word	0x10000434

0000159c <_write>:
    159c:	b5f8      	push	{r3, r4, r5, r6, r7, lr}
    159e:	4605      	mov	r5, r0
    15a0:	460e      	mov	r6, r1
    15a2:	4614      	mov	r4, r2
    15a4:	f000 feea 	bl	237c <__errno>
    15a8:	2309      	movs	r3, #9
    15aa:	2d02      	cmp	r5, #2
    15ac:	6003      	str	r3, [r0, #0]
    15ae:	dc0f      	bgt.n	15d0 <_write+0x34>
    15b0:	4b12      	ldr	r3, [pc, #72]	; (15fc <_write+0x60>)
    15b2:	681b      	ldr	r3, [r3, #0]
    15b4:	b90b      	cbnz	r3, 15ba <_write+0x1e>
    15b6:	f7ff ffb5 	bl	1524 <init_serial()>
    15ba:	4635      	mov	r5, r6
    15bc:	1937      	adds	r7, r6, r4
    15be:	4e10      	ldr	r6, [pc, #64]	; (1600 <_write+0x64>)
    15c0:	42bd      	cmp	r5, r7
    15c2:	d015      	beq.n	15f0 <_write+0x54>
    15c4:	f815 1b01 	ldrb.w	r1, [r5], #1
    15c8:	4630      	mov	r0, r6
    15ca:	f7ff fa5f 	bl	a8c <serial_putc>
    15ce:	e7f7      	b.n	15c0 <_write+0x24>
    15d0:	4b0c      	ldr	r3, [pc, #48]	; (1604 <_write+0x68>)
    15d2:	3d03      	subs	r5, #3
    15d4:	f853 0025 	ldr.w	r0, [r3, r5, lsl #2]
    15d8:	b160      	cbz	r0, 15f4 <_write+0x58>
    15da:	6803      	ldr	r3, [r0, #0]
    15dc:	4622      	mov	r2, r4
    15de:	68db      	ldr	r3, [r3, #12]
    15e0:	4631      	mov	r1, r6
    15e2:	4798      	blx	r3
    15e4:	1e04      	subs	r4, r0, #0
    15e6:	da03      	bge.n	15f0 <_write+0x54>
    15e8:	f000 fec8 	bl	237c <__errno>
    15ec:	4263      	negs	r3, r4
    15ee:	6003      	str	r3, [r0, #0]
    15f0:	4620      	mov	r0, r4
    15f2:	bdf8      	pop	{r3, r4, r5, r6, r7, pc}
    15f4:	f04f 34ff 	mov.w	r4, #4294967295	; 0xffffffff
    15f8:	e7fa      	b.n	15f0 <_write+0x54>
    15fa:	bf00      	nop
    15fc:	10000338 	.word	0x10000338
    1600:	1000054c 	.word	0x1000054c
    1604:	10000434 	.word	0x10000434

00001608 <_read>:
    1608:	b570      	push	{r4, r5, r6, lr}
    160a:	4604      	mov	r4, r0
    160c:	460d      	mov	r5, r1
    160e:	4616      	mov	r6, r2
    1610:	f000 feb4 	bl	237c <__errno>
    1614:	2309      	movs	r3, #9
    1616:	2c02      	cmp	r4, #2
    1618:	6003      	str	r3, [r0, #0]
    161a:	dc0b      	bgt.n	1634 <_read+0x2c>
    161c:	4b0f      	ldr	r3, [pc, #60]	; (165c <_read+0x54>)
    161e:	681b      	ldr	r3, [r3, #0]
    1620:	b90b      	cbnz	r3, 1626 <_read+0x1e>
    1622:	f7ff ff7f 	bl	1524 <init_serial()>
    1626:	480e      	ldr	r0, [pc, #56]	; (1660 <_read+0x58>)
    1628:	f7ff f9f0 	bl	a0c <serial_getc>
    162c:	2401      	movs	r4, #1
    162e:	7028      	strb	r0, [r5, #0]
    1630:	4620      	mov	r0, r4
    1632:	bd70      	pop	{r4, r5, r6, pc}
    1634:	4b0b      	ldr	r3, [pc, #44]	; (1664 <_read+0x5c>)
    1636:	3c03      	subs	r4, #3
    1638:	f853 0024 	ldr.w	r0, [r3, r4, lsl #2]
    163c:	b158      	cbz	r0, 1656 <_read+0x4e>
    163e:	6803      	ldr	r3, [r0, #0]
    1640:	4632      	mov	r2, r6
    1642:	689b      	ldr	r3, [r3, #8]
    1644:	4629      	mov	r1, r5
    1646:	4798      	blx	r3
    1648:	1e04      	subs	r4, r0, #0
    164a:	daf1      	bge.n	1630 <_read+0x28>
    164c:	f000 fe96 	bl	237c <__errno>
    1650:	4263      	negs	r3, r4
    1652:	6003      	str	r3, [r0, #0]
    1654:	e7ec      	b.n	1630 <_read+0x28>
    1656:	f04f 34ff 	mov.w	r4, #4294967295	; 0xffffffff
    165a:	e7e9      	b.n	1630 <_read+0x28>
    165c:	10000338 	.word	0x10000338
    1660:	1000054c 	.word	0x1000054c
    1664:	10000434 	.word	0x10000434

00001668 <_isatty>:
    1668:	b510      	push	{r4, lr}
    166a:	4604      	mov	r4, r0
    166c:	f000 fe86 	bl	237c <__errno>
    1670:	2309      	movs	r3, #9
    1672:	2c02      	cmp	r4, #2
    1674:	6003      	str	r3, [r0, #0]
    1676:	dd10      	ble.n	169a <_isatty+0x32>
    1678:	4b0a      	ldr	r3, [pc, #40]	; (16a4 <_isatty+0x3c>)
    167a:	3c03      	subs	r4, #3
    167c:	f853 0024 	ldr.w	r0, [r3, r4, lsl #2]
    1680:	b140      	cbz	r0, 1694 <_isatty+0x2c>
    1682:	6803      	ldr	r3, [r0, #0]
    1684:	699b      	ldr	r3, [r3, #24]
    1686:	4798      	blx	r3
    1688:	1e04      	subs	r4, r0, #0
    168a:	da08      	bge.n	169e <_isatty+0x36>
    168c:	f000 fe76 	bl	237c <__errno>
    1690:	4264      	negs	r4, r4
    1692:	6004      	str	r4, [r0, #0]
    1694:	f04f 30ff 	mov.w	r0, #4294967295	; 0xffffffff
    1698:	bd10      	pop	{r4, pc}
    169a:	2001      	movs	r0, #1
    169c:	bd10      	pop	{r4, pc}
    169e:	2000      	movs	r0, #0
    16a0:	bd10      	pop	{r4, pc}
    16a2:	bf00      	nop
    16a4:	10000434 	.word	0x10000434

000016a8 <_lseek>:
    16a8:	b570      	push	{r4, r5, r6, lr}
    16aa:	4604      	mov	r4, r0
    16ac:	460d      	mov	r5, r1
    16ae:	4616      	mov	r6, r2
    16b0:	f000 fe64 	bl	237c <__errno>
    16b4:	2309      	movs	r3, #9
    16b6:	2c02      	cmp	r4, #2
    16b8:	6003      	str	r3, [r0, #0]
    16ba:	dd0b      	ble.n	16d4 <_lseek+0x2c>
    16bc:	4b08      	ldr	r3, [pc, #32]	; (16e0 <_lseek+0x38>)
    16be:	3c03      	subs	r4, #3
    16c0:	f853 0024 	ldr.w	r0, [r3, r4, lsl #2]
    16c4:	b140      	cbz	r0, 16d8 <_lseek+0x30>
    16c6:	6803      	ldr	r3, [r0, #0]
    16c8:	4632      	mov	r2, r6
    16ca:	4629      	mov	r1, r5
    16cc:	e8bd 4070 	ldmia.w	sp!, {r4, r5, r6, lr}
    16d0:	69db      	ldr	r3, [r3, #28]
    16d2:	4718      	bx	r3
    16d4:	2000      	movs	r0, #0
    16d6:	bd70      	pop	{r4, r5, r6, pc}
    16d8:	f04f 30ff 	mov.w	r0, #4294967295	; 0xffffffff
    16dc:	bd70      	pop	{r4, r5, r6, pc}
    16de:	bf00      	nop
    16e0:	10000434 	.word	0x10000434

000016e4 <_fstat>:
    16e4:	2802      	cmp	r0, #2
    16e6:	b508      	push	{r3, lr}
    16e8:	dc04      	bgt.n	16f4 <_fstat+0x10>
    16ea:	f44f 5300 	mov.w	r3, #8192	; 0x2000
    16ee:	2000      	movs	r0, #0
    16f0:	604b      	str	r3, [r1, #4]
    16f2:	bd08      	pop	{r3, pc}
    16f4:	f000 fe42 	bl	237c <__errno>
    16f8:	2309      	movs	r3, #9
    16fa:	6003      	str	r3, [r0, #0]
    16fc:	f04f 30ff 	mov.w	r0, #4294967295	; 0xffffffff
    1700:	bd08      	pop	{r3, pc}

00001702 <software_init_hook_rtos>:
    1702:	4770      	bx	lr

00001704 <software_init_hook>:
    1704:	b508      	push	{r3, lr}
    1706:	f7ff ff27 	bl	1558 <mbed_sdk_init>
    170a:	f7ff fffa 	bl	1702 <software_init_hook_rtos>
    170e:	bd08      	pop	{r3, pc}

00001710 <mbed_main>:
    1710:	4770      	bx	lr

00001712 <__wrap_main>:
    1712:	b508      	push	{r3, lr}
    1714:	f7ff fffc 	bl	1710 <mbed_main>
    1718:	e8bd 4008 	ldmia.w	sp!, {r3, lr}
    171c:	f7fe bd68 	b.w	1f0 <main>

00001720 <_sbrk>:
    1720:	4a0c      	ldr	r2, [pc, #48]	; (1754 <_sbrk+0x34>)
    1722:	b510      	push	{r4, lr}
    1724:	6813      	ldr	r3, [r2, #0]
    1726:	4418      	add	r0, r3
    1728:	f3ef 8108 	mrs	r1, MSP
    172c:	4288      	cmp	r0, r1
    172e:	d305      	bcc.n	173c <_sbrk+0x1c>
    1730:	220c      	movs	r2, #12
    1732:	4b09      	ldr	r3, [pc, #36]	; (1758 <_sbrk+0x38>)
    1734:	f04f 30ff 	mov.w	r0, #4294967295	; 0xffffffff
    1738:	601a      	str	r2, [r3, #0]
    173a:	bd10      	pop	{r4, pc}
    173c:	4907      	ldr	r1, [pc, #28]	; (175c <_sbrk+0x3c>)
    173e:	680c      	ldr	r4, [r1, #0]
    1740:	b124      	cbz	r4, 174c <_sbrk+0x2c>
    1742:	4907      	ldr	r1, [pc, #28]	; (1760 <_sbrk+0x40>)
    1744:	6809      	ldr	r1, [r1, #0]
    1746:	4421      	add	r1, r4
    1748:	4288      	cmp	r0, r1
    174a:	d2f1      	bcs.n	1730 <_sbrk+0x10>
    174c:	6010      	str	r0, [r2, #0]
    174e:	4618      	mov	r0, r3
    1750:	bd10      	pop	{r4, pc}
    1752:	bf00      	nop
    1754:	100000d0 	.word	0x100000d0
    1758:	10000554 	.word	0x10000554
    175c:	1000053c 	.word	0x1000053c
    1760:	10000540 	.word	0x10000540

00001764 <_exit>:
    1764:	4c09      	ldr	r4, [pc, #36]	; (178c <_exit+0x28>)
    1766:	b508      	push	{r3, lr}
    1768:	6823      	ldr	r3, [r4, #0]
    176a:	4605      	mov	r5, r0
    176c:	6898      	ldr	r0, [r3, #8]
    176e:	f000 ff17 	bl	25a0 <fflush>
    1772:	6823      	ldr	r3, [r4, #0]
    1774:	68d8      	ldr	r0, [r3, #12]
    1776:	f000 ff13 	bl	25a0 <fflush>
    177a:	f7fe febe 	bl	4fa <mbed_interface_connected>
    177e:	b108      	cbz	r0, 1784 <_exit+0x20>
    1780:	f7fe feda 	bl	538 <semihost_exit>
    1784:	b10d      	cbz	r5, 178a <_exit+0x26>
    1786:	f7fe fef1 	bl	56c <mbed_die>
    178a:	e7fe      	b.n	178a <_exit+0x26>
    178c:	100000d4 	.word	0x100000d4

00001790 <__aeabi_atexit>:
    1790:	2001      	movs	r0, #1
    1792:	4770      	bx	lr

00001794 <__wrap_exit>:
    1794:	b508      	push	{r3, lr}
    1796:	f7ff ffe5 	bl	1764 <_exit>

0000179a <mbed::mbed_set_unbuffered_stream(__sFILE*)>:
    179a:	2100      	movs	r1, #0
    179c:	f002 b9a5 	b.w	3aea <setbuf>

000017a0 <__rtos_malloc_lock>:
    17a0:	4770      	bx	lr

000017a2 <__rtos_malloc_unlock>:
    17a2:	4770      	bx	lr

000017a4 <__malloc_lock>:
    17a4:	b508      	push	{r3, lr}
    17a6:	f7ff fffb 	bl	17a0 <__rtos_malloc_lock>
    17aa:	bd08      	pop	{r3, pc}

000017ac <__malloc_unlock>:
    17ac:	b508      	push	{r3, lr}
    17ae:	f7ff fff8 	bl	17a2 <__rtos_malloc_unlock>
    17b2:	bd08      	pop	{r3, pc}

000017b4 <operator new(unsigned int)>:
    17b4:	b510      	push	{r4, lr}
    17b6:	f001 f933 	bl	2a20 <malloc>
    17ba:	4604      	mov	r4, r0
    17bc:	b910      	cbnz	r0, 17c4 <operator new(unsigned int)+0x10>
    17be:	4802      	ldr	r0, [pc, #8]	; (17c8 <operator new(unsigned int)+0x14>)
    17c0:	f7fe fece 	bl	560 <error>
    17c4:	4620      	mov	r0, r4
    17c6:	bd10      	pop	{r4, pc}
    17c8:	00006604 	.word	0x00006604

000017cc <operator delete[](void*)>:
    17cc:	b108      	cbz	r0, 17d2 <operator delete[](void*)+0x6>
    17ce:	f001 b92f 	b.w	2a30 <free>
    17d2:	4770      	bx	lr

000017d4 <ManagedFile::~ManagedFile()>:
    17d4:	b510      	push	{r4, lr}
    17d6:	4604      	mov	r4, r0
    17d8:	f7ff fe9a 	bl	1510 <ManagedFile::~ManagedFile()>
    17dc:	4620      	mov	r0, r4
    17de:	f7ff fff5 	bl	17cc <operator delete[](void*)>
    17e2:	4620      	mov	r0, r4
    17e4:	bd10      	pop	{r4, pc}

000017e6 <operator delete(void*)>:
    17e6:	f7ff bff1 	b.w	17cc <operator delete[](void*)>
	...

000017ec <mbed::remove_filehandle(mbed::FileLike*)>:
    17ec:	b510      	push	{r4, lr}
    17ee:	4604      	mov	r4, r0
    17f0:	4809      	ldr	r0, [pc, #36]	; (1818 <mbed::remove_filehandle(mbed::FileLike*)+0x2c>)
    17f2:	f7fe fce6 	bl	1c2 <SingletonPtr<PlatformMutex>::get()>
    17f6:	2300      	movs	r3, #0
    17f8:	4619      	mov	r1, r3
    17fa:	4a08      	ldr	r2, [pc, #32]	; (181c <mbed::remove_filehandle(mbed::FileLike*)+0x30>)
    17fc:	f852 0023 	ldr.w	r0, [r2, r3, lsl #2]
    1800:	42a0      	cmp	r0, r4
    1802:	bf08      	it	eq
    1804:	f842 1023 	streq.w	r1, [r2, r3, lsl #2]
    1808:	3301      	adds	r3, #1
    180a:	2b40      	cmp	r3, #64	; 0x40
    180c:	d1f6      	bne.n	17fc <mbed::remove_filehandle(mbed::FileLike*)+0x10>
    180e:	4802      	ldr	r0, [pc, #8]	; (1818 <mbed::remove_filehandle(mbed::FileLike*)+0x2c>)
    1810:	f7fe fcd7 	bl	1c2 <SingletonPtr<PlatformMutex>::get()>
    1814:	bd10      	pop	{r4, pc}
    1816:	bf00      	nop
    1818:	10000534 	.word	0x10000534
    181c:	10000434 	.word	0x10000434

00001820 <_open>:
    1820:	e92d 47f3 	stmdb	sp!, {r0, r1, r4, r5, r6, r7, r8, r9, r10, lr}
    1824:	4689      	mov	r9, r1
    1826:	494a      	ldr	r1, [pc, #296]	; (1950 <_open+0x130>)
    1828:	4606      	mov	r6, r0
    182a:	f002 faa8 	bl	3d7e <strcmp>
    182e:	4604      	mov	r4, r0
    1830:	b928      	cbnz	r0, 183e <_open+0x1e>
    1832:	f7ff fe77 	bl	1524 <init_serial()>
    1836:	4620      	mov	r0, r4
    1838:	b002      	add	sp, #8
    183a:	e8bd 87f0 	ldmia.w	sp!, {r4, r5, r6, r7, r8, r9, r10, pc}
    183e:	4945      	ldr	r1, [pc, #276]	; (1954 <_open+0x134>)
    1840:	4630      	mov	r0, r6
    1842:	f002 fa9c 	bl	3d7e <strcmp>
    1846:	b918      	cbnz	r0, 1850 <_open+0x30>
    1848:	f7ff fe6c 	bl	1524 <init_serial()>
    184c:	2401      	movs	r4, #1
    184e:	e7f2      	b.n	1836 <_open+0x16>
    1850:	4941      	ldr	r1, [pc, #260]	; (1958 <_open+0x138>)
    1852:	4630      	mov	r0, r6
    1854:	f002 fa93 	bl	3d7e <strcmp>
    1858:	b918      	cbnz	r0, 1862 <_open+0x42>
    185a:	f7ff fe63 	bl	1524 <init_serial()>
    185e:	2402      	movs	r4, #2
    1860:	e7e9      	b.n	1836 <_open+0x16>
    1862:	f000 fd8b 	bl	237c <__errno>
    1866:	2309      	movs	r3, #9
    1868:	4f3c      	ldr	r7, [pc, #240]	; (195c <_open+0x13c>)
    186a:	6003      	str	r3, [r0, #0]
    186c:	483c      	ldr	r0, [pc, #240]	; (1960 <_open+0x140>)
    186e:	f7fe fca8 	bl	1c2 <SingletonPtr<PlatformMutex>::get()>
    1872:	2400      	movs	r4, #0
    1874:	46b8      	mov	r8, r7
    1876:	f857 5024 	ldr.w	r5, [r7, r4, lsl #2]
    187a:	2d00      	cmp	r5, #0
    187c:	d052      	beq.n	1924 <_open+0x104>
    187e:	3401      	adds	r4, #1
    1880:	2c40      	cmp	r4, #64	; 0x40
    1882:	d1f8      	bne.n	1876 <_open+0x56>
    1884:	f000 fd7a 	bl	237c <__errno>
    1888:	2318      	movs	r3, #24
    188a:	6003      	str	r3, [r0, #0]
    188c:	4834      	ldr	r0, [pc, #208]	; (1960 <_open+0x140>)
    188e:	f7fe fc98 	bl	1c2 <SingletonPtr<PlatformMutex>::get()>
    1892:	e00d      	b.n	18b0 <_open+0x90>
    1894:	4631      	mov	r1, r6
    1896:	4668      	mov	r0, sp
    1898:	f7ff fbfa 	bl	1090 <mbed::FilePath::FilePath(char const*)>
    189c:	4668      	mov	r0, sp
    189e:	f7ff fc37 	bl	1110 <mbed::FilePath::exists()>
    18a2:	b940      	cbnz	r0, 18b6 <_open+0x96>
    18a4:	f847 0024 	str.w	r0, [r7, r4, lsl #2]
    18a8:	f000 fd68 	bl	237c <__errno>
    18ac:	2302      	movs	r3, #2
    18ae:	6003      	str	r3, [r0, #0]
    18b0:	f04f 34ff 	mov.w	r4, #4294967295	; 0xffffffff
    18b4:	e7bf      	b.n	1836 <_open+0x16>
    18b6:	4668      	mov	r0, sp
    18b8:	f7ff fc1a 	bl	10f0 <mbed::FilePath::isFile()>
    18bc:	b120      	cbz	r0, 18c8 <_open+0xa8>
    18be:	4668      	mov	r0, sp
    18c0:	f7ff fc1f 	bl	1102 <mbed::FilePath::file()>
    18c4:	4605      	mov	r5, r0
    18c6:	e03d      	b.n	1944 <_open+0x124>
    18c8:	4668      	mov	r0, sp
    18ca:	f7ff fc0a 	bl	10e2 <mbed::FilePath::fileSystem()>
    18ce:	4682      	mov	r10, r0
    18d0:	b930      	cbnz	r0, 18e0 <_open+0xc0>
    18d2:	f000 fd53 	bl	237c <__errno>
    18d6:	2302      	movs	r3, #2
    18d8:	6003      	str	r3, [r0, #0]
    18da:	f847 a024 	str.w	r10, [r7, r4, lsl #2]
    18de:	e7e7      	b.n	18b0 <_open+0x90>
    18e0:	2018      	movs	r0, #24
    18e2:	f7ff ff67 	bl	17b4 <operator new(unsigned int)>
    18e6:	4606      	mov	r6, r0
    18e8:	f7ff fdfa 	bl	14e0 <mbed::File::File()>
    18ec:	4b1d      	ldr	r3, [pc, #116]	; (1964 <_open+0x144>)
    18ee:	4668      	mov	r0, sp
    18f0:	6033      	str	r3, [r6, #0]
    18f2:	f7ff fbeb 	bl	10cc <mbed::FilePath::fileName()>
    18f6:	f429 3380 	bic.w	r3, r9, #65536	; 0x10000
    18fa:	4602      	mov	r2, r0
    18fc:	4651      	mov	r1, r10
    18fe:	4630      	mov	r0, r6
    1900:	f7ff fdbf 	bl	1482 <mbed::File::open(mbed::FileSystem*, char const*, int)>
    1904:	1e07      	subs	r7, r0, #0
    1906:	da0b      	bge.n	1920 <_open+0x100>
    1908:	f000 fd38 	bl	237c <__errno>
    190c:	427f      	negs	r7, r7
    190e:	6007      	str	r7, [r0, #0]
    1910:	b11e      	cbz	r6, 191a <_open+0xfa>
    1912:	6833      	ldr	r3, [r6, #0]
    1914:	4630      	mov	r0, r6
    1916:	685b      	ldr	r3, [r3, #4]
    1918:	4798      	blx	r3
    191a:	f848 5024 	str.w	r5, [r8, r4, lsl #2]
    191e:	e7c7      	b.n	18b0 <_open+0x90>
    1920:	4635      	mov	r5, r6
    1922:	e00f      	b.n	1944 <_open+0x124>
    1924:	f04f 33ff 	mov.w	r3, #4294967295	; 0xffffffff
    1928:	480d      	ldr	r0, [pc, #52]	; (1960 <_open+0x140>)
    192a:	f847 3024 	str.w	r3, [r7, r4, lsl #2]
    192e:	f7fe fc48 	bl	1c2 <SingletonPtr<PlatformMutex>::get()>
    1932:	7833      	ldrb	r3, [r6, #0]
    1934:	2b3a      	cmp	r3, #58	; 0x3a
    1936:	d1ad      	bne.n	1894 <_open+0x74>
    1938:	466a      	mov	r2, sp
    193a:	490b      	ldr	r1, [pc, #44]	; (1968 <_open+0x148>)
    193c:	4630      	mov	r0, r6
    193e:	f002 f9af 	bl	3ca0 <siscanf>
    1942:	9d00      	ldr	r5, [sp, #0]
    1944:	2d00      	cmp	r5, #0
    1946:	d0e8      	beq.n	191a <_open+0xfa>
    1948:	f848 5024 	str.w	r5, [r8, r4, lsl #2]
    194c:	3403      	adds	r4, #3
    194e:	e772      	b.n	1836 <_open+0x16>
    1950:	00006629 	.word	0x00006629
    1954:	00006630 	.word	0x00006630
    1958:	00006621 	.word	0x00006621
    195c:	10000434 	.word	0x10000434
    1960:	10000534 	.word	0x10000534
    1964:	000065c0 	.word	0x000065c0
    1968:	000064e0 	.word	0x000064e0

0000196c <ManagedFile::close()>:
    196c:	b538      	push	{r3, r4, r5, lr}
    196e:	4604      	mov	r4, r0
    1970:	f7ff fd3a 	bl	13e8 <mbed::File::close()>
    1974:	4605      	mov	r5, r0
    1976:	b11c      	cbz	r4, 1980 <ManagedFile::close()+0x14>
    1978:	6823      	ldr	r3, [r4, #0]
    197a:	4620      	mov	r0, r4
    197c:	685b      	ldr	r3, [r3, #4]
    197e:	4798      	blx	r3
    1980:	4628      	mov	r0, r5
    1982:	bd38      	pop	{r3, r4, r5, pc}

00001984 <Reset_Handler>:
    1984:	4906      	ldr	r1, [pc, #24]	; (19a0 <Reset_Handler+0x1c>)
    1986:	4a07      	ldr	r2, [pc, #28]	; (19a4 <Reset_Handler+0x20>)
    1988:	4b07      	ldr	r3, [pc, #28]	; (19a8 <Reset_Handler+0x24>)
    198a:	429a      	cmp	r2, r3
    198c:	bfbe      	ittt	lt
    198e:	f851 0b04 	ldrlt.w	r0, [r1], #4
    1992:	f842 0b04 	strlt.w	r0, [r2], #4
    1996:	e7f8      	blt.n	198a <Reset_Handler+0x6>
    1998:	4804      	ldr	r0, [pc, #16]	; (19ac <Reset_Handler+0x28>)
    199a:	4780      	blx	r0
    199c:	4804      	ldr	r0, [pc, #16]	; (19b0 <Reset_Handler+0x2c>)
    199e:	4700      	bx	r0
    19a0:	00006924 	.word	0x00006924
    19a4:	100000c8 	.word	0x100000c8
    19a8:	100002b0 	.word	0x100002b0
    19ac:	00000f79 	.word	0x00000f79
    19b0:	0000031d 	.word	0x0000031d

000019b4 <NMI_Handler>:
    19b4:	e7fe      	b.n	19b4 <NMI_Handler>

000019b6 <HardFault_Handler>:
    19b6:	e7fe      	b.n	19b6 <HardFault_Handler>

000019b8 <MemManage_Handler>:
    19b8:	e7fe      	b.n	19b8 <MemManage_Handler>

000019ba <BusFault_Handler>:
    19ba:	e7fe      	b.n	19ba <BusFault_Handler>

000019bc <UsageFault_Handler>:
    19bc:	e7fe      	b.n	19bc <UsageFault_Handler>

000019be <SVC_Handler>:
    19be:	e7fe      	b.n	19be <SVC_Handler>

000019c0 <DebugMon_Handler>:
    19c0:	e7fe      	b.n	19c0 <DebugMon_Handler>

000019c2 <PendSV_Handler>:
    19c2:	e7fe      	b.n	19c2 <PendSV_Handler>

000019c4 <SysTick_Handler>:
    19c4:	e7fe      	b.n	19c4 <SysTick_Handler>

000019c6 <ADC_IRQHandler>:
    19c6:	e7fe      	b.n	19c6 <ADC_IRQHandler>

000019c8 <__aeabi_drsub>:
    19c8:	f081 4100 	eor.w	r1, r1, #2147483648	; 0x80000000
    19cc:	e002      	b.n	19d4 <__adddf3>
    19ce:	bf00      	nop

000019d0 <__aeabi_dsub>:
    19d0:	f083 4300 	eor.w	r3, r3, #2147483648	; 0x80000000

000019d4 <__adddf3>:
    19d4:	b530      	push	{r4, r5, lr}
    19d6:	ea4f 0441 	mov.w	r4, r1, lsl #1
    19da:	ea4f 0543 	mov.w	r5, r3, lsl #1
    19de:	ea94 0f05 	teq	r4, r5
    19e2:	bf08      	it	eq
    19e4:	ea90 0f02 	teqeq	r0, r2
    19e8:	bf1f      	itttt	ne
    19ea:	ea54 0c00 	orrsne.w	r12, r4, r0
    19ee:	ea55 0c02 	orrsne.w	r12, r5, r2
    19f2:	ea7f 5c64 	mvnsne.w	r12, r4, asr #21
    19f6:	ea7f 5c65 	mvnsne.w	r12, r5, asr #21
    19fa:	f000 80e2 	beq.w	1bc2 <__adddf3+0x1ee>
    19fe:	ea4f 5454 	mov.w	r4, r4, lsr #21
    1a02:	ebd4 5555 	rsbs	r5, r4, r5, lsr #21
    1a06:	bfb8      	it	lt
    1a08:	426d      	neglt	r5, r5
    1a0a:	dd0c      	ble.n	1a26 <__adddf3+0x52>
    1a0c:	442c      	add	r4, r5
    1a0e:	ea80 0202 	eor.w	r2, r0, r2
    1a12:	ea81 0303 	eor.w	r3, r1, r3
    1a16:	ea82 0000 	eor.w	r0, r2, r0
    1a1a:	ea83 0101 	eor.w	r1, r3, r1
    1a1e:	ea80 0202 	eor.w	r2, r0, r2
    1a22:	ea81 0303 	eor.w	r3, r1, r3
    1a26:	2d36      	cmp	r5, #54	; 0x36
    1a28:	bf88      	it	hi
    1a2a:	bd30      	pophi	{r4, r5, pc}
    1a2c:	f011 4f00 	tst.w	r1, #2147483648	; 0x80000000
    1a30:	ea4f 3101 	mov.w	r1, r1, lsl #12
    1a34:	f44f 1c80 	mov.w	r12, #1048576	; 0x100000
    1a38:	ea4c 3111 	orr.w	r1, r12, r1, lsr #12
    1a3c:	d002      	beq.n	1a44 <__adddf3+0x70>
    1a3e:	4240      	negs	r0, r0
    1a40:	eb61 0141 	sbc.w	r1, r1, r1, lsl #1
    1a44:	f013 4f00 	tst.w	r3, #2147483648	; 0x80000000
    1a48:	ea4f 3303 	mov.w	r3, r3, lsl #12
    1a4c:	ea4c 3313 	orr.w	r3, r12, r3, lsr #12
    1a50:	d002      	beq.n	1a58 <__adddf3+0x84>
    1a52:	4252      	negs	r2, r2
    1a54:	eb63 0343 	sbc.w	r3, r3, r3, lsl #1
    1a58:	ea94 0f05 	teq	r4, r5
    1a5c:	f000 80a7 	beq.w	1bae <__adddf3+0x1da>
    1a60:	f1a4 0401 	sub.w	r4, r4, #1
    1a64:	f1d5 0e20 	rsbs	lr, r5, #32
    1a68:	db0d      	blt.n	1a86 <__adddf3+0xb2>
    1a6a:	fa02 fc0e 	lsl.w	r12, r2, lr
    1a6e:	fa22 f205 	lsr.w	r2, r2, r5
    1a72:	1880      	adds	r0, r0, r2
    1a74:	f141 0100 	adc.w	r1, r1, #0
    1a78:	fa03 f20e 	lsl.w	r2, r3, lr
    1a7c:	1880      	adds	r0, r0, r2
    1a7e:	fa43 f305 	asr.w	r3, r3, r5
    1a82:	4159      	adcs	r1, r3
    1a84:	e00e      	b.n	1aa4 <__adddf3+0xd0>
    1a86:	f1a5 0520 	sub.w	r5, r5, #32
    1a8a:	f10e 0e20 	add.w	lr, lr, #32
    1a8e:	2a01      	cmp	r2, #1
    1a90:	fa03 fc0e 	lsl.w	r12, r3, lr
    1a94:	bf28      	it	cs
    1a96:	f04c 0c02 	orrcs.w	r12, r12, #2
    1a9a:	fa43 f305 	asr.w	r3, r3, r5
    1a9e:	18c0      	adds	r0, r0, r3
    1aa0:	eb51 71e3 	adcs.w	r1, r1, r3, asr #31
    1aa4:	f001 4500 	and.w	r5, r1, #2147483648	; 0x80000000
    1aa8:	d507      	bpl.n	1aba <__adddf3+0xe6>
    1aaa:	f04f 0e00 	mov.w	lr, #0
    1aae:	f1dc 0c00 	rsbs	r12, r12, #0
    1ab2:	eb7e 0000 	sbcs.w	r0, lr, r0
    1ab6:	eb6e 0101 	sbc.w	r1, lr, r1
    1aba:	f5b1 1f80 	cmp.w	r1, #1048576	; 0x100000
    1abe:	d31b      	bcc.n	1af8 <__adddf3+0x124>
    1ac0:	f5b1 1f00 	cmp.w	r1, #2097152	; 0x200000
    1ac4:	d30c      	bcc.n	1ae0 <__adddf3+0x10c>
    1ac6:	0849      	lsrs	r1, r1, #1
    1ac8:	ea5f 0030 	movs.w	r0, r0, rrx
    1acc:	ea4f 0c3c 	mov.w	r12, r12, rrx
    1ad0:	f104 0401 	add.w	r4, r4, #1
    1ad4:	ea4f 5244 	mov.w	r2, r4, lsl #21
    1ad8:	f512 0f80 	cmn.w	r2, #4194304	; 0x400000
    1adc:	f080 809a 	bcs.w	1c14 <__adddf3+0x240>
    1ae0:	f1bc 4f00 	cmp.w	r12, #2147483648	; 0x80000000
    1ae4:	bf08      	it	eq
    1ae6:	ea5f 0c50 	movseq.w	r12, r0, lsr #1
    1aea:	f150 0000 	adcs.w	r0, r0, #0
    1aee:	eb41 5104 	adc.w	r1, r1, r4, lsl #20
    1af2:	ea41 0105 	orr.w	r1, r1, r5
    1af6:	bd30      	pop	{r4, r5, pc}
    1af8:	ea5f 0c4c 	movs.w	r12, r12, lsl #1
    1afc:	4140      	adcs	r0, r0
    1afe:	eb41 0101 	adc.w	r1, r1, r1
    1b02:	f411 1f80 	tst.w	r1, #1048576	; 0x100000
    1b06:	f1a4 0401 	sub.w	r4, r4, #1
    1b0a:	d1e9      	bne.n	1ae0 <__adddf3+0x10c>
    1b0c:	f091 0f00 	teq	r1, #0
    1b10:	bf04      	itt	eq
    1b12:	4601      	moveq	r1, r0
    1b14:	2000      	moveq	r0, #0
    1b16:	fab1 f381 	clz	r3, r1
    1b1a:	bf08      	it	eq
    1b1c:	3320      	addeq	r3, #32
    1b1e:	f1a3 030b 	sub.w	r3, r3, #11
    1b22:	f1b3 0220 	subs.w	r2, r3, #32
    1b26:	da0c      	bge.n	1b42 <__adddf3+0x16e>
    1b28:	320c      	adds	r2, #12
    1b2a:	dd08      	ble.n	1b3e <__adddf3+0x16a>
    1b2c:	f102 0c14 	add.w	r12, r2, #20
    1b30:	f1c2 020c 	rsb	r2, r2, #12
    1b34:	fa01 f00c 	lsl.w	r0, r1, r12
    1b38:	fa21 f102 	lsr.w	r1, r1, r2
    1b3c:	e00c      	b.n	1b58 <__adddf3+0x184>
    1b3e:	f102 0214 	add.w	r2, r2, #20
    1b42:	bfd8      	it	le
    1b44:	f1c2 0c20 	rsble	r12, r2, #32
    1b48:	fa01 f102 	lsl.w	r1, r1, r2
    1b4c:	fa20 fc0c 	lsr.w	r12, r0, r12
    1b50:	bfdc      	itt	le
    1b52:	ea41 010c 	orrle.w	r1, r1, r12
    1b56:	4090      	lslle	r0, r2
    1b58:	1ae4      	subs	r4, r4, r3
    1b5a:	bfa2      	ittt	ge
    1b5c:	eb01 5104 	addge.w	r1, r1, r4, lsl #20
    1b60:	4329      	orrge	r1, r5
    1b62:	bd30      	popge	{r4, r5, pc}
    1b64:	ea6f 0404 	mvn.w	r4, r4
    1b68:	3c1f      	subs	r4, #31
    1b6a:	da1c      	bge.n	1ba6 <__adddf3+0x1d2>
    1b6c:	340c      	adds	r4, #12
    1b6e:	dc0e      	bgt.n	1b8e <__adddf3+0x1ba>
    1b70:	f104 0414 	add.w	r4, r4, #20
    1b74:	f1c4 0220 	rsb	r2, r4, #32
    1b78:	fa20 f004 	lsr.w	r0, r0, r4
    1b7c:	fa01 f302 	lsl.w	r3, r1, r2
    1b80:	ea40 0003 	orr.w	r0, r0, r3
    1b84:	fa21 f304 	lsr.w	r3, r1, r4
    1b88:	ea45 0103 	orr.w	r1, r5, r3
    1b8c:	bd30      	pop	{r4, r5, pc}
    1b8e:	f1c4 040c 	rsb	r4, r4, #12
    1b92:	f1c4 0220 	rsb	r2, r4, #32
    1b96:	fa20 f002 	lsr.w	r0, r0, r2
    1b9a:	fa01 f304 	lsl.w	r3, r1, r4
    1b9e:	ea40 0003 	orr.w	r0, r0, r3
    1ba2:	4629      	mov	r1, r5
    1ba4:	bd30      	pop	{r4, r5, pc}
    1ba6:	fa21 f004 	lsr.w	r0, r1, r4
    1baa:	4629      	mov	r1, r5
    1bac:	bd30      	pop	{r4, r5, pc}
    1bae:	f094 0f00 	teq	r4, #0
    1bb2:	f483 1380 	eor.w	r3, r3, #1048576	; 0x100000
    1bb6:	bf06      	itte	eq
    1bb8:	f481 1180 	eoreq.w	r1, r1, #1048576	; 0x100000
    1bbc:	3401      	addeq	r4, #1
    1bbe:	3d01      	subne	r5, #1
    1bc0:	e74e      	b.n	1a60 <__adddf3+0x8c>
    1bc2:	ea7f 5c64 	mvns.w	r12, r4, asr #21
    1bc6:	bf18      	it	ne
    1bc8:	ea7f 5c65 	mvnsne.w	r12, r5, asr #21
    1bcc:	d029      	beq.n	1c22 <__adddf3+0x24e>
    1bce:	ea94 0f05 	teq	r4, r5
    1bd2:	bf08      	it	eq
    1bd4:	ea90 0f02 	teqeq	r0, r2
    1bd8:	d005      	beq.n	1be6 <__adddf3+0x212>
    1bda:	ea54 0c00 	orrs.w	r12, r4, r0
    1bde:	bf04      	itt	eq
    1be0:	4619      	moveq	r1, r3
    1be2:	4610      	moveq	r0, r2
    1be4:	bd30      	pop	{r4, r5, pc}
    1be6:	ea91 0f03 	teq	r1, r3
    1bea:	bf1e      	ittt	ne
    1bec:	2100      	movne	r1, #0
    1bee:	2000      	movne	r0, #0
    1bf0:	bd30      	popne	{r4, r5, pc}
    1bf2:	ea5f 5c54 	movs.w	r12, r4, lsr #21
    1bf6:	d105      	bne.n	1c04 <__adddf3+0x230>
    1bf8:	0040      	lsls	r0, r0, #1
    1bfa:	4149      	adcs	r1, r1
    1bfc:	bf28      	it	cs
    1bfe:	f041 4100 	orrcs.w	r1, r1, #2147483648	; 0x80000000
    1c02:	bd30      	pop	{r4, r5, pc}
    1c04:	f514 0480 	adds.w	r4, r4, #4194304	; 0x400000
    1c08:	bf3c      	itt	cc
    1c0a:	f501 1180 	addcc.w	r1, r1, #1048576	; 0x100000
    1c0e:	bd30      	popcc	{r4, r5, pc}
    1c10:	f001 4500 	and.w	r5, r1, #2147483648	; 0x80000000
    1c14:	f045 41fe 	orr.w	r1, r5, #2130706432	; 0x7f000000
    1c18:	f441 0170 	orr.w	r1, r1, #15728640	; 0xf00000
    1c1c:	f04f 0000 	mov.w	r0, #0
    1c20:	bd30      	pop	{r4, r5, pc}
    1c22:	ea7f 5c64 	mvns.w	r12, r4, asr #21
    1c26:	bf1a      	itte	ne
    1c28:	4619      	movne	r1, r3
    1c2a:	4610      	movne	r0, r2
    1c2c:	ea7f 5c65 	mvnseq.w	r12, r5, asr #21
    1c30:	bf1c      	itt	ne
    1c32:	460b      	movne	r3, r1
    1c34:	4602      	movne	r2, r0
    1c36:	ea50 3401 	orrs.w	r4, r0, r1, lsl #12
    1c3a:	bf06      	itte	eq
    1c3c:	ea52 3503 	orrseq.w	r5, r2, r3, lsl #12
    1c40:	ea91 0f03 	teqeq	r1, r3
    1c44:	f441 2100 	orrne.w	r1, r1, #524288	; 0x80000
    1c48:	bd30      	pop	{r4, r5, pc}
    1c4a:	bf00      	nop

00001c4c <__aeabi_ui2d>:
    1c4c:	f090 0f00 	teq	r0, #0
    1c50:	bf04      	itt	eq
    1c52:	2100      	moveq	r1, #0
    1c54:	4770      	bxeq	lr
    1c56:	b530      	push	{r4, r5, lr}
    1c58:	f44f 6480 	mov.w	r4, #1024	; 0x400
    1c5c:	f104 0432 	add.w	r4, r4, #50	; 0x32
    1c60:	f04f 0500 	mov.w	r5, #0
    1c64:	f04f 0100 	mov.w	r1, #0
    1c68:	e750      	b.n	1b0c <__adddf3+0x138>
    1c6a:	bf00      	nop

00001c6c <__aeabi_i2d>:
    1c6c:	f090 0f00 	teq	r0, #0
    1c70:	bf04      	itt	eq
    1c72:	2100      	moveq	r1, #0
    1c74:	4770      	bxeq	lr
    1c76:	b530      	push	{r4, r5, lr}
    1c78:	f44f 6480 	mov.w	r4, #1024	; 0x400
    1c7c:	f104 0432 	add.w	r4, r4, #50	; 0x32
    1c80:	f010 4500 	ands.w	r5, r0, #2147483648	; 0x80000000
    1c84:	bf48      	it	mi
    1c86:	4240      	negmi	r0, r0
    1c88:	f04f 0100 	mov.w	r1, #0
    1c8c:	e73e      	b.n	1b0c <__adddf3+0x138>
    1c8e:	bf00      	nop

00001c90 <__aeabi_f2d>:
    1c90:	0042      	lsls	r2, r0, #1
    1c92:	ea4f 01e2 	mov.w	r1, r2, asr #3
    1c96:	ea4f 0131 	mov.w	r1, r1, rrx
    1c9a:	ea4f 7002 	mov.w	r0, r2, lsl #28
    1c9e:	bf1f      	itttt	ne
    1ca0:	f012 437f 	andsne.w	r3, r2, #4278190080	; 0xff000000
    1ca4:	f093 4f7f 	teqne	r3, #4278190080	; 0xff000000
    1ca8:	f081 5160 	eorne.w	r1, r1, #939524096	; 0x38000000
    1cac:	4770      	bxne	lr
    1cae:	f092 0f00 	teq	r2, #0
    1cb2:	bf14      	ite	ne
    1cb4:	f093 4f7f 	teqne	r3, #4278190080	; 0xff000000
    1cb8:	4770      	bxeq	lr
    1cba:	b530      	push	{r4, r5, lr}
    1cbc:	f44f 7460 	mov.w	r4, #896	; 0x380
    1cc0:	f001 4500 	and.w	r5, r1, #2147483648	; 0x80000000
    1cc4:	f021 4100 	bic.w	r1, r1, #2147483648	; 0x80000000
    1cc8:	e720      	b.n	1b0c <__adddf3+0x138>
    1cca:	bf00      	nop

00001ccc <__aeabi_ul2d>:
    1ccc:	ea50 0201 	orrs.w	r2, r0, r1
    1cd0:	bf08      	it	eq
    1cd2:	4770      	bxeq	lr
    1cd4:	b530      	push	{r4, r5, lr}
    1cd6:	f04f 0500 	mov.w	r5, #0
    1cda:	e00a      	b.n	1cf2 <__aeabi_l2d+0x16>

00001cdc <__aeabi_l2d>:
    1cdc:	ea50 0201 	orrs.w	r2, r0, r1
    1ce0:	bf08      	it	eq
    1ce2:	4770      	bxeq	lr
    1ce4:	b530      	push	{r4, r5, lr}
    1ce6:	f011 4500 	ands.w	r5, r1, #2147483648	; 0x80000000
    1cea:	d502      	bpl.n	1cf2 <__aeabi_l2d+0x16>
    1cec:	4240      	negs	r0, r0
    1cee:	eb61 0141 	sbc.w	r1, r1, r1, lsl #1
    1cf2:	f44f 6480 	mov.w	r4, #1024	; 0x400
    1cf6:	f104 0432 	add.w	r4, r4, #50	; 0x32
    1cfa:	ea5f 5c91 	movs.w	r12, r1, lsr #22
    1cfe:	f43f aedc 	beq.w	1aba <__adddf3+0xe6>
    1d02:	f04f 0203 	mov.w	r2, #3
    1d06:	ea5f 0cdc 	movs.w	r12, r12, lsr #3
    1d0a:	bf18      	it	ne
    1d0c:	3203      	addne	r2, #3
    1d0e:	ea5f 0cdc 	movs.w	r12, r12, lsr #3
    1d12:	bf18      	it	ne
    1d14:	3203      	addne	r2, #3
    1d16:	eb02 02dc 	add.w	r2, r2, r12, lsr #3
    1d1a:	f1c2 0320 	rsb	r3, r2, #32
    1d1e:	fa00 fc03 	lsl.w	r12, r0, r3
    1d22:	fa20 f002 	lsr.w	r0, r0, r2
    1d26:	fa01 fe03 	lsl.w	lr, r1, r3
    1d2a:	ea40 000e 	orr.w	r0, r0, lr
    1d2e:	fa21 f102 	lsr.w	r1, r1, r2
    1d32:	4414      	add	r4, r2
    1d34:	e6c1      	b.n	1aba <__adddf3+0xe6>
    1d36:	bf00      	nop

00001d38 <__aeabi_d2iz>:
    1d38:	ea4f 0241 	mov.w	r2, r1, lsl #1
    1d3c:	f512 1200 	adds.w	r2, r2, #2097152	; 0x200000
    1d40:	d215      	bcs.n	1d6e <__aeabi_d2iz+0x36>
    1d42:	d511      	bpl.n	1d68 <__aeabi_d2iz+0x30>
    1d44:	f46f 7378 	mvn.w	r3, #992	; 0x3e0
    1d48:	ebb3 5262 	subs.w	r2, r3, r2, asr #21
    1d4c:	d912      	bls.n	1d74 <__aeabi_d2iz+0x3c>
    1d4e:	ea4f 23c1 	mov.w	r3, r1, lsl #11
    1d52:	f043 4300 	orr.w	r3, r3, #2147483648	; 0x80000000
    1d56:	ea43 5350 	orr.w	r3, r3, r0, lsr #21
    1d5a:	f011 4f00 	tst.w	r1, #2147483648	; 0x80000000
    1d5e:	fa23 f002 	lsr.w	r0, r3, r2
    1d62:	bf18      	it	ne
    1d64:	4240      	negne	r0, r0
    1d66:	4770      	bx	lr
    1d68:	f04f 0000 	mov.w	r0, #0
    1d6c:	4770      	bx	lr
    1d6e:	ea50 3001 	orrs.w	r0, r0, r1, lsl #12
    1d72:	d105      	bne.n	1d80 <__aeabi_d2iz+0x48>
    1d74:	f011 4000 	ands.w	r0, r1, #2147483648	; 0x80000000
    1d78:	bf08      	it	eq
    1d7a:	f06f 4000 	mvneq.w	r0, #2147483648	; 0x80000000
    1d7e:	4770      	bx	lr
    1d80:	f04f 0000 	mov.w	r0, #0
    1d84:	4770      	bx	lr
    1d86:	bf00      	nop

00001d88 <__aeabi_frsub>:
    1d88:	f080 4000 	eor.w	r0, r0, #2147483648	; 0x80000000
    1d8c:	e002      	b.n	1d94 <__addsf3>
    1d8e:	bf00      	nop

00001d90 <__aeabi_fsub>:
    1d90:	f081 4100 	eor.w	r1, r1, #2147483648	; 0x80000000

00001d94 <__addsf3>:
    1d94:	0042      	lsls	r2, r0, #1
    1d96:	bf1f      	itttt	ne
    1d98:	ea5f 0341 	movsne.w	r3, r1, lsl #1
    1d9c:	ea92 0f03 	teqne	r2, r3
    1da0:	ea7f 6c22 	mvnsne.w	r12, r2, asr #24
    1da4:	ea7f 6c23 	mvnsne.w	r12, r3, asr #24
    1da8:	d06a      	beq.n	1e80 <__addsf3+0xec>
    1daa:	ea4f 6212 	mov.w	r2, r2, lsr #24
    1dae:	ebd2 6313 	rsbs	r3, r2, r3, lsr #24
    1db2:	bfc1      	itttt	gt
    1db4:	18d2      	addgt	r2, r2, r3
    1db6:	4041      	eorgt	r1, r0
    1db8:	4048      	eorgt	r0, r1
    1dba:	4041      	eorgt	r1, r0
    1dbc:	bfb8      	it	lt
    1dbe:	425b      	neglt	r3, r3
    1dc0:	2b19      	cmp	r3, #25
    1dc2:	bf88      	it	hi
    1dc4:	4770      	bxhi	lr
    1dc6:	f010 4f00 	tst.w	r0, #2147483648	; 0x80000000
    1dca:	f440 0000 	orr.w	r0, r0, #8388608	; 0x800000
    1dce:	f020 407f 	bic.w	r0, r0, #4278190080	; 0xff000000
    1dd2:	bf18      	it	ne
    1dd4:	4240      	negne	r0, r0
    1dd6:	f011 4f00 	tst.w	r1, #2147483648	; 0x80000000
    1dda:	f441 0100 	orr.w	r1, r1, #8388608	; 0x800000
    1dde:	f021 417f 	bic.w	r1, r1, #4278190080	; 0xff000000
    1de2:	bf18      	it	ne
    1de4:	4249      	negne	r1, r1
    1de6:	ea92 0f03 	teq	r2, r3
    1dea:	d03f      	beq.n	1e6c <__addsf3+0xd8>
    1dec:	f1a2 0201 	sub.w	r2, r2, #1
    1df0:	fa41 fc03 	asr.w	r12, r1, r3
    1df4:	eb10 000c 	adds.w	r0, r0, r12
    1df8:	f1c3 0320 	rsb	r3, r3, #32
    1dfc:	fa01 f103 	lsl.w	r1, r1, r3
    1e00:	f000 4300 	and.w	r3, r0, #2147483648	; 0x80000000
    1e04:	d502      	bpl.n	1e0c <__addsf3+0x78>
    1e06:	4249      	negs	r1, r1
    1e08:	eb60 0040 	sbc.w	r0, r0, r0, lsl #1
    1e0c:	f5b0 0f00 	cmp.w	r0, #8388608	; 0x800000
    1e10:	d313      	bcc.n	1e3a <__addsf3+0xa6>
    1e12:	f1b0 7f80 	cmp.w	r0, #16777216	; 0x1000000
    1e16:	d306      	bcc.n	1e26 <__addsf3+0x92>
    1e18:	0840      	lsrs	r0, r0, #1
    1e1a:	ea4f 0131 	mov.w	r1, r1, rrx
    1e1e:	f102 0201 	add.w	r2, r2, #1
    1e22:	2afe      	cmp	r2, #254	; 0xfe
    1e24:	d251      	bcs.n	1eca <__addsf3+0x136>
    1e26:	f1b1 4f00 	cmp.w	r1, #2147483648	; 0x80000000
    1e2a:	eb40 50c2 	adc.w	r0, r0, r2, lsl #23
    1e2e:	bf08      	it	eq
    1e30:	f020 0001 	biceq.w	r0, r0, #1
    1e34:	ea40 0003 	orr.w	r0, r0, r3
    1e38:	4770      	bx	lr
    1e3a:	0049      	lsls	r1, r1, #1
    1e3c:	eb40 0000 	adc.w	r0, r0, r0
    1e40:	f410 0f00 	tst.w	r0, #8388608	; 0x800000
    1e44:	f1a2 0201 	sub.w	r2, r2, #1
    1e48:	d1ed      	bne.n	1e26 <__addsf3+0x92>
    1e4a:	fab0 fc80 	clz	r12, r0
    1e4e:	f1ac 0c08 	sub.w	r12, r12, #8
    1e52:	ebb2 020c 	subs.w	r2, r2, r12
    1e56:	fa00 f00c 	lsl.w	r0, r0, r12
    1e5a:	bfaa      	itet	ge
    1e5c:	eb00 50c2 	addge.w	r0, r0, r2, lsl #23
    1e60:	4252      	neglt	r2, r2
    1e62:	4318      	orrge	r0, r3
    1e64:	bfbc      	itt	lt
    1e66:	40d0      	lsrlt	r0, r2
    1e68:	4318      	orrlt	r0, r3
    1e6a:	4770      	bx	lr
    1e6c:	f092 0f00 	teq	r2, #0
    1e70:	f481 0100 	eor.w	r1, r1, #8388608	; 0x800000
    1e74:	bf06      	itte	eq
    1e76:	f480 0000 	eoreq.w	r0, r0, #8388608	; 0x800000
    1e7a:	3201      	addeq	r2, #1
    1e7c:	3b01      	subne	r3, #1
    1e7e:	e7b5      	b.n	1dec <__addsf3+0x58>
    1e80:	ea4f 0341 	mov.w	r3, r1, lsl #1
    1e84:	ea7f 6c22 	mvns.w	r12, r2, asr #24
    1e88:	bf18      	it	ne
    1e8a:	ea7f 6c23 	mvnsne.w	r12, r3, asr #24
    1e8e:	d021      	beq.n	1ed4 <__addsf3+0x140>
    1e90:	ea92 0f03 	teq	r2, r3
    1e94:	d004      	beq.n	1ea0 <__addsf3+0x10c>
    1e96:	f092 0f00 	teq	r2, #0
    1e9a:	bf08      	it	eq
    1e9c:	4608      	moveq	r0, r1
    1e9e:	4770      	bx	lr
    1ea0:	ea90 0f01 	teq	r0, r1
    1ea4:	bf1c      	itt	ne
    1ea6:	2000      	movne	r0, #0
    1ea8:	4770      	bxne	lr
    1eaa:	f012 4f7f 	tst.w	r2, #4278190080	; 0xff000000
    1eae:	d104      	bne.n	1eba <__addsf3+0x126>
    1eb0:	0040      	lsls	r0, r0, #1
    1eb2:	bf28      	it	cs
    1eb4:	f040 4000 	orrcs.w	r0, r0, #2147483648	; 0x80000000
    1eb8:	4770      	bx	lr
    1eba:	f112 7200 	adds.w	r2, r2, #33554432	; 0x2000000
    1ebe:	bf3c      	itt	cc
    1ec0:	f500 0000 	addcc.w	r0, r0, #8388608	; 0x800000
    1ec4:	4770      	bxcc	lr
    1ec6:	f000 4300 	and.w	r3, r0, #2147483648	; 0x80000000
    1eca:	f043 40fe 	orr.w	r0, r3, #2130706432	; 0x7f000000
    1ece:	f440 0000 	orr.w	r0, r0, #8388608	; 0x800000
    1ed2:	4770      	bx	lr
    1ed4:	ea7f 6222 	mvns.w	r2, r2, asr #24
    1ed8:	bf16      	itet	ne
    1eda:	4608      	movne	r0, r1
    1edc:	ea7f 6323 	mvnseq.w	r3, r3, asr #24
    1ee0:	4601      	movne	r1, r0
    1ee2:	0242      	lsls	r2, r0, #9
    1ee4:	bf06      	itte	eq
    1ee6:	ea5f 2341 	movseq.w	r3, r1, lsl #9
    1eea:	ea90 0f01 	teqeq	r0, r1
    1eee:	f440 0080 	orrne.w	r0, r0, #4194304	; 0x400000
    1ef2:	4770      	bx	lr

00001ef4 <__aeabi_ui2f>:
    1ef4:	f04f 0300 	mov.w	r3, #0
    1ef8:	e004      	b.n	1f04 <__aeabi_i2f+0x8>
    1efa:	bf00      	nop

00001efc <__aeabi_i2f>:
    1efc:	f010 4300 	ands.w	r3, r0, #2147483648	; 0x80000000
    1f00:	bf48      	it	mi
    1f02:	4240      	negmi	r0, r0
    1f04:	ea5f 0c00 	movs.w	r12, r0
    1f08:	bf08      	it	eq
    1f0a:	4770      	bxeq	lr
    1f0c:	f043 4396 	orr.w	r3, r3, #1258291200	; 0x4b000000
    1f10:	4601      	mov	r1, r0
    1f12:	f04f 0000 	mov.w	r0, #0
    1f16:	e01c      	b.n	1f52 <__aeabi_l2f+0x2a>

00001f18 <__aeabi_ul2f>:
    1f18:	ea50 0201 	orrs.w	r2, r0, r1
    1f1c:	bf08      	it	eq
    1f1e:	4770      	bxeq	lr
    1f20:	f04f 0300 	mov.w	r3, #0
    1f24:	e00a      	b.n	1f3c <__aeabi_l2f+0x14>
    1f26:	bf00      	nop

00001f28 <__aeabi_l2f>:
    1f28:	ea50 0201 	orrs.w	r2, r0, r1
    1f2c:	bf08      	it	eq
    1f2e:	4770      	bxeq	lr
    1f30:	f011 4300 	ands.w	r3, r1, #2147483648	; 0x80000000
    1f34:	d502      	bpl.n	1f3c <__aeabi_l2f+0x14>
    1f36:	4240      	negs	r0, r0
    1f38:	eb61 0141 	sbc.w	r1, r1, r1, lsl #1
    1f3c:	ea5f 0c01 	movs.w	r12, r1
    1f40:	bf02      	ittt	eq
    1f42:	4684      	moveq	r12, r0
    1f44:	4601      	moveq	r1, r0
    1f46:	2000      	moveq	r0, #0
    1f48:	f043 43b6 	orr.w	r3, r3, #1526726656	; 0x5b000000
    1f4c:	bf08      	it	eq
    1f4e:	f1a3 5380 	subeq.w	r3, r3, #268435456	; 0x10000000
    1f52:	f5a3 0300 	sub.w	r3, r3, #8388608	; 0x800000
    1f56:	fabc f28c 	clz	r2, r12
    1f5a:	3a08      	subs	r2, #8
    1f5c:	eba3 53c2 	sub.w	r3, r3, r2, lsl #23
    1f60:	db10      	blt.n	1f84 <__aeabi_l2f+0x5c>
    1f62:	fa01 fc02 	lsl.w	r12, r1, r2
    1f66:	4463      	add	r3, r12
    1f68:	fa00 fc02 	lsl.w	r12, r0, r2
    1f6c:	f1c2 0220 	rsb	r2, r2, #32
    1f70:	f1bc 4f00 	cmp.w	r12, #2147483648	; 0x80000000
    1f74:	fa20 f202 	lsr.w	r2, r0, r2
    1f78:	eb43 0002 	adc.w	r0, r3, r2
    1f7c:	bf08      	it	eq
    1f7e:	f020 0001 	biceq.w	r0, r0, #1
    1f82:	4770      	bx	lr
    1f84:	f102 0220 	add.w	r2, r2, #32
    1f88:	fa01 fc02 	lsl.w	r12, r1, r2
    1f8c:	f1c2 0220 	rsb	r2, r2, #32
    1f90:	ea50 004c 	orrs.w	r0, r0, r12, lsl #1
    1f94:	fa21 f202 	lsr.w	r2, r1, r2
    1f98:	eb43 0002 	adc.w	r0, r3, r2
    1f9c:	bf08      	it	eq
    1f9e:	ea20 70dc 	biceq.w	r0, r0, r12, lsr #31
    1fa2:	4770      	bx	lr

00001fa4 <__aeabi_fmul>:
    1fa4:	f04f 0cff 	mov.w	r12, #255	; 0xff
    1fa8:	ea1c 52d0 	ands.w	r2, r12, r0, lsr #23
    1fac:	bf1e      	ittt	ne
    1fae:	ea1c 53d1 	andsne.w	r3, r12, r1, lsr #23
    1fb2:	ea92 0f0c 	teqne	r2, r12
    1fb6:	ea93 0f0c 	teqne	r3, r12
    1fba:	d06f      	beq.n	209c <__aeabi_fmul+0xf8>
    1fbc:	441a      	add	r2, r3
    1fbe:	ea80 0c01 	eor.w	r12, r0, r1
    1fc2:	0240      	lsls	r0, r0, #9
    1fc4:	bf18      	it	ne
    1fc6:	ea5f 2141 	movsne.w	r1, r1, lsl #9
    1fca:	d01e      	beq.n	200a <__aeabi_fmul+0x66>
    1fcc:	f04f 6300 	mov.w	r3, #134217728	; 0x8000000
    1fd0:	ea43 1050 	orr.w	r0, r3, r0, lsr #5
    1fd4:	ea43 1151 	orr.w	r1, r3, r1, lsr #5
    1fd8:	fba0 3101 	umull	r3, r1, r0, r1
    1fdc:	f00c 4000 	and.w	r0, r12, #2147483648	; 0x80000000
    1fe0:	f5b1 0f00 	cmp.w	r1, #8388608	; 0x800000
    1fe4:	bf3e      	ittt	cc
    1fe6:	0049      	lslcc	r1, r1, #1
    1fe8:	ea41 71d3 	orrcc.w	r1, r1, r3, lsr #31
    1fec:	005b      	lslcc	r3, r3, #1
    1fee:	ea40 0001 	orr.w	r0, r0, r1
    1ff2:	f162 027f 	sbc.w	r2, r2, #127	; 0x7f
    1ff6:	2afd      	cmp	r2, #253	; 0xfd
    1ff8:	d81d      	bhi.n	2036 <__aeabi_fmul+0x92>
    1ffa:	f1b3 4f00 	cmp.w	r3, #2147483648	; 0x80000000
    1ffe:	eb40 50c2 	adc.w	r0, r0, r2, lsl #23
    2002:	bf08      	it	eq
    2004:	f020 0001 	biceq.w	r0, r0, #1
    2008:	4770      	bx	lr
    200a:	f090 0f00 	teq	r0, #0
    200e:	f00c 4c00 	and.w	r12, r12, #2147483648	; 0x80000000
    2012:	bf08      	it	eq
    2014:	0249      	lsleq	r1, r1, #9
    2016:	ea4c 2050 	orr.w	r0, r12, r0, lsr #9
    201a:	ea40 2051 	orr.w	r0, r0, r1, lsr #9
    201e:	3a7f      	subs	r2, #127	; 0x7f
    2020:	bfc2      	ittt	gt
    2022:	f1d2 03ff 	rsbsgt	r3, r2, #255	; 0xff
    2026:	ea40 50c2 	orrgt.w	r0, r0, r2, lsl #23
    202a:	4770      	bxgt	lr
    202c:	f440 0000 	orr.w	r0, r0, #8388608	; 0x800000
    2030:	f04f 0300 	mov.w	r3, #0
    2034:	3a01      	subs	r2, #1
    2036:	dc5d      	bgt.n	20f4 <__aeabi_fmul+0x150>
    2038:	f112 0f19 	cmn.w	r2, #25
    203c:	bfdc      	itt	le
    203e:	f000 4000 	andle.w	r0, r0, #2147483648	; 0x80000000
    2042:	4770      	bxle	lr
    2044:	f1c2 0200 	rsb	r2, r2, #0
    2048:	0041      	lsls	r1, r0, #1
    204a:	fa21 f102 	lsr.w	r1, r1, r2
    204e:	f1c2 0220 	rsb	r2, r2, #32
    2052:	fa00 fc02 	lsl.w	r12, r0, r2
    2056:	ea5f 0031 	movs.w	r0, r1, rrx
    205a:	f140 0000 	adc.w	r0, r0, #0
    205e:	ea53 034c 	orrs.w	r3, r3, r12, lsl #1
    2062:	bf08      	it	eq
    2064:	ea20 70dc 	biceq.w	r0, r0, r12, lsr #31
    2068:	4770      	bx	lr
    206a:	f092 0f00 	teq	r2, #0
    206e:	f000 4c00 	and.w	r12, r0, #2147483648	; 0x80000000
    2072:	bf02      	ittt	eq
    2074:	0040      	lsleq	r0, r0, #1
    2076:	f410 0f00 	tsteq.w	r0, #8388608	; 0x800000
    207a:	3a01      	subeq	r2, #1
    207c:	d0f9      	beq.n	2072 <__aeabi_fmul+0xce>
    207e:	ea40 000c 	orr.w	r0, r0, r12
    2082:	f093 0f00 	teq	r3, #0
    2086:	f001 4c00 	and.w	r12, r1, #2147483648	; 0x80000000
    208a:	bf02      	ittt	eq
    208c:	0049      	lsleq	r1, r1, #1
    208e:	f411 0f00 	tsteq.w	r1, #8388608	; 0x800000
    2092:	3b01      	subeq	r3, #1
    2094:	d0f9      	beq.n	208a <__aeabi_fmul+0xe6>
    2096:	ea41 010c 	orr.w	r1, r1, r12
    209a:	e78f      	b.n	1fbc <__aeabi_fmul+0x18>
    209c:	ea0c 53d1 	and.w	r3, r12, r1, lsr #23
    20a0:	ea92 0f0c 	teq	r2, r12
    20a4:	bf18      	it	ne
    20a6:	ea93 0f0c 	teqne	r3, r12
    20aa:	d00a      	beq.n	20c2 <__aeabi_fmul+0x11e>
    20ac:	f030 4c00 	bics.w	r12, r0, #2147483648	; 0x80000000
    20b0:	bf18      	it	ne
    20b2:	f031 4c00 	bicsne.w	r12, r1, #2147483648	; 0x80000000
    20b6:	d1d8      	bne.n	206a <__aeabi_fmul+0xc6>
    20b8:	ea80 0001 	eor.w	r0, r0, r1
    20bc:	f000 4000 	and.w	r0, r0, #2147483648	; 0x80000000
    20c0:	4770      	bx	lr
    20c2:	f090 0f00 	teq	r0, #0
    20c6:	bf17      	itett	ne
    20c8:	f090 4f00 	teqne	r0, #2147483648	; 0x80000000
    20cc:	4608      	moveq	r0, r1
    20ce:	f091 0f00 	teqne	r1, #0
    20d2:	f091 4f00 	teqne	r1, #2147483648	; 0x80000000
    20d6:	d014      	beq.n	2102 <__aeabi_fmul+0x15e>
    20d8:	ea92 0f0c 	teq	r2, r12
    20dc:	d101      	bne.n	20e2 <__aeabi_fmul+0x13e>
    20de:	0242      	lsls	r2, r0, #9
    20e0:	d10f      	bne.n	2102 <__aeabi_fmul+0x15e>
    20e2:	ea93 0f0c 	teq	r3, r12
    20e6:	d103      	bne.n	20f0 <__aeabi_fmul+0x14c>
    20e8:	024b      	lsls	r3, r1, #9
    20ea:	bf18      	it	ne
    20ec:	4608      	movne	r0, r1
    20ee:	d108      	bne.n	2102 <__aeabi_fmul+0x15e>
    20f0:	ea80 0001 	eor.w	r0, r0, r1
    20f4:	f000 4000 	and.w	r0, r0, #2147483648	; 0x80000000
    20f8:	f040 40fe 	orr.w	r0, r0, #2130706432	; 0x7f000000
    20fc:	f440 0000 	orr.w	r0, r0, #8388608	; 0x800000
    2100:	4770      	bx	lr
    2102:	f040 40fe 	orr.w	r0, r0, #2130706432	; 0x7f000000
    2106:	f440 0040 	orr.w	r0, r0, #12582912	; 0xc00000
    210a:	4770      	bx	lr

0000210c <__aeabi_fdiv>:
    210c:	f04f 0cff 	mov.w	r12, #255	; 0xff
    2110:	ea1c 52d0 	ands.w	r2, r12, r0, lsr #23
    2114:	bf1e      	ittt	ne
    2116:	ea1c 53d1 	andsne.w	r3, r12, r1, lsr #23
    211a:	ea92 0f0c 	teqne	r2, r12
    211e:	ea93 0f0c 	teqne	r3, r12
    2122:	d069      	beq.n	21f8 <__aeabi_fdiv+0xec>
    2124:	eba2 0203 	sub.w	r2, r2, r3
    2128:	ea80 0c01 	eor.w	r12, r0, r1
    212c:	0249      	lsls	r1, r1, #9
    212e:	ea4f 2040 	mov.w	r0, r0, lsl #9
    2132:	d037      	beq.n	21a4 <__aeabi_fdiv+0x98>
    2134:	f04f 5380 	mov.w	r3, #268435456	; 0x10000000
    2138:	ea43 1111 	orr.w	r1, r3, r1, lsr #4
    213c:	ea43 1310 	orr.w	r3, r3, r0, lsr #4
    2140:	f00c 4000 	and.w	r0, r12, #2147483648	; 0x80000000
    2144:	428b      	cmp	r3, r1
    2146:	bf38      	it	cc
    2148:	005b      	lslcc	r3, r3, #1
    214a:	f142 027d 	adc.w	r2, r2, #125	; 0x7d
    214e:	f44f 0c00 	mov.w	r12, #8388608	; 0x800000
    2152:	428b      	cmp	r3, r1
    2154:	bf24      	itt	cs
    2156:	1a5b      	subcs	r3, r3, r1
    2158:	ea40 000c 	orrcs.w	r0, r0, r12
    215c:	ebb3 0f51 	cmp.w	r3, r1, lsr #1
    2160:	bf24      	itt	cs
    2162:	eba3 0351 	subcs.w	r3, r3, r1, lsr #1
    2166:	ea40 005c 	orrcs.w	r0, r0, r12, lsr #1
    216a:	ebb3 0f91 	cmp.w	r3, r1, lsr #2
    216e:	bf24      	itt	cs
    2170:	eba3 0391 	subcs.w	r3, r3, r1, lsr #2
    2174:	ea40 009c 	orrcs.w	r0, r0, r12, lsr #2
    2178:	ebb3 0fd1 	cmp.w	r3, r1, lsr #3
    217c:	bf24      	itt	cs
    217e:	eba3 03d1 	subcs.w	r3, r3, r1, lsr #3
    2182:	ea40 00dc 	orrcs.w	r0, r0, r12, lsr #3
    2186:	011b      	lsls	r3, r3, #4
    2188:	bf18      	it	ne
    218a:	ea5f 1c1c 	movsne.w	r12, r12, lsr #4
    218e:	d1e0      	bne.n	2152 <__aeabi_fdiv+0x46>
    2190:	2afd      	cmp	r2, #253	; 0xfd
    2192:	f63f af50 	bhi.w	2036 <__aeabi_fmul+0x92>
    2196:	428b      	cmp	r3, r1
    2198:	eb40 50c2 	adc.w	r0, r0, r2, lsl #23
    219c:	bf08      	it	eq
    219e:	f020 0001 	biceq.w	r0, r0, #1
    21a2:	4770      	bx	lr
    21a4:	f00c 4c00 	and.w	r12, r12, #2147483648	; 0x80000000
    21a8:	ea4c 2050 	orr.w	r0, r12, r0, lsr #9
    21ac:	327f      	adds	r2, #127	; 0x7f
    21ae:	bfc2      	ittt	gt
    21b0:	f1d2 03ff 	rsbsgt	r3, r2, #255	; 0xff
    21b4:	ea40 50c2 	orrgt.w	r0, r0, r2, lsl #23
    21b8:	4770      	bxgt	lr
    21ba:	f440 0000 	orr.w	r0, r0, #8388608	; 0x800000
    21be:	f04f 0300 	mov.w	r3, #0
    21c2:	3a01      	subs	r2, #1
    21c4:	e737      	b.n	2036 <__aeabi_fmul+0x92>
    21c6:	f092 0f00 	teq	r2, #0
    21ca:	f000 4c00 	and.w	r12, r0, #2147483648	; 0x80000000
    21ce:	bf02      	ittt	eq
    21d0:	0040      	lsleq	r0, r0, #1
    21d2:	f410 0f00 	tsteq.w	r0, #8388608	; 0x800000
    21d6:	3a01      	subeq	r2, #1
    21d8:	d0f9      	beq.n	21ce <__aeabi_fdiv+0xc2>
    21da:	ea40 000c 	orr.w	r0, r0, r12
    21de:	f093 0f00 	teq	r3, #0
    21e2:	f001 4c00 	and.w	r12, r1, #2147483648	; 0x80000000
    21e6:	bf02      	ittt	eq
    21e8:	0049      	lsleq	r1, r1, #1
    21ea:	f411 0f00 	tsteq.w	r1, #8388608	; 0x800000
    21ee:	3b01      	subeq	r3, #1
    21f0:	d0f9      	beq.n	21e6 <__aeabi_fdiv+0xda>
    21f2:	ea41 010c 	orr.w	r1, r1, r12
    21f6:	e795      	b.n	2124 <__aeabi_fdiv+0x18>
    21f8:	ea0c 53d1 	and.w	r3, r12, r1, lsr #23
    21fc:	ea92 0f0c 	teq	r2, r12
    2200:	d108      	bne.n	2214 <__aeabi_fdiv+0x108>
    2202:	0242      	lsls	r2, r0, #9
    2204:	f47f af7d 	bne.w	2102 <__aeabi_fmul+0x15e>
    2208:	ea93 0f0c 	teq	r3, r12
    220c:	f47f af70 	bne.w	20f0 <__aeabi_fmul+0x14c>
    2210:	4608      	mov	r0, r1
    2212:	e776      	b.n	2102 <__aeabi_fmul+0x15e>
    2214:	ea93 0f0c 	teq	r3, r12
    2218:	d104      	bne.n	2224 <__aeabi_fdiv+0x118>
    221a:	024b      	lsls	r3, r1, #9
    221c:	f43f af4c 	beq.w	20b8 <__aeabi_fmul+0x114>
    2220:	4608      	mov	r0, r1
    2222:	e76e      	b.n	2102 <__aeabi_fmul+0x15e>
    2224:	f030 4c00 	bics.w	r12, r0, #2147483648	; 0x80000000
    2228:	bf18      	it	ne
    222a:	f031 4c00 	bicsne.w	r12, r1, #2147483648	; 0x80000000
    222e:	d1ca      	bne.n	21c6 <__aeabi_fdiv+0xba>
    2230:	f030 4200 	bics.w	r2, r0, #2147483648	; 0x80000000
    2234:	f47f af5c 	bne.w	20f0 <__aeabi_fmul+0x14c>
    2238:	f031 4300 	bics.w	r3, r1, #2147483648	; 0x80000000
    223c:	f47f af3c 	bne.w	20b8 <__aeabi_fmul+0x114>
    2240:	e75f      	b.n	2102 <__aeabi_fmul+0x15e>
    2242:	bf00      	nop

00002244 <__gesf2>:
    2244:	f04f 3cff 	mov.w	r12, #4294967295	; 0xffffffff
    2248:	e006      	b.n	2258 <__cmpsf2+0x4>
    224a:	bf00      	nop

0000224c <__lesf2>:
    224c:	f04f 0c01 	mov.w	r12, #1
    2250:	e002      	b.n	2258 <__cmpsf2+0x4>
    2252:	bf00      	nop

00002254 <__cmpsf2>:
    2254:	f04f 0c01 	mov.w	r12, #1
    2258:	f84d cd04 	str.w	r12, [sp, #-4]!
    225c:	ea4f 0240 	mov.w	r2, r0, lsl #1
    2260:	ea4f 0341 	mov.w	r3, r1, lsl #1
    2264:	ea7f 6c22 	mvns.w	r12, r2, asr #24
    2268:	bf18      	it	ne
    226a:	ea7f 6c23 	mvnsne.w	r12, r3, asr #24
    226e:	d011      	beq.n	2294 <__cmpsf2+0x40>
    2270:	b001      	add	sp, #4
    2272:	ea52 0c53 	orrs.w	r12, r2, r3, lsr #1
    2276:	bf18      	it	ne
    2278:	ea90 0f01 	teqne	r0, r1
    227c:	bf58      	it	pl
    227e:	ebb2 0003 	subspl.w	r0, r2, r3
    2282:	bf88      	it	hi
    2284:	17c8      	asrhi	r0, r1, #31
    2286:	bf38      	it	cc
    2288:	ea6f 70e1 	mvncc.w	r0, r1, asr #31
    228c:	bf18      	it	ne
    228e:	f040 0001 	orrne.w	r0, r0, #1
    2292:	4770      	bx	lr
    2294:	ea7f 6c22 	mvns.w	r12, r2, asr #24
    2298:	d102      	bne.n	22a0 <__cmpsf2+0x4c>
    229a:	ea5f 2c40 	movs.w	r12, r0, lsl #9
    229e:	d105      	bne.n	22ac <__cmpsf2+0x58>
    22a0:	ea7f 6c23 	mvns.w	r12, r3, asr #24
    22a4:	d1e4      	bne.n	2270 <__cmpsf2+0x1c>
    22a6:	ea5f 2c41 	movs.w	r12, r1, lsl #9
    22aa:	d0e1      	beq.n	2270 <__cmpsf2+0x1c>
    22ac:	f85d 0b04 	ldr.w	r0, [sp], #4
    22b0:	4770      	bx	lr
    22b2:	bf00      	nop

000022b4 <__aeabi_cfrcmple>:
    22b4:	4684      	mov	r12, r0
    22b6:	4608      	mov	r0, r1
    22b8:	4661      	mov	r1, r12
    22ba:	e7ff      	b.n	22bc <__aeabi_cfcmpeq>

000022bc <__aeabi_cfcmpeq>:
    22bc:	b50f      	push	{r0, r1, r2, r3, lr}
    22be:	f7ff ffc9 	bl	2254 <__cmpsf2>
    22c2:	2800      	cmp	r0, #0
    22c4:	bf48      	it	mi
    22c6:	f110 0f00 	cmnmi.w	r0, #0
    22ca:	bd0f      	pop	{r0, r1, r2, r3, pc}

000022cc <__aeabi_fcmpeq>:
    22cc:	f84d ed08 	str.w	lr, [sp, #-8]!
    22d0:	f7ff fff4 	bl	22bc <__aeabi_cfcmpeq>
    22d4:	bf0c      	ite	eq
    22d6:	2001      	moveq	r0, #1
    22d8:	2000      	movne	r0, #0
    22da:	f85d fb08 	ldr.w	pc, [sp], #8
    22de:	bf00      	nop

000022e0 <__aeabi_fcmplt>:
    22e0:	f84d ed08 	str.w	lr, [sp, #-8]!
    22e4:	f7ff ffea 	bl	22bc <__aeabi_cfcmpeq>
    22e8:	bf34      	ite	cc
    22ea:	2001      	movcc	r0, #1
    22ec:	2000      	movcs	r0, #0
    22ee:	f85d fb08 	ldr.w	pc, [sp], #8
    22f2:	bf00      	nop

000022f4 <__aeabi_fcmple>:
    22f4:	f84d ed08 	str.w	lr, [sp, #-8]!
    22f8:	f7ff ffe0 	bl	22bc <__aeabi_cfcmpeq>
    22fc:	bf94      	ite	ls
    22fe:	2001      	movls	r0, #1
    2300:	2000      	movhi	r0, #0
    2302:	f85d fb08 	ldr.w	pc, [sp], #8
    2306:	bf00      	nop

00002308 <__aeabi_fcmpge>:
    2308:	f84d ed08 	str.w	lr, [sp, #-8]!
    230c:	f7ff ffd2 	bl	22b4 <__aeabi_cfrcmple>
    2310:	bf94      	ite	ls
    2312:	2001      	movls	r0, #1
    2314:	2000      	movhi	r0, #0
    2316:	f85d fb08 	ldr.w	pc, [sp], #8
    231a:	bf00      	nop

0000231c <__aeabi_fcmpgt>:
    231c:	f84d ed08 	str.w	lr, [sp, #-8]!
    2320:	f7ff ffc8 	bl	22b4 <__aeabi_cfrcmple>
    2324:	bf34      	ite	cc
    2326:	2001      	movcc	r0, #1
    2328:	2000      	movcs	r0, #0
    232a:	f85d fb08 	ldr.w	pc, [sp], #8
    232e:	bf00      	nop

00002330 <__aeabi_f2iz>:
    2330:	ea4f 0240 	mov.w	r2, r0, lsl #1
    2334:	f1b2 4ffe 	cmp.w	r2, #2130706432	; 0x7f000000
    2338:	d30f      	bcc.n	235a <__aeabi_f2iz+0x2a>
    233a:	f04f 039e 	mov.w	r3, #158	; 0x9e
    233e:	ebb3 6212 	subs.w	r2, r3, r2, lsr #24
    2342:	d90d      	bls.n	2360 <__aeabi_f2iz+0x30>
    2344:	ea4f 2300 	mov.w	r3, r0, lsl #8
    2348:	f043 4300 	orr.w	r3, r3, #2147483648	; 0x80000000
    234c:	f010 4f00 	tst.w	r0, #2147483648	; 0x80000000
    2350:	fa23 f002 	lsr.w	r0, r3, r2
    2354:	bf18      	it	ne
    2356:	4240      	negne	r0, r0
    2358:	4770      	bx	lr
    235a:	f04f 0000 	mov.w	r0, #0
    235e:	4770      	bx	lr
    2360:	f112 0f61 	cmn.w	r2, #97	; 0x61
    2364:	d101      	bne.n	236a <__aeabi_f2iz+0x3a>
    2366:	0242      	lsls	r2, r0, #9
    2368:	d105      	bne.n	2376 <__aeabi_f2iz+0x46>
    236a:	f010 4000 	ands.w	r0, r0, #2147483648	; 0x80000000
    236e:	bf08      	it	eq
    2370:	f06f 4000 	mvneq.w	r0, #2147483648	; 0x80000000
    2374:	4770      	bx	lr
    2376:	f04f 0000 	mov.w	r0, #0
    237a:	4770      	bx	lr

0000237c <__errno>:
    237c:	4b01      	ldr	r3, [pc, #4]	; (2384 <__errno+0x8>)
    237e:	6818      	ldr	r0, [r3, #0]
    2380:	4770      	bx	lr
    2382:	bf00      	nop
    2384:	100000d4 	.word	0x100000d4

00002388 <_fclose_r>:
    2388:	b570      	push	{r4, r5, r6, lr}
    238a:	4605      	mov	r5, r0
    238c:	460c      	mov	r4, r1
    238e:	b911      	cbnz	r1, 2396 <_fclose_r+0xe>
    2390:	2600      	movs	r6, #0
    2392:	4630      	mov	r0, r6
    2394:	bd70      	pop	{r4, r5, r6, pc}
    2396:	b118      	cbz	r0, 23a0 <_fclose_r+0x18>
    2398:	6983      	ldr	r3, [r0, #24]
    239a:	b90b      	cbnz	r3, 23a0 <_fclose_r+0x18>
    239c:	f000 f952 	bl	2644 <__sinit>
    23a0:	4b1f      	ldr	r3, [pc, #124]	; (2420 <_fclose_r+0x98>)
    23a2:	429c      	cmp	r4, r3
    23a4:	d132      	bne.n	240c <_fclose_r+0x84>
    23a6:	686c      	ldr	r4, [r5, #4]
    23a8:	f9b4 300c 	ldrsh.w	r3, [r4, #12]
    23ac:	2b00      	cmp	r3, #0
    23ae:	d0ef      	beq.n	2390 <_fclose_r+0x8>
    23b0:	4621      	mov	r1, r4
    23b2:	4628      	mov	r0, r5
    23b4:	f000 f842 	bl	243c <__sflush_r>
    23b8:	6b23      	ldr	r3, [r4, #48]	; 0x30
    23ba:	4606      	mov	r6, r0
    23bc:	b133      	cbz	r3, 23cc <_fclose_r+0x44>
    23be:	6a21      	ldr	r1, [r4, #32]
    23c0:	4628      	mov	r0, r5
    23c2:	4798      	blx	r3
    23c4:	2800      	cmp	r0, #0
    23c6:	bfb8      	it	lt
    23c8:	f04f 36ff 	movlt.w	r6, #4294967295	; 0xffffffff
    23cc:	89a3      	ldrh	r3, [r4, #12]
    23ce:	061b      	lsls	r3, r3, #24
    23d0:	d503      	bpl.n	23da <_fclose_r+0x52>
    23d2:	6921      	ldr	r1, [r4, #16]
    23d4:	4628      	mov	r0, r5
    23d6:	f7ff f897 	bl	1508 <__wrap__free_r>
    23da:	6b61      	ldr	r1, [r4, #52]	; 0x34
    23dc:	b141      	cbz	r1, 23f0 <_fclose_r+0x68>
    23de:	f104 0344 	add.w	r3, r4, #68	; 0x44
    23e2:	4299      	cmp	r1, r3
    23e4:	d002      	beq.n	23ec <_fclose_r+0x64>
    23e6:	4628      	mov	r0, r5
    23e8:	f7ff f88e 	bl	1508 <__wrap__free_r>
    23ec:	2300      	movs	r3, #0
    23ee:	6363      	str	r3, [r4, #52]	; 0x34
    23f0:	6ca1      	ldr	r1, [r4, #72]	; 0x48
    23f2:	b121      	cbz	r1, 23fe <_fclose_r+0x76>
    23f4:	4628      	mov	r0, r5
    23f6:	f7ff f887 	bl	1508 <__wrap__free_r>
    23fa:	2300      	movs	r3, #0
    23fc:	64a3      	str	r3, [r4, #72]	; 0x48
    23fe:	f000 f98d 	bl	271c <__sfp_lock_acquire>
    2402:	2300      	movs	r3, #0
    2404:	81a3      	strh	r3, [r4, #12]
    2406:	f000 f98a 	bl	271e <__sfp_lock_release>
    240a:	e7c2      	b.n	2392 <_fclose_r+0xa>
    240c:	4b05      	ldr	r3, [pc, #20]	; (2424 <_fclose_r+0x9c>)
    240e:	429c      	cmp	r4, r3
    2410:	d101      	bne.n	2416 <_fclose_r+0x8e>
    2412:	68ac      	ldr	r4, [r5, #8]
    2414:	e7c8      	b.n	23a8 <_fclose_r+0x20>
    2416:	4b04      	ldr	r3, [pc, #16]	; (2428 <_fclose_r+0xa0>)
    2418:	429c      	cmp	r4, r3
    241a:	bf08      	it	eq
    241c:	68ec      	ldreq	r4, [r5, #12]
    241e:	e7c3      	b.n	23a8 <_fclose_r+0x20>
    2420:	00006658 	.word	0x00006658
    2424:	00006678 	.word	0x00006678
    2428:	00006638 	.word	0x00006638

0000242c <fclose>:
    242c:	4b02      	ldr	r3, [pc, #8]	; (2438 <fclose+0xc>)
    242e:	4601      	mov	r1, r0
    2430:	6818      	ldr	r0, [r3, #0]
    2432:	f7ff bfa9 	b.w	2388 <_fclose_r>
    2436:	bf00      	nop
    2438:	100000d4 	.word	0x100000d4

0000243c <__sflush_r>:
    243c:	898a      	ldrh	r2, [r1, #12]
    243e:	e92d 41f0 	stmdb	sp!, {r4, r5, r6, r7, r8, lr}
    2442:	4605      	mov	r5, r0
    2444:	0710      	lsls	r0, r2, #28
    2446:	460c      	mov	r4, r1
    2448:	d45a      	bmi.n	2500 <__sflush_r+0xc4>
    244a:	684b      	ldr	r3, [r1, #4]
    244c:	2b00      	cmp	r3, #0
    244e:	dc05      	bgt.n	245c <__sflush_r+0x20>
    2450:	6c0b      	ldr	r3, [r1, #64]	; 0x40
    2452:	2b00      	cmp	r3, #0
    2454:	dc02      	bgt.n	245c <__sflush_r+0x20>
    2456:	2000      	movs	r0, #0
    2458:	e8bd 81f0 	ldmia.w	sp!, {r4, r5, r6, r7, r8, pc}
    245c:	6ae6      	ldr	r6, [r4, #44]	; 0x2c
    245e:	2e00      	cmp	r6, #0
    2460:	d0f9      	beq.n	2456 <__sflush_r+0x1a>
    2462:	2300      	movs	r3, #0
    2464:	f412 5280 	ands.w	r2, r2, #4096	; 0x1000
    2468:	682f      	ldr	r7, [r5, #0]
    246a:	602b      	str	r3, [r5, #0]
    246c:	d033      	beq.n	24d6 <__sflush_r+0x9a>
    246e:	6d60      	ldr	r0, [r4, #84]	; 0x54
    2470:	89a3      	ldrh	r3, [r4, #12]
    2472:	075a      	lsls	r2, r3, #29
    2474:	d505      	bpl.n	2482 <__sflush_r+0x46>
    2476:	6863      	ldr	r3, [r4, #4]
    2478:	1ac0      	subs	r0, r0, r3
    247a:	6b63      	ldr	r3, [r4, #52]	; 0x34
    247c:	b10b      	cbz	r3, 2482 <__sflush_r+0x46>
    247e:	6c23      	ldr	r3, [r4, #64]	; 0x40
    2480:	1ac0      	subs	r0, r0, r3
    2482:	2300      	movs	r3, #0
    2484:	4602      	mov	r2, r0
    2486:	6ae6      	ldr	r6, [r4, #44]	; 0x2c
    2488:	6a21      	ldr	r1, [r4, #32]
    248a:	4628      	mov	r0, r5
    248c:	47b0      	blx	r6
    248e:	1c43      	adds	r3, r0, #1
    2490:	89a3      	ldrh	r3, [r4, #12]
    2492:	d106      	bne.n	24a2 <__sflush_r+0x66>
    2494:	6829      	ldr	r1, [r5, #0]
    2496:	291d      	cmp	r1, #29
    2498:	d84b      	bhi.n	2532 <__sflush_r+0xf6>
    249a:	4a2b      	ldr	r2, [pc, #172]	; (2548 <__sflush_r+0x10c>)
    249c:	40ca      	lsrs	r2, r1
    249e:	07d6      	lsls	r6, r2, #31
    24a0:	d547      	bpl.n	2532 <__sflush_r+0xf6>
    24a2:	2200      	movs	r2, #0
    24a4:	6062      	str	r2, [r4, #4]
    24a6:	6922      	ldr	r2, [r4, #16]
    24a8:	04d9      	lsls	r1, r3, #19
    24aa:	6022      	str	r2, [r4, #0]
    24ac:	d504      	bpl.n	24b8 <__sflush_r+0x7c>
    24ae:	1c42      	adds	r2, r0, #1
    24b0:	d101      	bne.n	24b6 <__sflush_r+0x7a>
    24b2:	682b      	ldr	r3, [r5, #0]
    24b4:	b903      	cbnz	r3, 24b8 <__sflush_r+0x7c>
    24b6:	6560      	str	r0, [r4, #84]	; 0x54
    24b8:	6b61      	ldr	r1, [r4, #52]	; 0x34
    24ba:	602f      	str	r7, [r5, #0]
    24bc:	2900      	cmp	r1, #0
    24be:	d0ca      	beq.n	2456 <__sflush_r+0x1a>
    24c0:	f104 0344 	add.w	r3, r4, #68	; 0x44
    24c4:	4299      	cmp	r1, r3
    24c6:	d002      	beq.n	24ce <__sflush_r+0x92>
    24c8:	4628      	mov	r0, r5
    24ca:	f7ff f81d 	bl	1508 <__wrap__free_r>
    24ce:	2000      	movs	r0, #0
    24d0:	6360      	str	r0, [r4, #52]	; 0x34
    24d2:	e8bd 81f0 	ldmia.w	sp!, {r4, r5, r6, r7, r8, pc}
    24d6:	6a21      	ldr	r1, [r4, #32]
    24d8:	2301      	movs	r3, #1
    24da:	4628      	mov	r0, r5
    24dc:	47b0      	blx	r6
    24de:	1c41      	adds	r1, r0, #1
    24e0:	d1c6      	bne.n	2470 <__sflush_r+0x34>
    24e2:	682b      	ldr	r3, [r5, #0]
    24e4:	2b00      	cmp	r3, #0
    24e6:	d0c3      	beq.n	2470 <__sflush_r+0x34>
    24e8:	2b1d      	cmp	r3, #29
    24ea:	d001      	beq.n	24f0 <__sflush_r+0xb4>
    24ec:	2b16      	cmp	r3, #22
    24ee:	d101      	bne.n	24f4 <__sflush_r+0xb8>
    24f0:	602f      	str	r7, [r5, #0]
    24f2:	e7b0      	b.n	2456 <__sflush_r+0x1a>
    24f4:	89a3      	ldrh	r3, [r4, #12]
    24f6:	f043 0340 	orr.w	r3, r3, #64	; 0x40
    24fa:	81a3      	strh	r3, [r4, #12]
    24fc:	e8bd 81f0 	ldmia.w	sp!, {r4, r5, r6, r7, r8, pc}
    2500:	690f      	ldr	r7, [r1, #16]
    2502:	2f00      	cmp	r7, #0
    2504:	d0a7      	beq.n	2456 <__sflush_r+0x1a>
    2506:	0793      	lsls	r3, r2, #30
    2508:	bf18      	it	ne
    250a:	2300      	movne	r3, #0
    250c:	680e      	ldr	r6, [r1, #0]
    250e:	bf08      	it	eq
    2510:	694b      	ldreq	r3, [r1, #20]
    2512:	eba6 0807 	sub.w	r8, r6, r7
    2516:	600f      	str	r7, [r1, #0]
    2518:	608b      	str	r3, [r1, #8]
    251a:	f1b8 0f00 	cmp.w	r8, #0
    251e:	dd9a      	ble.n	2456 <__sflush_r+0x1a>
    2520:	4643      	mov	r3, r8
    2522:	463a      	mov	r2, r7
    2524:	6a21      	ldr	r1, [r4, #32]
    2526:	4628      	mov	r0, r5
    2528:	6aa6      	ldr	r6, [r4, #40]	; 0x28
    252a:	47b0      	blx	r6
    252c:	2800      	cmp	r0, #0
    252e:	dc07      	bgt.n	2540 <__sflush_r+0x104>
    2530:	89a3      	ldrh	r3, [r4, #12]
    2532:	f043 0340 	orr.w	r3, r3, #64	; 0x40
    2536:	81a3      	strh	r3, [r4, #12]
    2538:	f04f 30ff 	mov.w	r0, #4294967295	; 0xffffffff
    253c:	e8bd 81f0 	ldmia.w	sp!, {r4, r5, r6, r7, r8, pc}
    2540:	4407      	add	r7, r0
    2542:	eba8 0800 	sub.w	r8, r8, r0
    2546:	e7e8      	b.n	251a <__sflush_r+0xde>
    2548:	20400001 	.word	0x20400001

0000254c <_fflush_r>:
    254c:	b538      	push	{r3, r4, r5, lr}
    254e:	690b      	ldr	r3, [r1, #16]
    2550:	4605      	mov	r5, r0
    2552:	460c      	mov	r4, r1
    2554:	b1db      	cbz	r3, 258e <_fflush_r+0x42>
    2556:	b118      	cbz	r0, 2560 <_fflush_r+0x14>
    2558:	6983      	ldr	r3, [r0, #24]
    255a:	b90b      	cbnz	r3, 2560 <_fflush_r+0x14>
    255c:	f000 f872 	bl	2644 <__sinit>
    2560:	4b0c      	ldr	r3, [pc, #48]	; (2594 <_fflush_r+0x48>)
    2562:	429c      	cmp	r4, r3
    2564:	d109      	bne.n	257a <_fflush_r+0x2e>
    2566:	686c      	ldr	r4, [r5, #4]
    2568:	f9b4 300c 	ldrsh.w	r3, [r4, #12]
    256c:	b17b      	cbz	r3, 258e <_fflush_r+0x42>
    256e:	4621      	mov	r1, r4
    2570:	4628      	mov	r0, r5
    2572:	e8bd 4038 	ldmia.w	sp!, {r3, r4, r5, lr}
    2576:	f7ff bf61 	b.w	243c <__sflush_r>
    257a:	4b07      	ldr	r3, [pc, #28]	; (2598 <_fflush_r+0x4c>)
    257c:	429c      	cmp	r4, r3
    257e:	d101      	bne.n	2584 <_fflush_r+0x38>
    2580:	68ac      	ldr	r4, [r5, #8]
    2582:	e7f1      	b.n	2568 <_fflush_r+0x1c>
    2584:	4b05      	ldr	r3, [pc, #20]	; (259c <_fflush_r+0x50>)
    2586:	429c      	cmp	r4, r3
    2588:	bf08      	it	eq
    258a:	68ec      	ldreq	r4, [r5, #12]
    258c:	e7ec      	b.n	2568 <_fflush_r+0x1c>
    258e:	2000      	movs	r0, #0
    2590:	bd38      	pop	{r3, r4, r5, pc}
    2592:	bf00      	nop
    2594:	00006658 	.word	0x00006658
    2598:	00006678 	.word	0x00006678
    259c:	00006638 	.word	0x00006638

000025a0 <fflush>:
    25a0:	4601      	mov	r1, r0
    25a2:	b920      	cbnz	r0, 25ae <fflush+0xe>
    25a4:	4b04      	ldr	r3, [pc, #16]	; (25b8 <fflush+0x18>)
    25a6:	4905      	ldr	r1, [pc, #20]	; (25bc <fflush+0x1c>)
    25a8:	6818      	ldr	r0, [r3, #0]
    25aa:	f000 b993 	b.w	28d4 <_fwalk_reent>
    25ae:	4b04      	ldr	r3, [pc, #16]	; (25c0 <fflush+0x20>)
    25b0:	6818      	ldr	r0, [r3, #0]
    25b2:	f7ff bfcb 	b.w	254c <_fflush_r>
    25b6:	bf00      	nop
    25b8:	00006698 	.word	0x00006698
    25bc:	0000254d 	.word	0x0000254d
    25c0:	100000d4 	.word	0x100000d4

000025c4 <_cleanup_r>:
    25c4:	4901      	ldr	r1, [pc, #4]	; (25cc <_cleanup_r+0x8>)
    25c6:	f000 b985 	b.w	28d4 <_fwalk_reent>
    25ca:	bf00      	nop
    25cc:	0000254d 	.word	0x0000254d

000025d0 <std.isra.0>:
    25d0:	2300      	movs	r3, #0
    25d2:	b510      	push	{r4, lr}
    25d4:	4604      	mov	r4, r0
    25d6:	6003      	str	r3, [r0, #0]
    25d8:	6043      	str	r3, [r0, #4]
    25da:	6083      	str	r3, [r0, #8]
    25dc:	8181      	strh	r1, [r0, #12]
    25de:	6643      	str	r3, [r0, #100]	; 0x64
    25e0:	81c2      	strh	r2, [r0, #14]
    25e2:	6103      	str	r3, [r0, #16]
    25e4:	6143      	str	r3, [r0, #20]
    25e6:	6183      	str	r3, [r0, #24]
    25e8:	4619      	mov	r1, r3
    25ea:	2208      	movs	r2, #8
    25ec:	305c      	adds	r0, #92	; 0x5c
    25ee:	f000 fa40 	bl	2a72 <memset>
    25f2:	4b05      	ldr	r3, [pc, #20]	; (2608 <std.isra.0+0x38>)
    25f4:	6224      	str	r4, [r4, #32]
    25f6:	6263      	str	r3, [r4, #36]	; 0x24
    25f8:	4b04      	ldr	r3, [pc, #16]	; (260c <std.isra.0+0x3c>)
    25fa:	62a3      	str	r3, [r4, #40]	; 0x28
    25fc:	4b04      	ldr	r3, [pc, #16]	; (2610 <std.isra.0+0x40>)
    25fe:	62e3      	str	r3, [r4, #44]	; 0x2c
    2600:	4b04      	ldr	r3, [pc, #16]	; (2614 <std.isra.0+0x44>)
    2602:	6323      	str	r3, [r4, #48]	; 0x30
    2604:	bd10      	pop	{r4, pc}
    2606:	bf00      	nop
    2608:	00003cf5 	.word	0x00003cf5
    260c:	00003d1b 	.word	0x00003d1b
    2610:	00003d53 	.word	0x00003d53
    2614:	00003d77 	.word	0x00003d77

00002618 <__sfmoreglue>:
    2618:	b570      	push	{r4, r5, r6, lr}
    261a:	2568      	movs	r5, #104	; 0x68
    261c:	1e4a      	subs	r2, r1, #1
    261e:	4355      	muls	r5, r2
    2620:	460e      	mov	r6, r1
    2622:	f105 0174 	add.w	r1, r5, #116	; 0x74
    2626:	f7fe ff6b 	bl	1500 <__wrap__malloc_r>
    262a:	4604      	mov	r4, r0
    262c:	b140      	cbz	r0, 2640 <__sfmoreglue+0x28>
    262e:	2100      	movs	r1, #0
    2630:	e880 0042 	stmia.w	r0, {r1, r6}
    2634:	300c      	adds	r0, #12
    2636:	60a0      	str	r0, [r4, #8]
    2638:	f105 0268 	add.w	r2, r5, #104	; 0x68
    263c:	f000 fa19 	bl	2a72 <memset>
    2640:	4620      	mov	r0, r4
    2642:	bd70      	pop	{r4, r5, r6, pc}

00002644 <__sinit>:
    2644:	6983      	ldr	r3, [r0, #24]
    2646:	b510      	push	{r4, lr}
    2648:	4604      	mov	r4, r0
    264a:	bb33      	cbnz	r3, 269a <__sinit+0x56>
    264c:	6483      	str	r3, [r0, #72]	; 0x48
    264e:	64c3      	str	r3, [r0, #76]	; 0x4c
    2650:	6503      	str	r3, [r0, #80]	; 0x50
    2652:	4b12      	ldr	r3, [pc, #72]	; (269c <__sinit+0x58>)
    2654:	4a12      	ldr	r2, [pc, #72]	; (26a0 <__sinit+0x5c>)
    2656:	681b      	ldr	r3, [r3, #0]
    2658:	6282      	str	r2, [r0, #40]	; 0x28
    265a:	4298      	cmp	r0, r3
    265c:	bf04      	itt	eq
    265e:	2301      	moveq	r3, #1
    2660:	6183      	streq	r3, [r0, #24]
    2662:	f000 f81f 	bl	26a4 <__sfp>
    2666:	6060      	str	r0, [r4, #4]
    2668:	4620      	mov	r0, r4
    266a:	f000 f81b 	bl	26a4 <__sfp>
    266e:	60a0      	str	r0, [r4, #8]
    2670:	4620      	mov	r0, r4
    2672:	f000 f817 	bl	26a4 <__sfp>
    2676:	2200      	movs	r2, #0
    2678:	60e0      	str	r0, [r4, #12]
    267a:	2104      	movs	r1, #4
    267c:	6860      	ldr	r0, [r4, #4]
    267e:	f7ff ffa7 	bl	25d0 <std.isra.0>
    2682:	2201      	movs	r2, #1
    2684:	2109      	movs	r1, #9
    2686:	68a0      	ldr	r0, [r4, #8]
    2688:	f7ff ffa2 	bl	25d0 <std.isra.0>
    268c:	2202      	movs	r2, #2
    268e:	2112      	movs	r1, #18
    2690:	68e0      	ldr	r0, [r4, #12]
    2692:	f7ff ff9d 	bl	25d0 <std.isra.0>
    2696:	2301      	movs	r3, #1
    2698:	61a3      	str	r3, [r4, #24]
    269a:	bd10      	pop	{r4, pc}
    269c:	00006698 	.word	0x00006698
    26a0:	000025c5 	.word	0x000025c5

000026a4 <__sfp>:
    26a4:	b5f8      	push	{r3, r4, r5, r6, r7, lr}
    26a6:	4b1c      	ldr	r3, [pc, #112]	; (2718 <__sfp+0x74>)
    26a8:	4607      	mov	r7, r0
    26aa:	681e      	ldr	r6, [r3, #0]
    26ac:	69b3      	ldr	r3, [r6, #24]
    26ae:	b913      	cbnz	r3, 26b6 <__sfp+0x12>
    26b0:	4630      	mov	r0, r6
    26b2:	f7ff ffc7 	bl	2644 <__sinit>
    26b6:	3648      	adds	r6, #72	; 0x48
    26b8:	68b4      	ldr	r4, [r6, #8]
    26ba:	6873      	ldr	r3, [r6, #4]
    26bc:	3b01      	subs	r3, #1
    26be:	d503      	bpl.n	26c8 <__sfp+0x24>
    26c0:	6833      	ldr	r3, [r6, #0]
    26c2:	b133      	cbz	r3, 26d2 <__sfp+0x2e>
    26c4:	6836      	ldr	r6, [r6, #0]
    26c6:	e7f7      	b.n	26b8 <__sfp+0x14>
    26c8:	f9b4 500c 	ldrsh.w	r5, [r4, #12]
    26cc:	b16d      	cbz	r5, 26ea <__sfp+0x46>
    26ce:	3468      	adds	r4, #104	; 0x68
    26d0:	e7f4      	b.n	26bc <__sfp+0x18>
    26d2:	2104      	movs	r1, #4
    26d4:	4638      	mov	r0, r7
    26d6:	f7ff ff9f 	bl	2618 <__sfmoreglue>
    26da:	6030      	str	r0, [r6, #0]
    26dc:	2800      	cmp	r0, #0
    26de:	d1f1      	bne.n	26c4 <__sfp+0x20>
    26e0:	230c      	movs	r3, #12
    26e2:	4604      	mov	r4, r0
    26e4:	603b      	str	r3, [r7, #0]
    26e6:	4620      	mov	r0, r4
    26e8:	bdf8      	pop	{r3, r4, r5, r6, r7, pc}
    26ea:	f64f 73ff 	movw	r3, #65535	; 0xffff
    26ee:	81e3      	strh	r3, [r4, #14]
    26f0:	2301      	movs	r3, #1
    26f2:	6665      	str	r5, [r4, #100]	; 0x64
    26f4:	81a3      	strh	r3, [r4, #12]
    26f6:	6025      	str	r5, [r4, #0]
    26f8:	60a5      	str	r5, [r4, #8]
    26fa:	6065      	str	r5, [r4, #4]
    26fc:	6125      	str	r5, [r4, #16]
    26fe:	6165      	str	r5, [r4, #20]
    2700:	61a5      	str	r5, [r4, #24]
    2702:	2208      	movs	r2, #8
    2704:	4629      	mov	r1, r5
    2706:	f104 005c 	add.w	r0, r4, #92	; 0x5c
    270a:	f000 f9b2 	bl	2a72 <memset>
    270e:	6365      	str	r5, [r4, #52]	; 0x34
    2710:	63a5      	str	r5, [r4, #56]	; 0x38
    2712:	64a5      	str	r5, [r4, #72]	; 0x48
    2714:	64e5      	str	r5, [r4, #76]	; 0x4c
    2716:	e7e6      	b.n	26e6 <__sfp+0x42>
    2718:	00006698 	.word	0x00006698

0000271c <__sfp_lock_acquire>:
    271c:	4770      	bx	lr

0000271e <__sfp_lock_release>:
    271e:	4770      	bx	lr

00002720 <_fopen_r>:
    2720:	b5f7      	push	{r0, r1, r2, r4, r5, r6, r7, lr}
    2722:	460f      	mov	r7, r1
    2724:	4611      	mov	r1, r2
    2726:	aa01      	add	r2, sp, #4
    2728:	4605      	mov	r5, r0
    272a:	f002 fbed 	bl	4f08 <__sflags>
    272e:	4606      	mov	r6, r0
    2730:	b918      	cbnz	r0, 273a <_fopen_r+0x1a>
    2732:	2400      	movs	r4, #0
    2734:	4620      	mov	r0, r4
    2736:	b003      	add	sp, #12
    2738:	bdf0      	pop	{r4, r5, r6, r7, pc}
    273a:	4628      	mov	r0, r5
    273c:	f7ff ffb2 	bl	26a4 <__sfp>
    2740:	4604      	mov	r4, r0
    2742:	2800      	cmp	r0, #0
    2744:	d0f5      	beq.n	2732 <_fopen_r+0x12>
    2746:	f44f 73db 	mov.w	r3, #438	; 0x1b6
    274a:	9a01      	ldr	r2, [sp, #4]
    274c:	4639      	mov	r1, r7
    274e:	4628      	mov	r0, r5
    2750:	f001 f97a 	bl	3a48 <_open_r>
    2754:	2800      	cmp	r0, #0
    2756:	da06      	bge.n	2766 <_fopen_r+0x46>
    2758:	2500      	movs	r5, #0
    275a:	f7ff ffdf 	bl	271c <__sfp_lock_acquire>
    275e:	81a5      	strh	r5, [r4, #12]
    2760:	f7ff ffdd 	bl	271e <__sfp_lock_release>
    2764:	e7e5      	b.n	2732 <_fopen_r+0x12>
    2766:	4b0a      	ldr	r3, [pc, #40]	; (2790 <_fopen_r+0x70>)
    2768:	81e0      	strh	r0, [r4, #14]
    276a:	6263      	str	r3, [r4, #36]	; 0x24
    276c:	4b09      	ldr	r3, [pc, #36]	; (2794 <_fopen_r+0x74>)
    276e:	81a6      	strh	r6, [r4, #12]
    2770:	62a3      	str	r3, [r4, #40]	; 0x28
    2772:	4b09      	ldr	r3, [pc, #36]	; (2798 <_fopen_r+0x78>)
    2774:	6224      	str	r4, [r4, #32]
    2776:	62e3      	str	r3, [r4, #44]	; 0x2c
    2778:	4b08      	ldr	r3, [pc, #32]	; (279c <_fopen_r+0x7c>)
    277a:	6323      	str	r3, [r4, #48]	; 0x30
    277c:	05f3      	lsls	r3, r6, #23
    277e:	d5d9      	bpl.n	2734 <_fopen_r+0x14>
    2780:	2302      	movs	r3, #2
    2782:	2200      	movs	r2, #0
    2784:	4621      	mov	r1, r4
    2786:	4628      	mov	r0, r5
    2788:	f000 f812 	bl	27b0 <_fseek_r>
    278c:	e7d2      	b.n	2734 <_fopen_r+0x14>
    278e:	bf00      	nop
    2790:	00003cf5 	.word	0x00003cf5
    2794:	00003d1b 	.word	0x00003d1b
    2798:	00003d53 	.word	0x00003d53
    279c:	00003d77 	.word	0x00003d77

000027a0 <fopen>:
    27a0:	4b02      	ldr	r3, [pc, #8]	; (27ac <fopen+0xc>)
    27a2:	460a      	mov	r2, r1
    27a4:	4601      	mov	r1, r0
    27a6:	6818      	ldr	r0, [r3, #0]
    27a8:	f7ff bfba 	b.w	2720 <_fopen_r>
    27ac:	100000d4 	.word	0x100000d4

000027b0 <_fseek_r>:
    27b0:	f000 b800 	b.w	27b4 <_fseeko_r>

000027b4 <_fseeko_r>:
    27b4:	e92d 43f8 	stmdb	sp!, {r3, r4, r5, r6, r7, r8, r9, lr}
    27b8:	460c      	mov	r4, r1
    27ba:	4691      	mov	r9, r2
    27bc:	461e      	mov	r6, r3
    27be:	4605      	mov	r5, r0
    27c0:	b118      	cbz	r0, 27ca <_fseeko_r+0x16>
    27c2:	6983      	ldr	r3, [r0, #24]
    27c4:	b90b      	cbnz	r3, 27ca <_fseeko_r+0x16>
    27c6:	f7ff ff3d 	bl	2644 <__sinit>
    27ca:	4b3f      	ldr	r3, [pc, #252]	; (28c8 <_fseeko_r+0x114>)
    27cc:	429c      	cmp	r4, r3
    27ce:	d112      	bne.n	27f6 <_fseeko_r+0x42>
    27d0:	686c      	ldr	r4, [r5, #4]
    27d2:	89a3      	ldrh	r3, [r4, #12]
    27d4:	f403 7384 	and.w	r3, r3, #264	; 0x108
    27d8:	f5b3 7f84 	cmp.w	r3, #264	; 0x108
    27dc:	d103      	bne.n	27e6 <_fseeko_r+0x32>
    27de:	4621      	mov	r1, r4
    27e0:	4628      	mov	r0, r5
    27e2:	f7ff feb3 	bl	254c <_fflush_r>
    27e6:	f8d4 802c 	ldr.w	r8, [r4, #44]	; 0x2c
    27ea:	f1b8 0f00 	cmp.w	r8, #0
    27ee:	d10c      	bne.n	280a <_fseeko_r+0x56>
    27f0:	231d      	movs	r3, #29
    27f2:	602b      	str	r3, [r5, #0]
    27f4:	e057      	b.n	28a6 <_fseeko_r+0xf2>
    27f6:	4b35      	ldr	r3, [pc, #212]	; (28cc <_fseeko_r+0x118>)
    27f8:	429c      	cmp	r4, r3
    27fa:	d101      	bne.n	2800 <_fseeko_r+0x4c>
    27fc:	68ac      	ldr	r4, [r5, #8]
    27fe:	e7e8      	b.n	27d2 <_fseeko_r+0x1e>
    2800:	4b33      	ldr	r3, [pc, #204]	; (28d0 <_fseeko_r+0x11c>)
    2802:	429c      	cmp	r4, r3
    2804:	bf08      	it	eq
    2806:	68ec      	ldreq	r4, [r5, #12]
    2808:	e7e3      	b.n	27d2 <_fseeko_r+0x1e>
    280a:	2e01      	cmp	r6, #1
    280c:	d030      	beq.n	2870 <_fseeko_r+0xbc>
    280e:	2e02      	cmp	r6, #2
    2810:	d001      	beq.n	2816 <_fseeko_r+0x62>
    2812:	2e00      	cmp	r6, #0
    2814:	d155      	bne.n	28c2 <_fseeko_r+0x10e>
    2816:	6923      	ldr	r3, [r4, #16]
    2818:	b91b      	cbnz	r3, 2822 <_fseeko_r+0x6e>
    281a:	4621      	mov	r1, r4
    281c:	4628      	mov	r0, r5
    281e:	f000 f8bf 	bl	29a0 <__smakebuf_r>
    2822:	4621      	mov	r1, r4
    2824:	4628      	mov	r0, r5
    2826:	f7ff fe91 	bl	254c <_fflush_r>
    282a:	4607      	mov	r7, r0
    282c:	2800      	cmp	r0, #0
    282e:	d13a      	bne.n	28a6 <_fseeko_r+0xf2>
    2830:	4633      	mov	r3, r6
    2832:	464a      	mov	r2, r9
    2834:	6a21      	ldr	r1, [r4, #32]
    2836:	4628      	mov	r0, r5
    2838:	47c0      	blx	r8
    283a:	3001      	adds	r0, #1
    283c:	d033      	beq.n	28a6 <_fseeko_r+0xf2>
    283e:	6b61      	ldr	r1, [r4, #52]	; 0x34
    2840:	b141      	cbz	r1, 2854 <_fseeko_r+0xa0>
    2842:	f104 0344 	add.w	r3, r4, #68	; 0x44
    2846:	4299      	cmp	r1, r3
    2848:	d002      	beq.n	2850 <_fseeko_r+0x9c>
    284a:	4628      	mov	r0, r5
    284c:	f7fe fe5c 	bl	1508 <__wrap__free_r>
    2850:	2300      	movs	r3, #0
    2852:	6363      	str	r3, [r4, #52]	; 0x34
    2854:	2100      	movs	r1, #0
    2856:	6923      	ldr	r3, [r4, #16]
    2858:	6061      	str	r1, [r4, #4]
    285a:	6023      	str	r3, [r4, #0]
    285c:	89a3      	ldrh	r3, [r4, #12]
    285e:	2208      	movs	r2, #8
    2860:	f423 6302 	bic.w	r3, r3, #2080	; 0x820
    2864:	81a3      	strh	r3, [r4, #12]
    2866:	f104 005c 	add.w	r0, r4, #92	; 0x5c
    286a:	f000 f902 	bl	2a72 <memset>
    286e:	e01c      	b.n	28aa <_fseeko_r+0xf6>
    2870:	4621      	mov	r1, r4
    2872:	4628      	mov	r0, r5
    2874:	f7ff fe6a 	bl	254c <_fflush_r>
    2878:	89a2      	ldrh	r2, [r4, #12]
    287a:	f412 5280 	ands.w	r2, r2, #4096	; 0x1000
    287e:	d00c      	beq.n	289a <_fseeko_r+0xe6>
    2880:	6d60      	ldr	r0, [r4, #84]	; 0x54
    2882:	89a3      	ldrh	r3, [r4, #12]
    2884:	075a      	lsls	r2, r3, #29
    2886:	d513      	bpl.n	28b0 <_fseeko_r+0xfc>
    2888:	6863      	ldr	r3, [r4, #4]
    288a:	1ac0      	subs	r0, r0, r3
    288c:	6b63      	ldr	r3, [r4, #52]	; 0x34
    288e:	b10b      	cbz	r3, 2894 <_fseeko_r+0xe0>
    2890:	6c23      	ldr	r3, [r4, #64]	; 0x40
    2892:	1ac0      	subs	r0, r0, r3
    2894:	4481      	add	r9, r0
    2896:	2600      	movs	r6, #0
    2898:	e7bd      	b.n	2816 <_fseeko_r+0x62>
    289a:	6a21      	ldr	r1, [r4, #32]
    289c:	4633      	mov	r3, r6
    289e:	4628      	mov	r0, r5
    28a0:	47c0      	blx	r8
    28a2:	1c41      	adds	r1, r0, #1
    28a4:	d1ed      	bne.n	2882 <_fseeko_r+0xce>
    28a6:	f04f 37ff 	mov.w	r7, #4294967295	; 0xffffffff
    28aa:	4638      	mov	r0, r7
    28ac:	e8bd 83f8 	ldmia.w	sp!, {r3, r4, r5, r6, r7, r8, r9, pc}
    28b0:	071b      	lsls	r3, r3, #28
    28b2:	d5ef      	bpl.n	2894 <_fseeko_r+0xe0>
    28b4:	6823      	ldr	r3, [r4, #0]
    28b6:	2b00      	cmp	r3, #0
    28b8:	d0ec      	beq.n	2894 <_fseeko_r+0xe0>
    28ba:	6922      	ldr	r2, [r4, #16]
    28bc:	1a9b      	subs	r3, r3, r2
    28be:	4418      	add	r0, r3
    28c0:	e7e8      	b.n	2894 <_fseeko_r+0xe0>
    28c2:	2316      	movs	r3, #22
    28c4:	e795      	b.n	27f2 <_fseeko_r+0x3e>
    28c6:	bf00      	nop
    28c8:	00006658 	.word	0x00006658
    28cc:	00006678 	.word	0x00006678
    28d0:	00006638 	.word	0x00006638

000028d4 <_fwalk_reent>:
    28d4:	e92d 43f8 	stmdb	sp!, {r3, r4, r5, r6, r7, r8, r9, lr}
    28d8:	4680      	mov	r8, r0
    28da:	4689      	mov	r9, r1
    28dc:	2600      	movs	r6, #0
    28de:	f100 0448 	add.w	r4, r0, #72	; 0x48
    28e2:	b914      	cbnz	r4, 28ea <_fwalk_reent+0x16>
    28e4:	4630      	mov	r0, r6
    28e6:	e8bd 83f8 	ldmia.w	sp!, {r3, r4, r5, r6, r7, r8, r9, pc}
    28ea:	68a5      	ldr	r5, [r4, #8]
    28ec:	6867      	ldr	r7, [r4, #4]
    28ee:	3f01      	subs	r7, #1
    28f0:	d501      	bpl.n	28f6 <_fwalk_reent+0x22>
    28f2:	6824      	ldr	r4, [r4, #0]
    28f4:	e7f5      	b.n	28e2 <_fwalk_reent+0xe>
    28f6:	89ab      	ldrh	r3, [r5, #12]
    28f8:	2b01      	cmp	r3, #1
    28fa:	d907      	bls.n	290c <_fwalk_reent+0x38>
    28fc:	f9b5 300e 	ldrsh.w	r3, [r5, #14]
    2900:	3301      	adds	r3, #1
    2902:	d003      	beq.n	290c <_fwalk_reent+0x38>
    2904:	4629      	mov	r1, r5
    2906:	4640      	mov	r0, r8
    2908:	47c8      	blx	r9
    290a:	4306      	orrs	r6, r0
    290c:	3568      	adds	r5, #104	; 0x68
    290e:	e7ee      	b.n	28ee <_fwalk_reent+0x1a>

00002910 <__libc_init_array>:
    2910:	b570      	push	{r4, r5, r6, lr}
    2912:	2500      	movs	r5, #0
    2914:	4e0c      	ldr	r6, [pc, #48]	; (2948 <__libc_init_array+0x38>)
    2916:	4c0d      	ldr	r4, [pc, #52]	; (294c <__libc_init_array+0x3c>)
    2918:	1ba4      	subs	r4, r4, r6
    291a:	10a4      	asrs	r4, r4, #2
    291c:	42a5      	cmp	r5, r4
    291e:	d109      	bne.n	2934 <__libc_init_array+0x24>
    2920:	f003 fc50 	bl	61c4 <_init>
    2924:	2500      	movs	r5, #0
    2926:	4e0a      	ldr	r6, [pc, #40]	; (2950 <__libc_init_array+0x40>)
    2928:	4c0a      	ldr	r4, [pc, #40]	; (2954 <__libc_init_array+0x44>)
    292a:	1ba4      	subs	r4, r4, r6
    292c:	10a4      	asrs	r4, r4, #2
    292e:	42a5      	cmp	r5, r4
    2930:	d105      	bne.n	293e <__libc_init_array+0x2e>
    2932:	bd70      	pop	{r4, r5, r6, pc}
    2934:	f856 3025 	ldr.w	r3, [r6, r5, lsl #2]
    2938:	4798      	blx	r3
    293a:	3501      	adds	r5, #1
    293c:	e7ee      	b.n	291c <__libc_init_array+0xc>
    293e:	f856 3025 	ldr.w	r3, [r6, r5, lsl #2]
    2942:	4798      	blx	r3
    2944:	3501      	adds	r5, #1
    2946:	e7f2      	b.n	292e <__libc_init_array+0x1e>
    2948:	100002a4 	.word	0x100002a4
    294c:	100002a4 	.word	0x100002a4
    2950:	100002a4 	.word	0x100002a4
    2954:	100002ac 	.word	0x100002ac

00002958 <__swhatbuf_r>:
    2958:	b570      	push	{r4, r5, r6, lr}
    295a:	460e      	mov	r6, r1
    295c:	f9b1 100e 	ldrsh.w	r1, [r1, #14]
    2960:	b090      	sub	sp, #64	; 0x40
    2962:	2900      	cmp	r1, #0
    2964:	4614      	mov	r4, r2
    2966:	461d      	mov	r5, r3
    2968:	da07      	bge.n	297a <__swhatbuf_r+0x22>
    296a:	2300      	movs	r3, #0
    296c:	602b      	str	r3, [r5, #0]
    296e:	89b3      	ldrh	r3, [r6, #12]
    2970:	061a      	lsls	r2, r3, #24
    2972:	d410      	bmi.n	2996 <__swhatbuf_r+0x3e>
    2974:	f44f 6380 	mov.w	r3, #1024	; 0x400
    2978:	e00e      	b.n	2998 <__swhatbuf_r+0x40>
    297a:	aa01      	add	r2, sp, #4
    297c:	f002 fafa 	bl	4f74 <_fstat_r>
    2980:	2800      	cmp	r0, #0
    2982:	dbf2      	blt.n	296a <__swhatbuf_r+0x12>
    2984:	9a02      	ldr	r2, [sp, #8]
    2986:	f402 4270 	and.w	r2, r2, #61440	; 0xf000
    298a:	f5a2 5300 	sub.w	r3, r2, #8192	; 0x2000
    298e:	425a      	negs	r2, r3
    2990:	415a      	adcs	r2, r3
    2992:	602a      	str	r2, [r5, #0]
    2994:	e7ee      	b.n	2974 <__swhatbuf_r+0x1c>
    2996:	2340      	movs	r3, #64	; 0x40
    2998:	2000      	movs	r0, #0
    299a:	6023      	str	r3, [r4, #0]
    299c:	b010      	add	sp, #64	; 0x40
    299e:	bd70      	pop	{r4, r5, r6, pc}

000029a0 <__smakebuf_r>:
    29a0:	898b      	ldrh	r3, [r1, #12]
    29a2:	b573      	push	{r0, r1, r4, r5, r6, lr}
    29a4:	079d      	lsls	r5, r3, #30
    29a6:	4606      	mov	r6, r0
    29a8:	460c      	mov	r4, r1
    29aa:	d507      	bpl.n	29bc <__smakebuf_r+0x1c>
    29ac:	f104 0347 	add.w	r3, r4, #71	; 0x47
    29b0:	6023      	str	r3, [r4, #0]
    29b2:	6123      	str	r3, [r4, #16]
    29b4:	2301      	movs	r3, #1
    29b6:	6163      	str	r3, [r4, #20]
    29b8:	b002      	add	sp, #8
    29ba:	bd70      	pop	{r4, r5, r6, pc}
    29bc:	ab01      	add	r3, sp, #4
    29be:	466a      	mov	r2, sp
    29c0:	f7ff ffca 	bl	2958 <__swhatbuf_r>
    29c4:	9900      	ldr	r1, [sp, #0]
    29c6:	4605      	mov	r5, r0
    29c8:	4630      	mov	r0, r6
    29ca:	f7fe fd99 	bl	1500 <__wrap__malloc_r>
    29ce:	b948      	cbnz	r0, 29e4 <__smakebuf_r+0x44>
    29d0:	f9b4 300c 	ldrsh.w	r3, [r4, #12]
    29d4:	059a      	lsls	r2, r3, #22
    29d6:	d4ef      	bmi.n	29b8 <__smakebuf_r+0x18>
    29d8:	f023 0303 	bic.w	r3, r3, #3
    29dc:	f043 0302 	orr.w	r3, r3, #2
    29e0:	81a3      	strh	r3, [r4, #12]
    29e2:	e7e3      	b.n	29ac <__smakebuf_r+0xc>
    29e4:	4b0d      	ldr	r3, [pc, #52]	; (2a1c <__smakebuf_r+0x7c>)
    29e6:	62b3      	str	r3, [r6, #40]	; 0x28
    29e8:	89a3      	ldrh	r3, [r4, #12]
    29ea:	6020      	str	r0, [r4, #0]
    29ec:	f043 0380 	orr.w	r3, r3, #128	; 0x80
    29f0:	81a3      	strh	r3, [r4, #12]
    29f2:	9b00      	ldr	r3, [sp, #0]
    29f4:	6120      	str	r0, [r4, #16]
    29f6:	6163      	str	r3, [r4, #20]
    29f8:	9b01      	ldr	r3, [sp, #4]
    29fa:	b15b      	cbz	r3, 2a14 <__smakebuf_r+0x74>
    29fc:	f9b4 100e 	ldrsh.w	r1, [r4, #14]
    2a00:	4630      	mov	r0, r6
    2a02:	f002 fac9 	bl	4f98 <_isatty_r>
    2a06:	b128      	cbz	r0, 2a14 <__smakebuf_r+0x74>
    2a08:	89a3      	ldrh	r3, [r4, #12]
    2a0a:	f023 0303 	bic.w	r3, r3, #3
    2a0e:	f043 0301 	orr.w	r3, r3, #1
    2a12:	81a3      	strh	r3, [r4, #12]
    2a14:	89a3      	ldrh	r3, [r4, #12]
    2a16:	431d      	orrs	r5, r3
    2a18:	81a5      	strh	r5, [r4, #12]
    2a1a:	e7cd      	b.n	29b8 <__smakebuf_r+0x18>
    2a1c:	000025c5 	.word	0x000025c5

00002a20 <malloc>:
    2a20:	4b02      	ldr	r3, [pc, #8]	; (2a2c <malloc+0xc>)
    2a22:	4601      	mov	r1, r0
    2a24:	6818      	ldr	r0, [r3, #0]
    2a26:	f7fe bd6b 	b.w	1500 <__wrap__malloc_r>
    2a2a:	bf00      	nop
    2a2c:	100000d4 	.word	0x100000d4

00002a30 <free>:
    2a30:	4b02      	ldr	r3, [pc, #8]	; (2a3c <free+0xc>)
    2a32:	4601      	mov	r1, r0
    2a34:	6818      	ldr	r0, [r3, #0]
    2a36:	f7fe bd67 	b.w	1508 <__wrap__free_r>
    2a3a:	bf00      	nop
    2a3c:	100000d4 	.word	0x100000d4

00002a40 <memchr>:
    2a40:	b510      	push	{r4, lr}
    2a42:	b2c9      	uxtb	r1, r1
    2a44:	4402      	add	r2, r0
    2a46:	4290      	cmp	r0, r2
    2a48:	4603      	mov	r3, r0
    2a4a:	d101      	bne.n	2a50 <memchr+0x10>
    2a4c:	2000      	movs	r0, #0
    2a4e:	bd10      	pop	{r4, pc}
    2a50:	781c      	ldrb	r4, [r3, #0]
    2a52:	3001      	adds	r0, #1
    2a54:	428c      	cmp	r4, r1
    2a56:	d1f6      	bne.n	2a46 <memchr+0x6>
    2a58:	4618      	mov	r0, r3
    2a5a:	bd10      	pop	{r4, pc}

00002a5c <memcpy>:
    2a5c:	b510      	push	{r4, lr}
    2a5e:	1e43      	subs	r3, r0, #1
    2a60:	440a      	add	r2, r1
    2a62:	4291      	cmp	r1, r2
    2a64:	d100      	bne.n	2a68 <memcpy+0xc>
    2a66:	bd10      	pop	{r4, pc}
    2a68:	f811 4b01 	ldrb.w	r4, [r1], #1
    2a6c:	f803 4f01 	strb.w	r4, [r3, #1]!
    2a70:	e7f7      	b.n	2a62 <memcpy+0x6>

00002a72 <memset>:
    2a72:	4603      	mov	r3, r0
    2a74:	4402      	add	r2, r0
    2a76:	4293      	cmp	r3, r2
    2a78:	d100      	bne.n	2a7c <memset+0xa>
    2a7a:	4770      	bx	lr
    2a7c:	f803 1b01 	strb.w	r1, [r3], #1
    2a80:	e7f9      	b.n	2a76 <memset+0x4>

00002a82 <_calloc_r>:
    2a82:	b538      	push	{r3, r4, r5, lr}
    2a84:	fb02 f401 	mul.w	r4, r2, r1
    2a88:	4621      	mov	r1, r4
    2a8a:	f7fe fd39 	bl	1500 <__wrap__malloc_r>
    2a8e:	4605      	mov	r5, r0
    2a90:	b118      	cbz	r0, 2a9a <_calloc_r+0x18>
    2a92:	4622      	mov	r2, r4
    2a94:	2100      	movs	r1, #0
    2a96:	f7ff ffec 	bl	2a72 <memset>
    2a9a:	4628      	mov	r0, r5
    2a9c:	bd38      	pop	{r3, r4, r5, pc}
	...

00002aa0 <_free_r>:
    2aa0:	b538      	push	{r3, r4, r5, lr}
    2aa2:	4605      	mov	r5, r0
    2aa4:	2900      	cmp	r1, #0
    2aa6:	d043      	beq.n	2b30 <_free_r+0x90>
    2aa8:	f851 3c04 	ldr.w	r3, [r1, #-4]
    2aac:	1f0c      	subs	r4, r1, #4
    2aae:	2b00      	cmp	r3, #0
    2ab0:	bfb8      	it	lt
    2ab2:	18e4      	addlt	r4, r4, r3
    2ab4:	f7fe fe76 	bl	17a4 <__malloc_lock>
    2ab8:	4a1e      	ldr	r2, [pc, #120]	; (2b34 <_free_r+0x94>)
    2aba:	6813      	ldr	r3, [r2, #0]
    2abc:	4610      	mov	r0, r2
    2abe:	b933      	cbnz	r3, 2ace <_free_r+0x2e>
    2ac0:	6063      	str	r3, [r4, #4]
    2ac2:	6014      	str	r4, [r2, #0]
    2ac4:	4628      	mov	r0, r5
    2ac6:	e8bd 4038 	ldmia.w	sp!, {r3, r4, r5, lr}
    2aca:	f7fe be6f 	b.w	17ac <__malloc_unlock>
    2ace:	42a3      	cmp	r3, r4
    2ad0:	d90b      	bls.n	2aea <_free_r+0x4a>
    2ad2:	6821      	ldr	r1, [r4, #0]
    2ad4:	1862      	adds	r2, r4, r1
    2ad6:	4293      	cmp	r3, r2
    2ad8:	bf01      	itttt	eq
    2ada:	681a      	ldreq	r2, [r3, #0]
    2adc:	685b      	ldreq	r3, [r3, #4]
    2ade:	1852      	addeq	r2, r2, r1
    2ae0:	6022      	streq	r2, [r4, #0]
    2ae2:	6063      	str	r3, [r4, #4]
    2ae4:	6004      	str	r4, [r0, #0]
    2ae6:	e7ed      	b.n	2ac4 <_free_r+0x24>
    2ae8:	4613      	mov	r3, r2
    2aea:	685a      	ldr	r2, [r3, #4]
    2aec:	b10a      	cbz	r2, 2af2 <_free_r+0x52>
    2aee:	42a2      	cmp	r2, r4
    2af0:	d9fa      	bls.n	2ae8 <_free_r+0x48>
    2af2:	6819      	ldr	r1, [r3, #0]
    2af4:	1858      	adds	r0, r3, r1
    2af6:	42a0      	cmp	r0, r4
    2af8:	d10b      	bne.n	2b12 <_free_r+0x72>
    2afa:	6820      	ldr	r0, [r4, #0]
    2afc:	4401      	add	r1, r0
    2afe:	1858      	adds	r0, r3, r1
    2b00:	4282      	cmp	r2, r0
    2b02:	6019      	str	r1, [r3, #0]
    2b04:	d1de      	bne.n	2ac4 <_free_r+0x24>
    2b06:	6810      	ldr	r0, [r2, #0]
    2b08:	6852      	ldr	r2, [r2, #4]
    2b0a:	4401      	add	r1, r0
    2b0c:	6019      	str	r1, [r3, #0]
    2b0e:	605a      	str	r2, [r3, #4]
    2b10:	e7d8      	b.n	2ac4 <_free_r+0x24>
    2b12:	d902      	bls.n	2b1a <_free_r+0x7a>
    2b14:	230c      	movs	r3, #12
    2b16:	602b      	str	r3, [r5, #0]
    2b18:	e7d4      	b.n	2ac4 <_free_r+0x24>
    2b1a:	6820      	ldr	r0, [r4, #0]
    2b1c:	1821      	adds	r1, r4, r0
    2b1e:	428a      	cmp	r2, r1
    2b20:	bf01      	itttt	eq
    2b22:	6811      	ldreq	r1, [r2, #0]
    2b24:	6852      	ldreq	r2, [r2, #4]
    2b26:	1809      	addeq	r1, r1, r0
    2b28:	6021      	streq	r1, [r4, #0]
    2b2a:	6062      	str	r2, [r4, #4]
    2b2c:	605c      	str	r4, [r3, #4]
    2b2e:	e7c9      	b.n	2ac4 <_free_r+0x24>
    2b30:	bd38      	pop	{r3, r4, r5, pc}
    2b32:	bf00      	nop
    2b34:	10000544 	.word	0x10000544

00002b38 <_malloc_r>:
    2b38:	b570      	push	{r4, r5, r6, lr}
    2b3a:	1ccd      	adds	r5, r1, #3
    2b3c:	f025 0503 	bic.w	r5, r5, #3
    2b40:	3508      	adds	r5, #8
    2b42:	2d0c      	cmp	r5, #12
    2b44:	bf38      	it	cc
    2b46:	250c      	movcc	r5, #12
    2b48:	2d00      	cmp	r5, #0
    2b4a:	4606      	mov	r6, r0
    2b4c:	db01      	blt.n	2b52 <_malloc_r+0x1a>
    2b4e:	42a9      	cmp	r1, r5
    2b50:	d903      	bls.n	2b5a <_malloc_r+0x22>
    2b52:	230c      	movs	r3, #12
    2b54:	6033      	str	r3, [r6, #0]
    2b56:	2000      	movs	r0, #0
    2b58:	bd70      	pop	{r4, r5, r6, pc}
    2b5a:	f7fe fe23 	bl	17a4 <__malloc_lock>
    2b5e:	4a23      	ldr	r2, [pc, #140]	; (2bec <_malloc_r+0xb4>)
    2b60:	6814      	ldr	r4, [r2, #0]
    2b62:	4621      	mov	r1, r4
    2b64:	b991      	cbnz	r1, 2b8c <_malloc_r+0x54>
    2b66:	4c22      	ldr	r4, [pc, #136]	; (2bf0 <_malloc_r+0xb8>)
    2b68:	6823      	ldr	r3, [r4, #0]
    2b6a:	b91b      	cbnz	r3, 2b74 <_malloc_r+0x3c>
    2b6c:	4630      	mov	r0, r6
    2b6e:	f000 ff7d 	bl	3a6c <_sbrk_r>
    2b72:	6020      	str	r0, [r4, #0]
    2b74:	4629      	mov	r1, r5
    2b76:	4630      	mov	r0, r6
    2b78:	f000 ff78 	bl	3a6c <_sbrk_r>
    2b7c:	1c43      	adds	r3, r0, #1
    2b7e:	d126      	bne.n	2bce <_malloc_r+0x96>
    2b80:	230c      	movs	r3, #12
    2b82:	4630      	mov	r0, r6
    2b84:	6033      	str	r3, [r6, #0]
    2b86:	f7fe fe11 	bl	17ac <__malloc_unlock>
    2b8a:	e7e4      	b.n	2b56 <_malloc_r+0x1e>
    2b8c:	680b      	ldr	r3, [r1, #0]
    2b8e:	1b5b      	subs	r3, r3, r5
    2b90:	d41a      	bmi.n	2bc8 <_malloc_r+0x90>
    2b92:	2b0b      	cmp	r3, #11
    2b94:	d90f      	bls.n	2bb6 <_malloc_r+0x7e>
    2b96:	600b      	str	r3, [r1, #0]
    2b98:	18cc      	adds	r4, r1, r3
    2b9a:	50cd      	str	r5, [r1, r3]
    2b9c:	4630      	mov	r0, r6
    2b9e:	f7fe fe05 	bl	17ac <__malloc_unlock>
    2ba2:	f104 000b 	add.w	r0, r4, #11
    2ba6:	1d23      	adds	r3, r4, #4
    2ba8:	f020 0007 	bic.w	r0, r0, #7
    2bac:	1ac3      	subs	r3, r0, r3
    2bae:	d01b      	beq.n	2be8 <_malloc_r+0xb0>
    2bb0:	425a      	negs	r2, r3
    2bb2:	50e2      	str	r2, [r4, r3]
    2bb4:	bd70      	pop	{r4, r5, r6, pc}
    2bb6:	428c      	cmp	r4, r1
    2bb8:	bf0b      	itete	eq
    2bba:	6863      	ldreq	r3, [r4, #4]
    2bbc:	684b      	ldrne	r3, [r1, #4]
    2bbe:	6013      	streq	r3, [r2, #0]
    2bc0:	6063      	strne	r3, [r4, #4]
    2bc2:	bf18      	it	ne
    2bc4:	460c      	movne	r4, r1
    2bc6:	e7e9      	b.n	2b9c <_malloc_r+0x64>
    2bc8:	460c      	mov	r4, r1
    2bca:	6849      	ldr	r1, [r1, #4]
    2bcc:	e7ca      	b.n	2b64 <_malloc_r+0x2c>
    2bce:	1cc4      	adds	r4, r0, #3
    2bd0:	f024 0403 	bic.w	r4, r4, #3
    2bd4:	42a0      	cmp	r0, r4
    2bd6:	d005      	beq.n	2be4 <_malloc_r+0xac>
    2bd8:	1a21      	subs	r1, r4, r0
    2bda:	4630      	mov	r0, r6
    2bdc:	f000 ff46 	bl	3a6c <_sbrk_r>
    2be0:	3001      	adds	r0, #1
    2be2:	d0cd      	beq.n	2b80 <_malloc_r+0x48>
    2be4:	6025      	str	r5, [r4, #0]
    2be6:	e7d9      	b.n	2b9c <_malloc_r+0x64>
    2be8:	bd70      	pop	{r4, r5, r6, pc}
    2bea:	bf00      	nop
    2bec:	10000544 	.word	0x10000544
    2bf0:	10000548 	.word	0x10000548

00002bf4 <_realloc_r>:
    2bf4:	b5f8      	push	{r3, r4, r5, r6, r7, lr}
    2bf6:	4607      	mov	r7, r0
    2bf8:	4614      	mov	r4, r2
    2bfa:	460e      	mov	r6, r1
    2bfc:	b921      	cbnz	r1, 2c08 <_realloc_r+0x14>
    2bfe:	4611      	mov	r1, r2
    2c00:	e8bd 40f8 	ldmia.w	sp!, {r3, r4, r5, r6, r7, lr}
    2c04:	f7fe bc7c 	b.w	1500 <__wrap__malloc_r>
    2c08:	b922      	cbnz	r2, 2c14 <_realloc_r+0x20>
    2c0a:	f7fe fc7d 	bl	1508 <__wrap__free_r>
    2c0e:	4625      	mov	r5, r4
    2c10:	4628      	mov	r0, r5
    2c12:	bdf8      	pop	{r3, r4, r5, r6, r7, pc}
    2c14:	f002 fcff 	bl	5616 <_malloc_usable_size_r>
    2c18:	4284      	cmp	r4, r0
    2c1a:	d90f      	bls.n	2c3c <_realloc_r+0x48>
    2c1c:	4621      	mov	r1, r4
    2c1e:	4638      	mov	r0, r7
    2c20:	f7fe fc6e 	bl	1500 <__wrap__malloc_r>
    2c24:	4605      	mov	r5, r0
    2c26:	2800      	cmp	r0, #0
    2c28:	d0f2      	beq.n	2c10 <_realloc_r+0x1c>
    2c2a:	4631      	mov	r1, r6
    2c2c:	4622      	mov	r2, r4
    2c2e:	f7ff ff15 	bl	2a5c <memcpy>
    2c32:	4631      	mov	r1, r6
    2c34:	4638      	mov	r0, r7
    2c36:	f7fe fc67 	bl	1508 <__wrap__free_r>
    2c3a:	e7e9      	b.n	2c10 <_realloc_r+0x1c>
    2c3c:	4635      	mov	r5, r6
    2c3e:	e7e7      	b.n	2c10 <_realloc_r+0x1c>

00002c40 <__sfputc_r>:
    2c40:	6893      	ldr	r3, [r2, #8]
    2c42:	b410      	push	{r4}
    2c44:	3b01      	subs	r3, #1
    2c46:	2b00      	cmp	r3, #0
    2c48:	6093      	str	r3, [r2, #8]
    2c4a:	da08      	bge.n	2c5e <__sfputc_r+0x1e>
    2c4c:	6994      	ldr	r4, [r2, #24]
    2c4e:	42a3      	cmp	r3, r4
    2c50:	db02      	blt.n	2c58 <__sfputc_r+0x18>
    2c52:	b2cb      	uxtb	r3, r1
    2c54:	2b0a      	cmp	r3, #10
    2c56:	d102      	bne.n	2c5e <__sfputc_r+0x1e>
    2c58:	bc10      	pop	{r4}
    2c5a:	f001 ba11 	b.w	4080 <__swbuf_r>
    2c5e:	6813      	ldr	r3, [r2, #0]
    2c60:	1c58      	adds	r0, r3, #1
    2c62:	6010      	str	r0, [r2, #0]
    2c64:	7019      	strb	r1, [r3, #0]
    2c66:	b2c8      	uxtb	r0, r1
    2c68:	bc10      	pop	{r4}
    2c6a:	4770      	bx	lr

00002c6c <__sfputs_r>:
    2c6c:	b5f8      	push	{r3, r4, r5, r6, r7, lr}
    2c6e:	4606      	mov	r6, r0
    2c70:	460f      	mov	r7, r1
    2c72:	4614      	mov	r4, r2
    2c74:	18d5      	adds	r5, r2, r3
    2c76:	42ac      	cmp	r4, r5
    2c78:	d101      	bne.n	2c7e <__sfputs_r+0x12>
    2c7a:	2000      	movs	r0, #0
    2c7c:	e007      	b.n	2c8e <__sfputs_r+0x22>
    2c7e:	463a      	mov	r2, r7
    2c80:	f814 1b01 	ldrb.w	r1, [r4], #1
    2c84:	4630      	mov	r0, r6
    2c86:	f7ff ffdb 	bl	2c40 <__sfputc_r>
    2c8a:	1c43      	adds	r3, r0, #1
    2c8c:	d1f3      	bne.n	2c76 <__sfputs_r+0xa>
    2c8e:	bdf8      	pop	{r3, r4, r5, r6, r7, pc}

00002c90 <_vfiprintf_r>:
    2c90:	e92d 4ff0 	stmdb	sp!, {r4, r5, r6, r7, r8, r9, r10, r11, lr}
    2c94:	b09d      	sub	sp, #116	; 0x74
    2c96:	460c      	mov	r4, r1
    2c98:	4617      	mov	r7, r2
    2c9a:	9303      	str	r3, [sp, #12]
    2c9c:	4606      	mov	r6, r0
    2c9e:	b118      	cbz	r0, 2ca8 <_vfiprintf_r+0x18>
    2ca0:	6983      	ldr	r3, [r0, #24]
    2ca2:	b90b      	cbnz	r3, 2ca8 <_vfiprintf_r+0x18>
    2ca4:	f7ff fcce 	bl	2644 <__sinit>
    2ca8:	4b7c      	ldr	r3, [pc, #496]	; (2e9c <_vfiprintf_r+0x20c>)
    2caa:	429c      	cmp	r4, r3
    2cac:	d157      	bne.n	2d5e <_vfiprintf_r+0xce>
    2cae:	6874      	ldr	r4, [r6, #4]
    2cb0:	89a3      	ldrh	r3, [r4, #12]
    2cb2:	0718      	lsls	r0, r3, #28
    2cb4:	d55d      	bpl.n	2d72 <_vfiprintf_r+0xe2>
    2cb6:	6923      	ldr	r3, [r4, #16]
    2cb8:	2b00      	cmp	r3, #0
    2cba:	d05a      	beq.n	2d72 <_vfiprintf_r+0xe2>
    2cbc:	2300      	movs	r3, #0
    2cbe:	9309      	str	r3, [sp, #36]	; 0x24
    2cc0:	2320      	movs	r3, #32
    2cc2:	f88d 3029 	strb.w	r3, [sp, #41]	; 0x29
    2cc6:	2330      	movs	r3, #48	; 0x30
    2cc8:	f04f 0b01 	mov.w	r11, #1
    2ccc:	f88d 302a 	strb.w	r3, [sp, #42]	; 0x2a
    2cd0:	46b8      	mov	r8, r7
    2cd2:	4645      	mov	r5, r8
    2cd4:	f815 3b01 	ldrb.w	r3, [r5], #1
    2cd8:	2b00      	cmp	r3, #0
    2cda:	d155      	bne.n	2d88 <_vfiprintf_r+0xf8>
    2cdc:	ebb8 0a07 	subs.w	r10, r8, r7
    2ce0:	d00b      	beq.n	2cfa <_vfiprintf_r+0x6a>
    2ce2:	4653      	mov	r3, r10
    2ce4:	463a      	mov	r2, r7
    2ce6:	4621      	mov	r1, r4
    2ce8:	4630      	mov	r0, r6
    2cea:	f7ff ffbf 	bl	2c6c <__sfputs_r>
    2cee:	3001      	adds	r0, #1
    2cf0:	f000 80c4 	beq.w	2e7c <_vfiprintf_r+0x1ec>
    2cf4:	9b09      	ldr	r3, [sp, #36]	; 0x24
    2cf6:	4453      	add	r3, r10
    2cf8:	9309      	str	r3, [sp, #36]	; 0x24
    2cfa:	f898 3000 	ldrb.w	r3, [r8]
    2cfe:	2b00      	cmp	r3, #0
    2d00:	f000 80bc 	beq.w	2e7c <_vfiprintf_r+0x1ec>
    2d04:	2300      	movs	r3, #0
    2d06:	f04f 32ff 	mov.w	r2, #4294967295	; 0xffffffff
    2d0a:	9304      	str	r3, [sp, #16]
    2d0c:	9307      	str	r3, [sp, #28]
    2d0e:	9205      	str	r2, [sp, #20]
    2d10:	9306      	str	r3, [sp, #24]
    2d12:	f88d 3053 	strb.w	r3, [sp, #83]	; 0x53
    2d16:	931a      	str	r3, [sp, #104]	; 0x68
    2d18:	2205      	movs	r2, #5
    2d1a:	7829      	ldrb	r1, [r5, #0]
    2d1c:	4860      	ldr	r0, [pc, #384]	; (2ea0 <_vfiprintf_r+0x210>)
    2d1e:	f7ff fe8f 	bl	2a40 <memchr>
    2d22:	f105 0801 	add.w	r8, r5, #1
    2d26:	9b04      	ldr	r3, [sp, #16]
    2d28:	2800      	cmp	r0, #0
    2d2a:	d131      	bne.n	2d90 <_vfiprintf_r+0x100>
    2d2c:	06d9      	lsls	r1, r3, #27
    2d2e:	bf44      	itt	mi
    2d30:	2220      	movmi	r2, #32
    2d32:	f88d 2053 	strbmi.w	r2, [sp, #83]	; 0x53
    2d36:	071a      	lsls	r2, r3, #28
    2d38:	bf44      	itt	mi
    2d3a:	222b      	movmi	r2, #43	; 0x2b
    2d3c:	f88d 2053 	strbmi.w	r2, [sp, #83]	; 0x53
    2d40:	782a      	ldrb	r2, [r5, #0]
    2d42:	2a2a      	cmp	r2, #42	; 0x2a
    2d44:	d02c      	beq.n	2da0 <_vfiprintf_r+0x110>
    2d46:	2100      	movs	r1, #0
    2d48:	200a      	movs	r0, #10
    2d4a:	9a07      	ldr	r2, [sp, #28]
    2d4c:	46a8      	mov	r8, r5
    2d4e:	f898 3000 	ldrb.w	r3, [r8]
    2d52:	3501      	adds	r5, #1
    2d54:	3b30      	subs	r3, #48	; 0x30
    2d56:	2b09      	cmp	r3, #9
    2d58:	d96d      	bls.n	2e36 <_vfiprintf_r+0x1a6>
    2d5a:	b371      	cbz	r1, 2dba <_vfiprintf_r+0x12a>
    2d5c:	e026      	b.n	2dac <_vfiprintf_r+0x11c>
    2d5e:	4b51      	ldr	r3, [pc, #324]	; (2ea4 <_vfiprintf_r+0x214>)
    2d60:	429c      	cmp	r4, r3
    2d62:	d101      	bne.n	2d68 <_vfiprintf_r+0xd8>
    2d64:	68b4      	ldr	r4, [r6, #8]
    2d66:	e7a3      	b.n	2cb0 <_vfiprintf_r+0x20>
    2d68:	4b4f      	ldr	r3, [pc, #316]	; (2ea8 <_vfiprintf_r+0x218>)
    2d6a:	429c      	cmp	r4, r3
    2d6c:	bf08      	it	eq
    2d6e:	68f4      	ldreq	r4, [r6, #12]
    2d70:	e79e      	b.n	2cb0 <_vfiprintf_r+0x20>
    2d72:	4621      	mov	r1, r4
    2d74:	4630      	mov	r0, r6
    2d76:	f001 f9e7 	bl	4148 <__swsetup_r>
    2d7a:	2800      	cmp	r0, #0
    2d7c:	d09e      	beq.n	2cbc <_vfiprintf_r+0x2c>
    2d7e:	f04f 30ff 	mov.w	r0, #4294967295	; 0xffffffff
    2d82:	b01d      	add	sp, #116	; 0x74
    2d84:	e8bd 8ff0 	ldmia.w	sp!, {r4, r5, r6, r7, r8, r9, r10, r11, pc}
    2d88:	2b25      	cmp	r3, #37	; 0x25
    2d8a:	d0a7      	beq.n	2cdc <_vfiprintf_r+0x4c>
    2d8c:	46a8      	mov	r8, r5
    2d8e:	e7a0      	b.n	2cd2 <_vfiprintf_r+0x42>
    2d90:	4a43      	ldr	r2, [pc, #268]	; (2ea0 <_vfiprintf_r+0x210>)
    2d92:	4645      	mov	r5, r8
    2d94:	1a80      	subs	r0, r0, r2
    2d96:	fa0b f000 	lsl.w	r0, r11, r0
    2d9a:	4318      	orrs	r0, r3
    2d9c:	9004      	str	r0, [sp, #16]
    2d9e:	e7bb      	b.n	2d18 <_vfiprintf_r+0x88>
    2da0:	9a03      	ldr	r2, [sp, #12]
    2da2:	1d11      	adds	r1, r2, #4
    2da4:	6812      	ldr	r2, [r2, #0]
    2da6:	9103      	str	r1, [sp, #12]
    2da8:	2a00      	cmp	r2, #0
    2daa:	db01      	blt.n	2db0 <_vfiprintf_r+0x120>
    2dac:	9207      	str	r2, [sp, #28]
    2dae:	e004      	b.n	2dba <_vfiprintf_r+0x12a>
    2db0:	4252      	negs	r2, r2
    2db2:	f043 0302 	orr.w	r3, r3, #2
    2db6:	9207      	str	r2, [sp, #28]
    2db8:	9304      	str	r3, [sp, #16]
    2dba:	f898 3000 	ldrb.w	r3, [r8]
    2dbe:	2b2e      	cmp	r3, #46	; 0x2e
    2dc0:	d110      	bne.n	2de4 <_vfiprintf_r+0x154>
    2dc2:	f898 3001 	ldrb.w	r3, [r8, #1]
    2dc6:	f108 0101 	add.w	r1, r8, #1
    2dca:	2b2a      	cmp	r3, #42	; 0x2a
    2dcc:	d137      	bne.n	2e3e <_vfiprintf_r+0x1ae>
    2dce:	9b03      	ldr	r3, [sp, #12]
    2dd0:	f108 0802 	add.w	r8, r8, #2
    2dd4:	1d1a      	adds	r2, r3, #4
    2dd6:	681b      	ldr	r3, [r3, #0]
    2dd8:	9203      	str	r2, [sp, #12]
    2dda:	2b00      	cmp	r3, #0
    2ddc:	bfb8      	it	lt
    2dde:	f04f 33ff 	movlt.w	r3, #4294967295	; 0xffffffff
    2de2:	9305      	str	r3, [sp, #20]
    2de4:	4d31      	ldr	r5, [pc, #196]	; (2eac <_vfiprintf_r+0x21c>)
    2de6:	2203      	movs	r2, #3
    2de8:	f898 1000 	ldrb.w	r1, [r8]
    2dec:	4628      	mov	r0, r5
    2dee:	f7ff fe27 	bl	2a40 <memchr>
    2df2:	b140      	cbz	r0, 2e06 <_vfiprintf_r+0x176>
    2df4:	2340      	movs	r3, #64	; 0x40
    2df6:	1b40      	subs	r0, r0, r5
    2df8:	fa03 f000 	lsl.w	r0, r3, r0
    2dfc:	9b04      	ldr	r3, [sp, #16]
    2dfe:	f108 0801 	add.w	r8, r8, #1
    2e02:	4303      	orrs	r3, r0
    2e04:	9304      	str	r3, [sp, #16]
    2e06:	f898 1000 	ldrb.w	r1, [r8]
    2e0a:	2206      	movs	r2, #6
    2e0c:	4828      	ldr	r0, [pc, #160]	; (2eb0 <_vfiprintf_r+0x220>)
    2e0e:	f108 0701 	add.w	r7, r8, #1
    2e12:	f88d 1028 	strb.w	r1, [sp, #40]	; 0x28
    2e16:	f7ff fe13 	bl	2a40 <memchr>
    2e1a:	2800      	cmp	r0, #0
    2e1c:	d034      	beq.n	2e88 <_vfiprintf_r+0x1f8>
    2e1e:	4b25      	ldr	r3, [pc, #148]	; (2eb4 <_vfiprintf_r+0x224>)
    2e20:	bb03      	cbnz	r3, 2e64 <_vfiprintf_r+0x1d4>
    2e22:	9b03      	ldr	r3, [sp, #12]
    2e24:	3307      	adds	r3, #7
    2e26:	f023 0307 	bic.w	r3, r3, #7
    2e2a:	3308      	adds	r3, #8
    2e2c:	9303      	str	r3, [sp, #12]
    2e2e:	9b09      	ldr	r3, [sp, #36]	; 0x24
    2e30:	444b      	add	r3, r9
    2e32:	9309      	str	r3, [sp, #36]	; 0x24
    2e34:	e74c      	b.n	2cd0 <_vfiprintf_r+0x40>
    2e36:	fb00 3202 	mla	r2, r0, r2, r3
    2e3a:	2101      	movs	r1, #1
    2e3c:	e786      	b.n	2d4c <_vfiprintf_r+0xbc>
    2e3e:	2300      	movs	r3, #0
    2e40:	250a      	movs	r5, #10
    2e42:	4618      	mov	r0, r3
    2e44:	9305      	str	r3, [sp, #20]
    2e46:	4688      	mov	r8, r1
    2e48:	f898 2000 	ldrb.w	r2, [r8]
    2e4c:	3101      	adds	r1, #1
    2e4e:	3a30      	subs	r2, #48	; 0x30
    2e50:	2a09      	cmp	r2, #9
    2e52:	d903      	bls.n	2e5c <_vfiprintf_r+0x1cc>
    2e54:	2b00      	cmp	r3, #0
    2e56:	d0c5      	beq.n	2de4 <_vfiprintf_r+0x154>
    2e58:	9005      	str	r0, [sp, #20]
    2e5a:	e7c3      	b.n	2de4 <_vfiprintf_r+0x154>
    2e5c:	fb05 2000 	mla	r0, r5, r0, r2
    2e60:	2301      	movs	r3, #1
    2e62:	e7f0      	b.n	2e46 <_vfiprintf_r+0x1b6>
    2e64:	ab03      	add	r3, sp, #12
    2e66:	9300      	str	r3, [sp, #0]
    2e68:	4622      	mov	r2, r4
    2e6a:	4b13      	ldr	r3, [pc, #76]	; (2eb8 <_vfiprintf_r+0x228>)
    2e6c:	a904      	add	r1, sp, #16
    2e6e:	4630      	mov	r0, r6
    2e70:	f000 f8c0 	bl	2ff4 <_printf_float>
    2e74:	f1b0 3fff 	cmp.w	r0, #4294967295	; 0xffffffff
    2e78:	4681      	mov	r9, r0
    2e7a:	d1d8      	bne.n	2e2e <_vfiprintf_r+0x19e>
    2e7c:	89a3      	ldrh	r3, [r4, #12]
    2e7e:	065b      	lsls	r3, r3, #25
    2e80:	f53f af7d 	bmi.w	2d7e <_vfiprintf_r+0xee>
    2e84:	9809      	ldr	r0, [sp, #36]	; 0x24
    2e86:	e77c      	b.n	2d82 <_vfiprintf_r+0xf2>
    2e88:	ab03      	add	r3, sp, #12
    2e8a:	9300      	str	r3, [sp, #0]
    2e8c:	4622      	mov	r2, r4
    2e8e:	4b0a      	ldr	r3, [pc, #40]	; (2eb8 <_vfiprintf_r+0x228>)
    2e90:	a904      	add	r1, sp, #16
    2e92:	4630      	mov	r0, r6
    2e94:	f000 fb5e 	bl	3554 <_printf_i>
    2e98:	e7ec      	b.n	2e74 <_vfiprintf_r+0x1e4>
    2e9a:	bf00      	nop
    2e9c:	00006658 	.word	0x00006658
    2ea0:	0000669c 	.word	0x0000669c
    2ea4:	00006678 	.word	0x00006678
    2ea8:	00006638 	.word	0x00006638
    2eac:	000066a2 	.word	0x000066a2
    2eb0:	000066a6 	.word	0x000066a6
    2eb4:	00002ff5 	.word	0x00002ff5
    2eb8:	00002c6d 	.word	0x00002c6d

00002ebc <vfiprintf>:
    2ebc:	4613      	mov	r3, r2
    2ebe:	460a      	mov	r2, r1
    2ec0:	4601      	mov	r1, r0
    2ec2:	4802      	ldr	r0, [pc, #8]	; (2ecc <vfiprintf+0x10>)
    2ec4:	6800      	ldr	r0, [r0, #0]
    2ec6:	f7ff bee3 	b.w	2c90 <_vfiprintf_r>
    2eca:	bf00      	nop
    2ecc:	100000d4 	.word	0x100000d4

00002ed0 <__cvt>:
    2ed0:	2b00      	cmp	r3, #0
    2ed2:	e92d 47f0 	stmdb	sp!, {r4, r5, r6, r7, r8, r9, r10, lr}
    2ed6:	461e      	mov	r6, r3
    2ed8:	bfbb      	ittet	lt
    2eda:	f103 4300 	addlt.w	r3, r3, #2147483648	; 0x80000000
    2ede:	461e      	movlt	r6, r3
    2ee0:	2300      	movge	r3, #0
    2ee2:	232d      	movlt	r3, #45	; 0x2d
    2ee4:	b088      	sub	sp, #32
    2ee6:	9f14      	ldr	r7, [sp, #80]	; 0x50
    2ee8:	9912      	ldr	r1, [sp, #72]	; 0x48
    2eea:	f027 0720 	bic.w	r7, r7, #32
    2eee:	2f46      	cmp	r7, #70	; 0x46
    2ef0:	4614      	mov	r4, r2
    2ef2:	9d10      	ldr	r5, [sp, #64]	; 0x40
    2ef4:	f8dd a04c 	ldr.w	r10, [sp, #76]	; 0x4c
    2ef8:	700b      	strb	r3, [r1, #0]
    2efa:	d004      	beq.n	2f06 <__cvt+0x36>
    2efc:	2f45      	cmp	r7, #69	; 0x45
    2efe:	d100      	bne.n	2f02 <__cvt+0x32>
    2f00:	3501      	adds	r5, #1
    2f02:	2302      	movs	r3, #2
    2f04:	e000      	b.n	2f08 <__cvt+0x38>
    2f06:	2303      	movs	r3, #3
    2f08:	aa07      	add	r2, sp, #28
    2f0a:	9204      	str	r2, [sp, #16]
    2f0c:	aa06      	add	r2, sp, #24
    2f0e:	9203      	str	r2, [sp, #12]
    2f10:	e88d 0428 	stmia.w	sp, {r3, r5, r10}
    2f14:	4622      	mov	r2, r4
    2f16:	4633      	mov	r3, r6
    2f18:	f001 fa22 	bl	4360 <_dtoa_r>
    2f1c:	2f47      	cmp	r7, #71	; 0x47
    2f1e:	4680      	mov	r8, r0
    2f20:	d102      	bne.n	2f28 <__cvt+0x58>
    2f22:	9b11      	ldr	r3, [sp, #68]	; 0x44
    2f24:	07db      	lsls	r3, r3, #31
    2f26:	d526      	bpl.n	2f76 <__cvt+0xa6>
    2f28:	2f46      	cmp	r7, #70	; 0x46
    2f2a:	eb08 0905 	add.w	r9, r8, r5
    2f2e:	d111      	bne.n	2f54 <__cvt+0x84>
    2f30:	f898 3000 	ldrb.w	r3, [r8]
    2f34:	2b30      	cmp	r3, #48	; 0x30
    2f36:	d10a      	bne.n	2f4e <__cvt+0x7e>
    2f38:	2200      	movs	r2, #0
    2f3a:	2300      	movs	r3, #0
    2f3c:	4620      	mov	r0, r4
    2f3e:	4631      	mov	r1, r6
    2f40:	f003 f8f8 	bl	6134 <__aeabi_dcmpeq>
    2f44:	b918      	cbnz	r0, 2f4e <__cvt+0x7e>
    2f46:	f1c5 0501 	rsb	r5, r5, #1
    2f4a:	f8ca 5000 	str.w	r5, [r10]
    2f4e:	f8da 3000 	ldr.w	r3, [r10]
    2f52:	4499      	add	r9, r3
    2f54:	2200      	movs	r2, #0
    2f56:	2300      	movs	r3, #0
    2f58:	4620      	mov	r0, r4
    2f5a:	4631      	mov	r1, r6
    2f5c:	f003 f8ea 	bl	6134 <__aeabi_dcmpeq>
    2f60:	b938      	cbnz	r0, 2f72 <__cvt+0xa2>
    2f62:	2230      	movs	r2, #48	; 0x30
    2f64:	9b07      	ldr	r3, [sp, #28]
    2f66:	4599      	cmp	r9, r3
    2f68:	d905      	bls.n	2f76 <__cvt+0xa6>
    2f6a:	1c59      	adds	r1, r3, #1
    2f6c:	9107      	str	r1, [sp, #28]
    2f6e:	701a      	strb	r2, [r3, #0]
    2f70:	e7f8      	b.n	2f64 <__cvt+0x94>
    2f72:	f8cd 901c 	str.w	r9, [sp, #28]
    2f76:	4640      	mov	r0, r8
    2f78:	9b07      	ldr	r3, [sp, #28]
    2f7a:	9a15      	ldr	r2, [sp, #84]	; 0x54
    2f7c:	eba3 0308 	sub.w	r3, r3, r8
    2f80:	6013      	str	r3, [r2, #0]
    2f82:	b008      	add	sp, #32
    2f84:	e8bd 87f0 	ldmia.w	sp!, {r4, r5, r6, r7, r8, r9, r10, pc}

00002f88 <__exponent>:
    2f88:	4603      	mov	r3, r0
    2f8a:	b5f7      	push	{r0, r1, r2, r4, r5, r6, r7, lr}
    2f8c:	2900      	cmp	r1, #0
    2f8e:	f803 2b02 	strb.w	r2, [r3], #2
    2f92:	bfb6      	itet	lt
    2f94:	222d      	movlt	r2, #45	; 0x2d
    2f96:	222b      	movge	r2, #43	; 0x2b
    2f98:	4249      	neglt	r1, r1
    2f9a:	2909      	cmp	r1, #9
    2f9c:	7042      	strb	r2, [r0, #1]
    2f9e:	dd21      	ble.n	2fe4 <__exponent+0x5c>
    2fa0:	f10d 0207 	add.w	r2, sp, #7
    2fa4:	4617      	mov	r7, r2
    2fa6:	260a      	movs	r6, #10
    2fa8:	fb91 f5f6 	sdiv	r5, r1, r6
    2fac:	fb06 1115 	mls	r1, r6, r5, r1
    2fb0:	2d09      	cmp	r5, #9
    2fb2:	f101 0130 	add.w	r1, r1, #48	; 0x30
    2fb6:	f802 1c01 	strb.w	r1, [r2, #-1]
    2fba:	f102 34ff 	add.w	r4, r2, #4294967295	; 0xffffffff
    2fbe:	4629      	mov	r1, r5
    2fc0:	dc09      	bgt.n	2fd6 <__exponent+0x4e>
    2fc2:	3130      	adds	r1, #48	; 0x30
    2fc4:	3a02      	subs	r2, #2
    2fc6:	f804 1c01 	strb.w	r1, [r4, #-1]
    2fca:	42ba      	cmp	r2, r7
    2fcc:	461c      	mov	r4, r3
    2fce:	d304      	bcc.n	2fda <__exponent+0x52>
    2fd0:	1a20      	subs	r0, r4, r0
    2fd2:	b003      	add	sp, #12
    2fd4:	bdf0      	pop	{r4, r5, r6, r7, pc}
    2fd6:	4622      	mov	r2, r4
    2fd8:	e7e6      	b.n	2fa8 <__exponent+0x20>
    2fda:	f812 1b01 	ldrb.w	r1, [r2], #1
    2fde:	f803 1b01 	strb.w	r1, [r3], #1
    2fe2:	e7f2      	b.n	2fca <__exponent+0x42>
    2fe4:	2230      	movs	r2, #48	; 0x30
    2fe6:	461c      	mov	r4, r3
    2fe8:	4411      	add	r1, r2
    2fea:	f804 2b02 	strb.w	r2, [r4], #2
    2fee:	7059      	strb	r1, [r3, #1]
    2ff0:	e7ee      	b.n	2fd0 <__exponent+0x48>
	...

00002ff4 <_printf_float>:
    2ff4:	e92d 4ff0 	stmdb	sp!, {r4, r5, r6, r7, r8, r9, r10, r11, lr}
    2ff8:	b091      	sub	sp, #68	; 0x44
    2ffa:	460c      	mov	r4, r1
    2ffc:	9f1a      	ldr	r7, [sp, #104]	; 0x68
    2ffe:	4693      	mov	r11, r2
    3000:	461e      	mov	r6, r3
    3002:	4605      	mov	r5, r0
    3004:	f001 ffea 	bl	4fdc <_localeconv_r>
    3008:	6803      	ldr	r3, [r0, #0]
    300a:	4618      	mov	r0, r3
    300c:	9309      	str	r3, [sp, #36]	; 0x24
    300e:	f000 fec0 	bl	3d92 <strlen>
    3012:	2300      	movs	r3, #0
    3014:	930e      	str	r3, [sp, #56]	; 0x38
    3016:	683b      	ldr	r3, [r7, #0]
    3018:	900a      	str	r0, [sp, #40]	; 0x28
    301a:	3307      	adds	r3, #7
    301c:	f023 0307 	bic.w	r3, r3, #7
    3020:	f103 0208 	add.w	r2, r3, #8
    3024:	f894 8018 	ldrb.w	r8, [r4, #24]
    3028:	f8d4 a000 	ldr.w	r10, [r4]
    302c:	603a      	str	r2, [r7, #0]
    302e:	e9d3 2300 	ldrd	r2, r3, [r3]
    3032:	e9c4 2312 	strd	r2, r3, [r4, #72]	; 0x48
    3036:	f8d4 904c 	ldr.w	r9, [r4, #76]	; 0x4c
    303a:	6ca7      	ldr	r7, [r4, #72]	; 0x48
    303c:	f029 4300 	bic.w	r3, r9, #2147483648	; 0x80000000
    3040:	930b      	str	r3, [sp, #44]	; 0x2c
    3042:	f04f 32ff 	mov.w	r2, #4294967295	; 0xffffffff
    3046:	4ba6      	ldr	r3, [pc, #664]	; (32e0 <_printf_float+0x2ec>)
    3048:	4638      	mov	r0, r7
    304a:	990b      	ldr	r1, [sp, #44]	; 0x2c
    304c:	f003 f8a4 	bl	6198 <__aeabi_dcmpun>
    3050:	2800      	cmp	r0, #0
    3052:	f040 81f7 	bne.w	3444 <_printf_float+0x450>
    3056:	f04f 32ff 	mov.w	r2, #4294967295	; 0xffffffff
    305a:	4ba1      	ldr	r3, [pc, #644]	; (32e0 <_printf_float+0x2ec>)
    305c:	4638      	mov	r0, r7
    305e:	990b      	ldr	r1, [sp, #44]	; 0x2c
    3060:	f003 f87c 	bl	615c <__aeabi_dcmple>
    3064:	2800      	cmp	r0, #0
    3066:	f040 81ed 	bne.w	3444 <_printf_float+0x450>
    306a:	2200      	movs	r2, #0
    306c:	2300      	movs	r3, #0
    306e:	4638      	mov	r0, r7
    3070:	4649      	mov	r1, r9
    3072:	f003 f869 	bl	6148 <__aeabi_dcmplt>
    3076:	b110      	cbz	r0, 307e <_printf_float+0x8a>
    3078:	232d      	movs	r3, #45	; 0x2d
    307a:	f884 3043 	strb.w	r3, [r4, #67]	; 0x43
    307e:	4b99      	ldr	r3, [pc, #612]	; (32e4 <_printf_float+0x2f0>)
    3080:	4f99      	ldr	r7, [pc, #612]	; (32e8 <_printf_float+0x2f4>)
    3082:	f1b8 0f47 	cmp.w	r8, #71	; 0x47
    3086:	bf98      	it	ls
    3088:	461f      	movls	r7, r3
    308a:	2303      	movs	r3, #3
    308c:	f04f 0900 	mov.w	r9, #0
    3090:	6123      	str	r3, [r4, #16]
    3092:	f02a 0304 	bic.w	r3, r10, #4
    3096:	6023      	str	r3, [r4, #0]
    3098:	9600      	str	r6, [sp, #0]
    309a:	465b      	mov	r3, r11
    309c:	aa0f      	add	r2, sp, #60	; 0x3c
    309e:	4621      	mov	r1, r4
    30a0:	4628      	mov	r0, r5
    30a2:	f000 f9df 	bl	3464 <_printf_common>
    30a6:	3001      	adds	r0, #1
    30a8:	f040 809a 	bne.w	31e0 <_printf_float+0x1ec>
    30ac:	f04f 30ff 	mov.w	r0, #4294967295	; 0xffffffff
    30b0:	b011      	add	sp, #68	; 0x44
    30b2:	e8bd 8ff0 	ldmia.w	sp!, {r4, r5, r6, r7, r8, r9, r10, r11, pc}
    30b6:	6862      	ldr	r2, [r4, #4]
    30b8:	a80e      	add	r0, sp, #56	; 0x38
    30ba:	1c53      	adds	r3, r2, #1
    30bc:	f10d 0e34 	add.w	lr, sp, #52	; 0x34
    30c0:	f44a 6380 	orr.w	r3, r10, #1024	; 0x400
    30c4:	d141      	bne.n	314a <_printf_float+0x156>
    30c6:	2206      	movs	r2, #6
    30c8:	6062      	str	r2, [r4, #4]
    30ca:	2100      	movs	r1, #0
    30cc:	6023      	str	r3, [r4, #0]
    30ce:	9301      	str	r3, [sp, #4]
    30d0:	6863      	ldr	r3, [r4, #4]
    30d2:	f10d 0233 	add.w	r2, sp, #51	; 0x33
    30d6:	9005      	str	r0, [sp, #20]
    30d8:	9202      	str	r2, [sp, #8]
    30da:	9300      	str	r3, [sp, #0]
    30dc:	463a      	mov	r2, r7
    30de:	464b      	mov	r3, r9
    30e0:	9106      	str	r1, [sp, #24]
    30e2:	f8cd 8010 	str.w	r8, [sp, #16]
    30e6:	f8cd e00c 	str.w	lr, [sp, #12]
    30ea:	4628      	mov	r0, r5
    30ec:	f7ff fef0 	bl	2ed0 <__cvt>
    30f0:	f008 03df 	and.w	r3, r8, #223	; 0xdf
    30f4:	2b47      	cmp	r3, #71	; 0x47
    30f6:	4607      	mov	r7, r0
    30f8:	d109      	bne.n	310e <_printf_float+0x11a>
    30fa:	9b0d      	ldr	r3, [sp, #52]	; 0x34
    30fc:	1cd8      	adds	r0, r3, #3
    30fe:	db02      	blt.n	3106 <_printf_float+0x112>
    3100:	6862      	ldr	r2, [r4, #4]
    3102:	4293      	cmp	r3, r2
    3104:	dd59      	ble.n	31ba <_printf_float+0x1c6>
    3106:	f1a8 0802 	sub.w	r8, r8, #2
    310a:	fa5f f888 	uxtb.w	r8, r8
    310e:	f1b8 0f65 	cmp.w	r8, #101	; 0x65
    3112:	990d      	ldr	r1, [sp, #52]	; 0x34
    3114:	d836      	bhi.n	3184 <_printf_float+0x190>
    3116:	3901      	subs	r1, #1
    3118:	4642      	mov	r2, r8
    311a:	f104 0050 	add.w	r0, r4, #80	; 0x50
    311e:	910d      	str	r1, [sp, #52]	; 0x34
    3120:	f7ff ff32 	bl	2f88 <__exponent>
    3124:	9a0e      	ldr	r2, [sp, #56]	; 0x38
    3126:	4681      	mov	r9, r0
    3128:	1883      	adds	r3, r0, r2
    312a:	2a01      	cmp	r2, #1
    312c:	6123      	str	r3, [r4, #16]
    312e:	dc02      	bgt.n	3136 <_printf_float+0x142>
    3130:	6822      	ldr	r2, [r4, #0]
    3132:	07d1      	lsls	r1, r2, #31
    3134:	d501      	bpl.n	313a <_printf_float+0x146>
    3136:	3301      	adds	r3, #1
    3138:	6123      	str	r3, [r4, #16]
    313a:	f89d 3033 	ldrb.w	r3, [sp, #51]	; 0x33
    313e:	2b00      	cmp	r3, #0
    3140:	d0aa      	beq.n	3098 <_printf_float+0xa4>
    3142:	232d      	movs	r3, #45	; 0x2d
    3144:	f884 3043 	strb.w	r3, [r4, #67]	; 0x43
    3148:	e7a6      	b.n	3098 <_printf_float+0xa4>
    314a:	f1b8 0f67 	cmp.w	r8, #103	; 0x67
    314e:	d002      	beq.n	3156 <_printf_float+0x162>
    3150:	f1b8 0f47 	cmp.w	r8, #71	; 0x47
    3154:	d1b9      	bne.n	30ca <_printf_float+0xd6>
    3156:	b19a      	cbz	r2, 3180 <_printf_float+0x18c>
    3158:	2100      	movs	r1, #0
    315a:	9106      	str	r1, [sp, #24]
    315c:	f10d 0133 	add.w	r1, sp, #51	; 0x33
    3160:	e88d 000c 	stmia.w	sp, {r2, r3}
    3164:	6023      	str	r3, [r4, #0]
    3166:	9005      	str	r0, [sp, #20]
    3168:	463a      	mov	r2, r7
    316a:	f8cd 8010 	str.w	r8, [sp, #16]
    316e:	f8cd e00c 	str.w	lr, [sp, #12]
    3172:	9102      	str	r1, [sp, #8]
    3174:	464b      	mov	r3, r9
    3176:	4628      	mov	r0, r5
    3178:	f7ff feaa 	bl	2ed0 <__cvt>
    317c:	4607      	mov	r7, r0
    317e:	e7bc      	b.n	30fa <_printf_float+0x106>
    3180:	2201      	movs	r2, #1
    3182:	e7a1      	b.n	30c8 <_printf_float+0xd4>
    3184:	f1b8 0f66 	cmp.w	r8, #102	; 0x66
    3188:	d119      	bne.n	31be <_printf_float+0x1ca>
    318a:	2900      	cmp	r1, #0
    318c:	6863      	ldr	r3, [r4, #4]
    318e:	dd0c      	ble.n	31aa <_printf_float+0x1b6>
    3190:	6121      	str	r1, [r4, #16]
    3192:	b913      	cbnz	r3, 319a <_printf_float+0x1a6>
    3194:	6822      	ldr	r2, [r4, #0]
    3196:	07d2      	lsls	r2, r2, #31
    3198:	d502      	bpl.n	31a0 <_printf_float+0x1ac>
    319a:	3301      	adds	r3, #1
    319c:	440b      	add	r3, r1
    319e:	6123      	str	r3, [r4, #16]
    31a0:	9b0d      	ldr	r3, [sp, #52]	; 0x34
    31a2:	f04f 0900 	mov.w	r9, #0
    31a6:	65a3      	str	r3, [r4, #88]	; 0x58
    31a8:	e7c7      	b.n	313a <_printf_float+0x146>
    31aa:	b913      	cbnz	r3, 31b2 <_printf_float+0x1be>
    31ac:	6822      	ldr	r2, [r4, #0]
    31ae:	07d0      	lsls	r0, r2, #31
    31b0:	d501      	bpl.n	31b6 <_printf_float+0x1c2>
    31b2:	3302      	adds	r3, #2
    31b4:	e7f3      	b.n	319e <_printf_float+0x1aa>
    31b6:	2301      	movs	r3, #1
    31b8:	e7f1      	b.n	319e <_printf_float+0x1aa>
    31ba:	f04f 0867 	mov.w	r8, #103	; 0x67
    31be:	9b0d      	ldr	r3, [sp, #52]	; 0x34
    31c0:	9a0e      	ldr	r2, [sp, #56]	; 0x38
    31c2:	4293      	cmp	r3, r2
    31c4:	db05      	blt.n	31d2 <_printf_float+0x1de>
    31c6:	6822      	ldr	r2, [r4, #0]
    31c8:	6123      	str	r3, [r4, #16]
    31ca:	07d1      	lsls	r1, r2, #31
    31cc:	d5e8      	bpl.n	31a0 <_printf_float+0x1ac>
    31ce:	3301      	adds	r3, #1
    31d0:	e7e5      	b.n	319e <_printf_float+0x1aa>
    31d2:	2b00      	cmp	r3, #0
    31d4:	bfcc      	ite	gt
    31d6:	2301      	movgt	r3, #1
    31d8:	f1c3 0302 	rsble	r3, r3, #2
    31dc:	4413      	add	r3, r2
    31de:	e7de      	b.n	319e <_printf_float+0x1aa>
    31e0:	6823      	ldr	r3, [r4, #0]
    31e2:	055a      	lsls	r2, r3, #21
    31e4:	d407      	bmi.n	31f6 <_printf_float+0x202>
    31e6:	6923      	ldr	r3, [r4, #16]
    31e8:	463a      	mov	r2, r7
    31ea:	4659      	mov	r1, r11
    31ec:	4628      	mov	r0, r5
    31ee:	47b0      	blx	r6
    31f0:	3001      	adds	r0, #1
    31f2:	d12a      	bne.n	324a <_printf_float+0x256>
    31f4:	e75a      	b.n	30ac <_printf_float+0xb8>
    31f6:	f1b8 0f65 	cmp.w	r8, #101	; 0x65
    31fa:	f240 80dc 	bls.w	33b6 <_printf_float+0x3c2>
    31fe:	e9d4 0112 	ldrd	r0, r1, [r4, #72]	; 0x48
    3202:	2200      	movs	r2, #0
    3204:	2300      	movs	r3, #0
    3206:	f002 ff95 	bl	6134 <__aeabi_dcmpeq>
    320a:	2800      	cmp	r0, #0
    320c:	d039      	beq.n	3282 <_printf_float+0x28e>
    320e:	2301      	movs	r3, #1
    3210:	4a36      	ldr	r2, [pc, #216]	; (32ec <_printf_float+0x2f8>)
    3212:	4659      	mov	r1, r11
    3214:	4628      	mov	r0, r5
    3216:	47b0      	blx	r6
    3218:	3001      	adds	r0, #1
    321a:	f43f af47 	beq.w	30ac <_printf_float+0xb8>
    321e:	9b0e      	ldr	r3, [sp, #56]	; 0x38
    3220:	9a0d      	ldr	r2, [sp, #52]	; 0x34
    3222:	429a      	cmp	r2, r3
    3224:	db02      	blt.n	322c <_printf_float+0x238>
    3226:	6823      	ldr	r3, [r4, #0]
    3228:	07d8      	lsls	r0, r3, #31
    322a:	d50e      	bpl.n	324a <_printf_float+0x256>
    322c:	9b0a      	ldr	r3, [sp, #40]	; 0x28
    322e:	9a09      	ldr	r2, [sp, #36]	; 0x24
    3230:	4659      	mov	r1, r11
    3232:	4628      	mov	r0, r5
    3234:	47b0      	blx	r6
    3236:	3001      	adds	r0, #1
    3238:	f43f af38 	beq.w	30ac <_printf_float+0xb8>
    323c:	2700      	movs	r7, #0
    323e:	f104 081a 	add.w	r8, r4, #26
    3242:	9b0e      	ldr	r3, [sp, #56]	; 0x38
    3244:	3b01      	subs	r3, #1
    3246:	429f      	cmp	r7, r3
    3248:	db11      	blt.n	326e <_printf_float+0x27a>
    324a:	6823      	ldr	r3, [r4, #0]
    324c:	079f      	lsls	r7, r3, #30
    324e:	d508      	bpl.n	3262 <_printf_float+0x26e>
    3250:	2700      	movs	r7, #0
    3252:	f104 0819 	add.w	r8, r4, #25
    3256:	68e3      	ldr	r3, [r4, #12]
    3258:	9a0f      	ldr	r2, [sp, #60]	; 0x3c
    325a:	1a9b      	subs	r3, r3, r2
    325c:	429f      	cmp	r7, r3
    325e:	f2c0 80e7 	blt.w	3430 <_printf_float+0x43c>
    3262:	68e0      	ldr	r0, [r4, #12]
    3264:	9b0f      	ldr	r3, [sp, #60]	; 0x3c
    3266:	4298      	cmp	r0, r3
    3268:	bfb8      	it	lt
    326a:	4618      	movlt	r0, r3
    326c:	e720      	b.n	30b0 <_printf_float+0xbc>
    326e:	2301      	movs	r3, #1
    3270:	4642      	mov	r2, r8
    3272:	4659      	mov	r1, r11
    3274:	4628      	mov	r0, r5
    3276:	47b0      	blx	r6
    3278:	3001      	adds	r0, #1
    327a:	f43f af17 	beq.w	30ac <_printf_float+0xb8>
    327e:	3701      	adds	r7, #1
    3280:	e7df      	b.n	3242 <_printf_float+0x24e>
    3282:	9b0d      	ldr	r3, [sp, #52]	; 0x34
    3284:	2b00      	cmp	r3, #0
    3286:	dc33      	bgt.n	32f0 <_printf_float+0x2fc>
    3288:	2301      	movs	r3, #1
    328a:	4a18      	ldr	r2, [pc, #96]	; (32ec <_printf_float+0x2f8>)
    328c:	4659      	mov	r1, r11
    328e:	4628      	mov	r0, r5
    3290:	47b0      	blx	r6
    3292:	3001      	adds	r0, #1
    3294:	f43f af0a 	beq.w	30ac <_printf_float+0xb8>
    3298:	9b0d      	ldr	r3, [sp, #52]	; 0x34
    329a:	b923      	cbnz	r3, 32a6 <_printf_float+0x2b2>
    329c:	9b0e      	ldr	r3, [sp, #56]	; 0x38
    329e:	b913      	cbnz	r3, 32a6 <_printf_float+0x2b2>
    32a0:	6823      	ldr	r3, [r4, #0]
    32a2:	07d9      	lsls	r1, r3, #31
    32a4:	d5d1      	bpl.n	324a <_printf_float+0x256>
    32a6:	9b0a      	ldr	r3, [sp, #40]	; 0x28
    32a8:	9a09      	ldr	r2, [sp, #36]	; 0x24
    32aa:	4659      	mov	r1, r11
    32ac:	4628      	mov	r0, r5
    32ae:	47b0      	blx	r6
    32b0:	3001      	adds	r0, #1
    32b2:	f43f aefb 	beq.w	30ac <_printf_float+0xb8>
    32b6:	f04f 0800 	mov.w	r8, #0
    32ba:	f104 091a 	add.w	r9, r4, #26
    32be:	9b0d      	ldr	r3, [sp, #52]	; 0x34
    32c0:	425b      	negs	r3, r3
    32c2:	4598      	cmp	r8, r3
    32c4:	db01      	blt.n	32ca <_printf_float+0x2d6>
    32c6:	9b0e      	ldr	r3, [sp, #56]	; 0x38
    32c8:	e78e      	b.n	31e8 <_printf_float+0x1f4>
    32ca:	2301      	movs	r3, #1
    32cc:	464a      	mov	r2, r9
    32ce:	4659      	mov	r1, r11
    32d0:	4628      	mov	r0, r5
    32d2:	47b0      	blx	r6
    32d4:	3001      	adds	r0, #1
    32d6:	f43f aee9 	beq.w	30ac <_printf_float+0xb8>
    32da:	f108 0801 	add.w	r8, r8, #1
    32de:	e7ee      	b.n	32be <_printf_float+0x2ca>
    32e0:	7fefffff 	.word	0x7fefffff
    32e4:	000066ad 	.word	0x000066ad
    32e8:	000066b1 	.word	0x000066b1
    32ec:	00006702 	.word	0x00006702
    32f0:	9a0e      	ldr	r2, [sp, #56]	; 0x38
    32f2:	6da3      	ldr	r3, [r4, #88]	; 0x58
    32f4:	429a      	cmp	r2, r3
    32f6:	bfa8      	it	ge
    32f8:	461a      	movge	r2, r3
    32fa:	2a00      	cmp	r2, #0
    32fc:	4690      	mov	r8, r2
    32fe:	dc36      	bgt.n	336e <_printf_float+0x37a>
    3300:	f04f 0a00 	mov.w	r10, #0
    3304:	f104 031a 	add.w	r3, r4, #26
    3308:	ea28 78e8 	bic.w	r8, r8, r8, asr #31
    330c:	930b      	str	r3, [sp, #44]	; 0x2c
    330e:	f8d4 9058 	ldr.w	r9, [r4, #88]	; 0x58
    3312:	eba9 0308 	sub.w	r3, r9, r8
    3316:	459a      	cmp	r10, r3
    3318:	db31      	blt.n	337e <_printf_float+0x38a>
    331a:	9b0e      	ldr	r3, [sp, #56]	; 0x38
    331c:	9a0d      	ldr	r2, [sp, #52]	; 0x34
    331e:	429a      	cmp	r2, r3
    3320:	db38      	blt.n	3394 <_printf_float+0x3a0>
    3322:	6823      	ldr	r3, [r4, #0]
    3324:	07da      	lsls	r2, r3, #31
    3326:	d435      	bmi.n	3394 <_printf_float+0x3a0>
    3328:	9b0e      	ldr	r3, [sp, #56]	; 0x38
    332a:	990d      	ldr	r1, [sp, #52]	; 0x34
    332c:	eba3 0209 	sub.w	r2, r3, r9
    3330:	eba3 0801 	sub.w	r8, r3, r1
    3334:	4590      	cmp	r8, r2
    3336:	bfa8      	it	ge
    3338:	4690      	movge	r8, r2
    333a:	f1b8 0f00 	cmp.w	r8, #0
    333e:	dc31      	bgt.n	33a4 <_printf_float+0x3b0>
    3340:	2700      	movs	r7, #0
    3342:	ea28 78e8 	bic.w	r8, r8, r8, asr #31
    3346:	f104 091a 	add.w	r9, r4, #26
    334a:	9a0d      	ldr	r2, [sp, #52]	; 0x34
    334c:	9b0e      	ldr	r3, [sp, #56]	; 0x38
    334e:	1a9b      	subs	r3, r3, r2
    3350:	eba3 0308 	sub.w	r3, r3, r8
    3354:	429f      	cmp	r7, r3
    3356:	f6bf af78 	bge.w	324a <_printf_float+0x256>
    335a:	2301      	movs	r3, #1
    335c:	464a      	mov	r2, r9
    335e:	4659      	mov	r1, r11
    3360:	4628      	mov	r0, r5
    3362:	47b0      	blx	r6
    3364:	3001      	adds	r0, #1
    3366:	f43f aea1 	beq.w	30ac <_printf_float+0xb8>
    336a:	3701      	adds	r7, #1
    336c:	e7ed      	b.n	334a <_printf_float+0x356>
    336e:	4613      	mov	r3, r2
    3370:	4659      	mov	r1, r11
    3372:	463a      	mov	r2, r7
    3374:	4628      	mov	r0, r5
    3376:	47b0      	blx	r6
    3378:	3001      	adds	r0, #1
    337a:	d1c1      	bne.n	3300 <_printf_float+0x30c>
    337c:	e696      	b.n	30ac <_printf_float+0xb8>
    337e:	2301      	movs	r3, #1
    3380:	9a0b      	ldr	r2, [sp, #44]	; 0x2c
    3382:	4659      	mov	r1, r11
    3384:	4628      	mov	r0, r5
    3386:	47b0      	blx	r6
    3388:	3001      	adds	r0, #1
    338a:	f43f ae8f 	beq.w	30ac <_printf_float+0xb8>
    338e:	f10a 0a01 	add.w	r10, r10, #1
    3392:	e7bc      	b.n	330e <_printf_float+0x31a>
    3394:	9b0a      	ldr	r3, [sp, #40]	; 0x28
    3396:	9a09      	ldr	r2, [sp, #36]	; 0x24
    3398:	4659      	mov	r1, r11
    339a:	4628      	mov	r0, r5
    339c:	47b0      	blx	r6
    339e:	3001      	adds	r0, #1
    33a0:	d1c2      	bne.n	3328 <_printf_float+0x334>
    33a2:	e683      	b.n	30ac <_printf_float+0xb8>
    33a4:	4643      	mov	r3, r8
    33a6:	eb07 0209 	add.w	r2, r7, r9
    33aa:	4659      	mov	r1, r11
    33ac:	4628      	mov	r0, r5
    33ae:	47b0      	blx	r6
    33b0:	3001      	adds	r0, #1
    33b2:	d1c5      	bne.n	3340 <_printf_float+0x34c>
    33b4:	e67a      	b.n	30ac <_printf_float+0xb8>
    33b6:	9a0e      	ldr	r2, [sp, #56]	; 0x38
    33b8:	2a01      	cmp	r2, #1
    33ba:	dc01      	bgt.n	33c0 <_printf_float+0x3cc>
    33bc:	07db      	lsls	r3, r3, #31
    33be:	d534      	bpl.n	342a <_printf_float+0x436>
    33c0:	2301      	movs	r3, #1
    33c2:	463a      	mov	r2, r7
    33c4:	4659      	mov	r1, r11
    33c6:	4628      	mov	r0, r5
    33c8:	47b0      	blx	r6
    33ca:	3001      	adds	r0, #1
    33cc:	f43f ae6e 	beq.w	30ac <_printf_float+0xb8>
    33d0:	9b0a      	ldr	r3, [sp, #40]	; 0x28
    33d2:	9a09      	ldr	r2, [sp, #36]	; 0x24
    33d4:	4659      	mov	r1, r11
    33d6:	4628      	mov	r0, r5
    33d8:	47b0      	blx	r6
    33da:	3001      	adds	r0, #1
    33dc:	f43f ae66 	beq.w	30ac <_printf_float+0xb8>
    33e0:	e9d4 0112 	ldrd	r0, r1, [r4, #72]	; 0x48
    33e4:	2200      	movs	r2, #0
    33e6:	2300      	movs	r3, #0
    33e8:	f002 fea4 	bl	6134 <__aeabi_dcmpeq>
    33ec:	b150      	cbz	r0, 3404 <_printf_float+0x410>
    33ee:	2700      	movs	r7, #0
    33f0:	f104 081a 	add.w	r8, r4, #26
    33f4:	9b0e      	ldr	r3, [sp, #56]	; 0x38
    33f6:	3b01      	subs	r3, #1
    33f8:	429f      	cmp	r7, r3
    33fa:	db0c      	blt.n	3416 <_printf_float+0x422>
    33fc:	464b      	mov	r3, r9
    33fe:	f104 0250 	add.w	r2, r4, #80	; 0x50
    3402:	e6f2      	b.n	31ea <_printf_float+0x1f6>
    3404:	9b0e      	ldr	r3, [sp, #56]	; 0x38
    3406:	1c7a      	adds	r2, r7, #1
    3408:	3b01      	subs	r3, #1
    340a:	4659      	mov	r1, r11
    340c:	4628      	mov	r0, r5
    340e:	47b0      	blx	r6
    3410:	3001      	adds	r0, #1
    3412:	d1f3      	bne.n	33fc <_printf_float+0x408>
    3414:	e64a      	b.n	30ac <_printf_float+0xb8>
    3416:	2301      	movs	r3, #1
    3418:	4642      	mov	r2, r8
    341a:	4659      	mov	r1, r11
    341c:	4628      	mov	r0, r5
    341e:	47b0      	blx	r6
    3420:	3001      	adds	r0, #1
    3422:	f43f ae43 	beq.w	30ac <_printf_float+0xb8>
    3426:	3701      	adds	r7, #1
    3428:	e7e4      	b.n	33f4 <_printf_float+0x400>
    342a:	2301      	movs	r3, #1
    342c:	463a      	mov	r2, r7
    342e:	e7ec      	b.n	340a <_printf_float+0x416>
    3430:	2301      	movs	r3, #1
    3432:	4642      	mov	r2, r8
    3434:	4659      	mov	r1, r11
    3436:	4628      	mov	r0, r5
    3438:	47b0      	blx	r6
    343a:	3001      	adds	r0, #1
    343c:	f43f ae36 	beq.w	30ac <_printf_float+0xb8>
    3440:	3701      	adds	r7, #1
    3442:	e708      	b.n	3256 <_printf_float+0x262>
    3444:	463a      	mov	r2, r7
    3446:	464b      	mov	r3, r9
    3448:	4638      	mov	r0, r7
    344a:	4649      	mov	r1, r9
    344c:	f002 fea4 	bl	6198 <__aeabi_dcmpun>
    3450:	2800      	cmp	r0, #0
    3452:	f43f ae30 	beq.w	30b6 <_printf_float+0xc2>
    3456:	4b01      	ldr	r3, [pc, #4]	; (345c <_printf_float+0x468>)
    3458:	4f01      	ldr	r7, [pc, #4]	; (3460 <_printf_float+0x46c>)
    345a:	e612      	b.n	3082 <_printf_float+0x8e>
    345c:	000066b5 	.word	0x000066b5
    3460:	000066b9 	.word	0x000066b9

00003464 <_printf_common>:
    3464:	e92d 47f0 	stmdb	sp!, {r4, r5, r6, r7, r8, r9, r10, lr}
    3468:	4691      	mov	r9, r2
    346a:	461f      	mov	r7, r3
    346c:	688a      	ldr	r2, [r1, #8]
    346e:	690b      	ldr	r3, [r1, #16]
    3470:	4606      	mov	r6, r0
    3472:	4293      	cmp	r3, r2
    3474:	bfb8      	it	lt
    3476:	4613      	movlt	r3, r2
    3478:	f8c9 3000 	str.w	r3, [r9]
    347c:	f891 2043 	ldrb.w	r2, [r1, #67]	; 0x43
    3480:	460c      	mov	r4, r1
    3482:	f8dd 8020 	ldr.w	r8, [sp, #32]
    3486:	b112      	cbz	r2, 348e <_printf_common+0x2a>
    3488:	3301      	adds	r3, #1
    348a:	f8c9 3000 	str.w	r3, [r9]
    348e:	6823      	ldr	r3, [r4, #0]
    3490:	0699      	lsls	r1, r3, #26
    3492:	bf42      	ittt	mi
    3494:	f8d9 3000 	ldrmi.w	r3, [r9]
    3498:	3302      	addmi	r3, #2
    349a:	f8c9 3000 	strmi.w	r3, [r9]
    349e:	6825      	ldr	r5, [r4, #0]
    34a0:	f015 0506 	ands.w	r5, r5, #6
    34a4:	d107      	bne.n	34b6 <_printf_common+0x52>
    34a6:	f104 0a19 	add.w	r10, r4, #25
    34aa:	68e3      	ldr	r3, [r4, #12]
    34ac:	f8d9 2000 	ldr.w	r2, [r9]
    34b0:	1a9b      	subs	r3, r3, r2
    34b2:	429d      	cmp	r5, r3
    34b4:	db2a      	blt.n	350c <_printf_common+0xa8>
    34b6:	f894 3043 	ldrb.w	r3, [r4, #67]	; 0x43
    34ba:	6822      	ldr	r2, [r4, #0]
    34bc:	3300      	adds	r3, #0
    34be:	bf18      	it	ne
    34c0:	2301      	movne	r3, #1
    34c2:	0692      	lsls	r2, r2, #26
    34c4:	d42f      	bmi.n	3526 <_printf_common+0xc2>
    34c6:	f104 0243 	add.w	r2, r4, #67	; 0x43
    34ca:	4639      	mov	r1, r7
    34cc:	4630      	mov	r0, r6
    34ce:	47c0      	blx	r8
    34d0:	3001      	adds	r0, #1
    34d2:	d022      	beq.n	351a <_printf_common+0xb6>
    34d4:	6823      	ldr	r3, [r4, #0]
    34d6:	68e5      	ldr	r5, [r4, #12]
    34d8:	f003 0306 	and.w	r3, r3, #6
    34dc:	2b04      	cmp	r3, #4
    34de:	bf18      	it	ne
    34e0:	2500      	movne	r5, #0
    34e2:	f8d9 2000 	ldr.w	r2, [r9]
    34e6:	f04f 0900 	mov.w	r9, #0
    34ea:	bf08      	it	eq
    34ec:	1aad      	subeq	r5, r5, r2
    34ee:	68a3      	ldr	r3, [r4, #8]
    34f0:	6922      	ldr	r2, [r4, #16]
    34f2:	bf08      	it	eq
    34f4:	ea25 75e5 	biceq.w	r5, r5, r5, asr #31
    34f8:	4293      	cmp	r3, r2
    34fa:	bfc4      	itt	gt
    34fc:	1a9b      	subgt	r3, r3, r2
    34fe:	18ed      	addgt	r5, r5, r3
    3500:	341a      	adds	r4, #26
    3502:	454d      	cmp	r5, r9
    3504:	d11b      	bne.n	353e <_printf_common+0xda>
    3506:	2000      	movs	r0, #0
    3508:	e8bd 87f0 	ldmia.w	sp!, {r4, r5, r6, r7, r8, r9, r10, pc}
    350c:	2301      	movs	r3, #1
    350e:	4652      	mov	r2, r10
    3510:	4639      	mov	r1, r7
    3512:	4630      	mov	r0, r6
    3514:	47c0      	blx	r8
    3516:	3001      	adds	r0, #1
    3518:	d103      	bne.n	3522 <_printf_common+0xbe>
    351a:	f04f 30ff 	mov.w	r0, #4294967295	; 0xffffffff
    351e:	e8bd 87f0 	ldmia.w	sp!, {r4, r5, r6, r7, r8, r9, r10, pc}
    3522:	3501      	adds	r5, #1
    3524:	e7c1      	b.n	34aa <_printf_common+0x46>
    3526:	2030      	movs	r0, #48	; 0x30
    3528:	18e1      	adds	r1, r4, r3
    352a:	f881 0043 	strb.w	r0, [r1, #67]	; 0x43
    352e:	1c5a      	adds	r2, r3, #1
    3530:	f894 1045 	ldrb.w	r1, [r4, #69]	; 0x45
    3534:	4422      	add	r2, r4
    3536:	3302      	adds	r3, #2
    3538:	f882 1043 	strb.w	r1, [r2, #67]	; 0x43
    353c:	e7c3      	b.n	34c6 <_printf_common+0x62>
    353e:	2301      	movs	r3, #1
    3540:	4622      	mov	r2, r4
    3542:	4639      	mov	r1, r7
    3544:	4630      	mov	r0, r6
    3546:	47c0      	blx	r8
    3548:	3001      	adds	r0, #1
    354a:	d0e6      	beq.n	351a <_printf_common+0xb6>
    354c:	f109 0901 	add.w	r9, r9, #1
    3550:	e7d7      	b.n	3502 <_printf_common+0x9e>
	...

00003554 <_printf_i>:
    3554:	e92d 43f0 	stmdb	sp!, {r4, r5, r6, r7, r8, r9, lr}
    3558:	4617      	mov	r7, r2
    355a:	7e0a      	ldrb	r2, [r1, #24]
    355c:	b085      	sub	sp, #20
    355e:	2a6e      	cmp	r2, #110	; 0x6e
    3560:	4698      	mov	r8, r3
    3562:	4606      	mov	r6, r0
    3564:	460c      	mov	r4, r1
    3566:	9b0c      	ldr	r3, [sp, #48]	; 0x30
    3568:	f101 0e43 	add.w	lr, r1, #67	; 0x43
    356c:	f000 80bc 	beq.w	36e8 <_printf_i+0x194>
    3570:	d81a      	bhi.n	35a8 <_printf_i+0x54>
    3572:	2a63      	cmp	r2, #99	; 0x63
    3574:	d02e      	beq.n	35d4 <_printf_i+0x80>
    3576:	d80a      	bhi.n	358e <_printf_i+0x3a>
    3578:	2a00      	cmp	r2, #0
    357a:	f000 80c8 	beq.w	370e <_printf_i+0x1ba>
    357e:	2a58      	cmp	r2, #88	; 0x58
    3580:	f000 808a 	beq.w	3698 <_printf_i+0x144>
    3584:	f104 0542 	add.w	r5, r4, #66	; 0x42
    3588:	f884 2042 	strb.w	r2, [r4, #66]	; 0x42
    358c:	e02a      	b.n	35e4 <_printf_i+0x90>
    358e:	2a64      	cmp	r2, #100	; 0x64
    3590:	d001      	beq.n	3596 <_printf_i+0x42>
    3592:	2a69      	cmp	r2, #105	; 0x69
    3594:	d1f6      	bne.n	3584 <_printf_i+0x30>
    3596:	6821      	ldr	r1, [r4, #0]
    3598:	681a      	ldr	r2, [r3, #0]
    359a:	f011 0f80 	tst.w	r1, #128	; 0x80
    359e:	d023      	beq.n	35e8 <_printf_i+0x94>
    35a0:	1d11      	adds	r1, r2, #4
    35a2:	6019      	str	r1, [r3, #0]
    35a4:	6813      	ldr	r3, [r2, #0]
    35a6:	e027      	b.n	35f8 <_printf_i+0xa4>
    35a8:	2a73      	cmp	r2, #115	; 0x73
    35aa:	f000 80b4 	beq.w	3716 <_printf_i+0x1c2>
    35ae:	d808      	bhi.n	35c2 <_printf_i+0x6e>
    35b0:	2a6f      	cmp	r2, #111	; 0x6f
    35b2:	d02a      	beq.n	360a <_printf_i+0xb6>
    35b4:	2a70      	cmp	r2, #112	; 0x70
    35b6:	d1e5      	bne.n	3584 <_printf_i+0x30>
    35b8:	680a      	ldr	r2, [r1, #0]
    35ba:	f042 0220 	orr.w	r2, r2, #32
    35be:	600a      	str	r2, [r1, #0]
    35c0:	e003      	b.n	35ca <_printf_i+0x76>
    35c2:	2a75      	cmp	r2, #117	; 0x75
    35c4:	d021      	beq.n	360a <_printf_i+0xb6>
    35c6:	2a78      	cmp	r2, #120	; 0x78
    35c8:	d1dc      	bne.n	3584 <_printf_i+0x30>
    35ca:	2278      	movs	r2, #120	; 0x78
    35cc:	496f      	ldr	r1, [pc, #444]	; (378c <_printf_i+0x238>)
    35ce:	f884 2045 	strb.w	r2, [r4, #69]	; 0x45
    35d2:	e064      	b.n	369e <_printf_i+0x14a>
    35d4:	681a      	ldr	r2, [r3, #0]
    35d6:	f101 0542 	add.w	r5, r1, #66	; 0x42
    35da:	1d11      	adds	r1, r2, #4
    35dc:	6019      	str	r1, [r3, #0]
    35de:	6813      	ldr	r3, [r2, #0]
    35e0:	f884 3042 	strb.w	r3, [r4, #66]	; 0x42
    35e4:	2301      	movs	r3, #1
    35e6:	e0a3      	b.n	3730 <_printf_i+0x1dc>
    35e8:	f011 0f40 	tst.w	r1, #64	; 0x40
    35ec:	f102 0104 	add.w	r1, r2, #4
    35f0:	6019      	str	r1, [r3, #0]
    35f2:	d0d7      	beq.n	35a4 <_printf_i+0x50>
    35f4:	f9b2 3000 	ldrsh.w	r3, [r2]
    35f8:	2b00      	cmp	r3, #0
    35fa:	da03      	bge.n	3604 <_printf_i+0xb0>
    35fc:	222d      	movs	r2, #45	; 0x2d
    35fe:	425b      	negs	r3, r3
    3600:	f884 2043 	strb.w	r2, [r4, #67]	; 0x43
    3604:	4962      	ldr	r1, [pc, #392]	; (3790 <_printf_i+0x23c>)
    3606:	220a      	movs	r2, #10
    3608:	e017      	b.n	363a <_printf_i+0xe6>
    360a:	6820      	ldr	r0, [r4, #0]
    360c:	6819      	ldr	r1, [r3, #0]
    360e:	f010 0f80 	tst.w	r0, #128	; 0x80
    3612:	d003      	beq.n	361c <_printf_i+0xc8>
    3614:	1d08      	adds	r0, r1, #4
    3616:	6018      	str	r0, [r3, #0]
    3618:	680b      	ldr	r3, [r1, #0]
    361a:	e006      	b.n	362a <_printf_i+0xd6>
    361c:	f010 0f40 	tst.w	r0, #64	; 0x40
    3620:	f101 0004 	add.w	r0, r1, #4
    3624:	6018      	str	r0, [r3, #0]
    3626:	d0f7      	beq.n	3618 <_printf_i+0xc4>
    3628:	880b      	ldrh	r3, [r1, #0]
    362a:	2a6f      	cmp	r2, #111	; 0x6f
    362c:	bf14      	ite	ne
    362e:	220a      	movne	r2, #10
    3630:	2208      	moveq	r2, #8
    3632:	4957      	ldr	r1, [pc, #348]	; (3790 <_printf_i+0x23c>)
    3634:	2000      	movs	r0, #0
    3636:	f884 0043 	strb.w	r0, [r4, #67]	; 0x43
    363a:	6865      	ldr	r5, [r4, #4]
    363c:	2d00      	cmp	r5, #0
    363e:	60a5      	str	r5, [r4, #8]
    3640:	f2c0 809c 	blt.w	377c <_printf_i+0x228>
    3644:	6820      	ldr	r0, [r4, #0]
    3646:	f020 0004 	bic.w	r0, r0, #4
    364a:	6020      	str	r0, [r4, #0]
    364c:	2b00      	cmp	r3, #0
    364e:	d13f      	bne.n	36d0 <_printf_i+0x17c>
    3650:	2d00      	cmp	r5, #0
    3652:	f040 8095 	bne.w	3780 <_printf_i+0x22c>
    3656:	4675      	mov	r5, lr
    3658:	2a08      	cmp	r2, #8
    365a:	d10b      	bne.n	3674 <_printf_i+0x120>
    365c:	6823      	ldr	r3, [r4, #0]
    365e:	07da      	lsls	r2, r3, #31
    3660:	d508      	bpl.n	3674 <_printf_i+0x120>
    3662:	6923      	ldr	r3, [r4, #16]
    3664:	6862      	ldr	r2, [r4, #4]
    3666:	429a      	cmp	r2, r3
    3668:	bfde      	ittt	le
    366a:	2330      	movle	r3, #48	; 0x30
    366c:	f805 3c01 	strble.w	r3, [r5, #-1]
    3670:	f105 35ff 	addle.w	r5, r5, #4294967295	; 0xffffffff
    3674:	ebae 0305 	sub.w	r3, lr, r5
    3678:	6123      	str	r3, [r4, #16]
    367a:	f8cd 8000 	str.w	r8, [sp]
    367e:	463b      	mov	r3, r7
    3680:	aa03      	add	r2, sp, #12
    3682:	4621      	mov	r1, r4
    3684:	4630      	mov	r0, r6
    3686:	f7ff feed 	bl	3464 <_printf_common>
    368a:	3001      	adds	r0, #1
    368c:	d155      	bne.n	373a <_printf_i+0x1e6>
    368e:	f04f 30ff 	mov.w	r0, #4294967295	; 0xffffffff
    3692:	b005      	add	sp, #20
    3694:	e8bd 83f0 	ldmia.w	sp!, {r4, r5, r6, r7, r8, r9, pc}
    3698:	f881 2045 	strb.w	r2, [r1, #69]	; 0x45
    369c:	493c      	ldr	r1, [pc, #240]	; (3790 <_printf_i+0x23c>)
    369e:	6822      	ldr	r2, [r4, #0]
    36a0:	6818      	ldr	r0, [r3, #0]
    36a2:	f012 0f80 	tst.w	r2, #128	; 0x80
    36a6:	f100 0504 	add.w	r5, r0, #4
    36aa:	601d      	str	r5, [r3, #0]
    36ac:	d001      	beq.n	36b2 <_printf_i+0x15e>
    36ae:	6803      	ldr	r3, [r0, #0]
    36b0:	e002      	b.n	36b8 <_printf_i+0x164>
    36b2:	0655      	lsls	r5, r2, #25
    36b4:	d5fb      	bpl.n	36ae <_printf_i+0x15a>
    36b6:	8803      	ldrh	r3, [r0, #0]
    36b8:	07d0      	lsls	r0, r2, #31
    36ba:	bf44      	itt	mi
    36bc:	f042 0220 	orrmi.w	r2, r2, #32
    36c0:	6022      	strmi	r2, [r4, #0]
    36c2:	b91b      	cbnz	r3, 36cc <_printf_i+0x178>
    36c4:	6822      	ldr	r2, [r4, #0]
    36c6:	f022 0220 	bic.w	r2, r2, #32
    36ca:	6022      	str	r2, [r4, #0]
    36cc:	2210      	movs	r2, #16
    36ce:	e7b1      	b.n	3634 <_printf_i+0xe0>
    36d0:	4675      	mov	r5, lr
    36d2:	fbb3 f0f2 	udiv	r0, r3, r2
    36d6:	fb02 3310 	mls	r3, r2, r0, r3
    36da:	5ccb      	ldrb	r3, [r1, r3]
    36dc:	f805 3d01 	strb.w	r3, [r5, #-1]!
    36e0:	4603      	mov	r3, r0
    36e2:	2800      	cmp	r0, #0
    36e4:	d1f5      	bne.n	36d2 <_printf_i+0x17e>
    36e6:	e7b7      	b.n	3658 <_printf_i+0x104>
    36e8:	6808      	ldr	r0, [r1, #0]
    36ea:	681a      	ldr	r2, [r3, #0]
    36ec:	f010 0f80 	tst.w	r0, #128	; 0x80
    36f0:	6949      	ldr	r1, [r1, #20]
    36f2:	d004      	beq.n	36fe <_printf_i+0x1aa>
    36f4:	1d10      	adds	r0, r2, #4
    36f6:	6018      	str	r0, [r3, #0]
    36f8:	6813      	ldr	r3, [r2, #0]
    36fa:	6019      	str	r1, [r3, #0]
    36fc:	e007      	b.n	370e <_printf_i+0x1ba>
    36fe:	f010 0f40 	tst.w	r0, #64	; 0x40
    3702:	f102 0004 	add.w	r0, r2, #4
    3706:	6018      	str	r0, [r3, #0]
    3708:	6813      	ldr	r3, [r2, #0]
    370a:	d0f6      	beq.n	36fa <_printf_i+0x1a6>
    370c:	8019      	strh	r1, [r3, #0]
    370e:	2300      	movs	r3, #0
    3710:	4675      	mov	r5, lr
    3712:	6123      	str	r3, [r4, #16]
    3714:	e7b1      	b.n	367a <_printf_i+0x126>
    3716:	681a      	ldr	r2, [r3, #0]
    3718:	1d11      	adds	r1, r2, #4
    371a:	6019      	str	r1, [r3, #0]
    371c:	6815      	ldr	r5, [r2, #0]
    371e:	2100      	movs	r1, #0
    3720:	6862      	ldr	r2, [r4, #4]
    3722:	4628      	mov	r0, r5
    3724:	f7ff f98c 	bl	2a40 <memchr>
    3728:	b108      	cbz	r0, 372e <_printf_i+0x1da>
    372a:	1b40      	subs	r0, r0, r5
    372c:	6060      	str	r0, [r4, #4]
    372e:	6863      	ldr	r3, [r4, #4]
    3730:	6123      	str	r3, [r4, #16]
    3732:	2300      	movs	r3, #0
    3734:	f884 3043 	strb.w	r3, [r4, #67]	; 0x43
    3738:	e79f      	b.n	367a <_printf_i+0x126>
    373a:	6923      	ldr	r3, [r4, #16]
    373c:	462a      	mov	r2, r5
    373e:	4639      	mov	r1, r7
    3740:	4630      	mov	r0, r6
    3742:	47c0      	blx	r8
    3744:	3001      	adds	r0, #1
    3746:	d0a2      	beq.n	368e <_printf_i+0x13a>
    3748:	6823      	ldr	r3, [r4, #0]
    374a:	079b      	lsls	r3, r3, #30
    374c:	d507      	bpl.n	375e <_printf_i+0x20a>
    374e:	2500      	movs	r5, #0
    3750:	f104 0919 	add.w	r9, r4, #25
    3754:	68e3      	ldr	r3, [r4, #12]
    3756:	9a03      	ldr	r2, [sp, #12]
    3758:	1a9b      	subs	r3, r3, r2
    375a:	429d      	cmp	r5, r3
    375c:	db05      	blt.n	376a <_printf_i+0x216>
    375e:	68e0      	ldr	r0, [r4, #12]
    3760:	9b03      	ldr	r3, [sp, #12]
    3762:	4298      	cmp	r0, r3
    3764:	bfb8      	it	lt
    3766:	4618      	movlt	r0, r3
    3768:	e793      	b.n	3692 <_printf_i+0x13e>
    376a:	2301      	movs	r3, #1
    376c:	464a      	mov	r2, r9
    376e:	4639      	mov	r1, r7
    3770:	4630      	mov	r0, r6
    3772:	47c0      	blx	r8
    3774:	3001      	adds	r0, #1
    3776:	d08a      	beq.n	368e <_printf_i+0x13a>
    3778:	3501      	adds	r5, #1
    377a:	e7eb      	b.n	3754 <_printf_i+0x200>
    377c:	2b00      	cmp	r3, #0
    377e:	d1a7      	bne.n	36d0 <_printf_i+0x17c>
    3780:	780b      	ldrb	r3, [r1, #0]
    3782:	f104 0542 	add.w	r5, r4, #66	; 0x42
    3786:	f884 3042 	strb.w	r3, [r4, #66]	; 0x42
    378a:	e765      	b.n	3658 <_printf_i+0x104>
    378c:	000066ce 	.word	0x000066ce
    3790:	000066bd 	.word	0x000066bd

00003794 <_scanf_chars>:
    3794:	e92d 41f0 	stmdb	sp!, {r4, r5, r6, r7, r8, lr}
    3798:	4615      	mov	r5, r2
    379a:	688a      	ldr	r2, [r1, #8]
    379c:	4680      	mov	r8, r0
    379e:	460c      	mov	r4, r1
    37a0:	b932      	cbnz	r2, 37b0 <_scanf_chars+0x1c>
    37a2:	698a      	ldr	r2, [r1, #24]
    37a4:	2a00      	cmp	r2, #0
    37a6:	bf0c      	ite	eq
    37a8:	2201      	moveq	r2, #1
    37aa:	f04f 32ff 	movne.w	r2, #4294967295	; 0xffffffff
    37ae:	608a      	str	r2, [r1, #8]
    37b0:	2600      	movs	r6, #0
    37b2:	6822      	ldr	r2, [r4, #0]
    37b4:	06d1      	lsls	r1, r2, #27
    37b6:	bf5f      	itttt	pl
    37b8:	681a      	ldrpl	r2, [r3, #0]
    37ba:	1d11      	addpl	r1, r2, #4
    37bc:	6019      	strpl	r1, [r3, #0]
    37be:	6817      	ldrpl	r7, [r2, #0]
    37c0:	69a3      	ldr	r3, [r4, #24]
    37c2:	b1db      	cbz	r3, 37fc <_scanf_chars+0x68>
    37c4:	2b01      	cmp	r3, #1
    37c6:	d107      	bne.n	37d8 <_scanf_chars+0x44>
    37c8:	682b      	ldr	r3, [r5, #0]
    37ca:	6962      	ldr	r2, [r4, #20]
    37cc:	781b      	ldrb	r3, [r3, #0]
    37ce:	5cd3      	ldrb	r3, [r2, r3]
    37d0:	b9a3      	cbnz	r3, 37fc <_scanf_chars+0x68>
    37d2:	2e00      	cmp	r6, #0
    37d4:	d131      	bne.n	383a <_scanf_chars+0xa6>
    37d6:	e006      	b.n	37e6 <_scanf_chars+0x52>
    37d8:	2b02      	cmp	r3, #2
    37da:	d007      	beq.n	37ec <_scanf_chars+0x58>
    37dc:	2e00      	cmp	r6, #0
    37de:	d12c      	bne.n	383a <_scanf_chars+0xa6>
    37e0:	69a3      	ldr	r3, [r4, #24]
    37e2:	2b01      	cmp	r3, #1
    37e4:	d129      	bne.n	383a <_scanf_chars+0xa6>
    37e6:	2001      	movs	r0, #1
    37e8:	e8bd 81f0 	ldmia.w	sp!, {r4, r5, r6, r7, r8, pc}
    37ec:	f001 fbe8 	bl	4fc0 <__locale_ctype_ptr>
    37f0:	682b      	ldr	r3, [r5, #0]
    37f2:	781b      	ldrb	r3, [r3, #0]
    37f4:	4418      	add	r0, r3
    37f6:	7843      	ldrb	r3, [r0, #1]
    37f8:	071b      	lsls	r3, r3, #28
    37fa:	d4ef      	bmi.n	37dc <_scanf_chars+0x48>
    37fc:	6823      	ldr	r3, [r4, #0]
    37fe:	3601      	adds	r6, #1
    3800:	06da      	lsls	r2, r3, #27
    3802:	bf5e      	ittt	pl
    3804:	682b      	ldrpl	r3, [r5, #0]
    3806:	781b      	ldrbpl	r3, [r3, #0]
    3808:	703b      	strbpl	r3, [r7, #0]
    380a:	682a      	ldr	r2, [r5, #0]
    380c:	686b      	ldr	r3, [r5, #4]
    380e:	f102 0201 	add.w	r2, r2, #1
    3812:	602a      	str	r2, [r5, #0]
    3814:	68a2      	ldr	r2, [r4, #8]
    3816:	f103 33ff 	add.w	r3, r3, #4294967295	; 0xffffffff
    381a:	f102 32ff 	add.w	r2, r2, #4294967295	; 0xffffffff
    381e:	606b      	str	r3, [r5, #4]
    3820:	bf58      	it	pl
    3822:	3701      	addpl	r7, #1
    3824:	60a2      	str	r2, [r4, #8]
    3826:	b142      	cbz	r2, 383a <_scanf_chars+0xa6>
    3828:	2b00      	cmp	r3, #0
    382a:	dcc9      	bgt.n	37c0 <_scanf_chars+0x2c>
    382c:	f8d4 3180 	ldr.w	r3, [r4, #384]	; 0x180
    3830:	4629      	mov	r1, r5
    3832:	4640      	mov	r0, r8
    3834:	4798      	blx	r3
    3836:	2800      	cmp	r0, #0
    3838:	d0c2      	beq.n	37c0 <_scanf_chars+0x2c>
    383a:	6823      	ldr	r3, [r4, #0]
    383c:	f013 0310 	ands.w	r3, r3, #16
    3840:	d105      	bne.n	384e <_scanf_chars+0xba>
    3842:	68e2      	ldr	r2, [r4, #12]
    3844:	3201      	adds	r2, #1
    3846:	60e2      	str	r2, [r4, #12]
    3848:	69a2      	ldr	r2, [r4, #24]
    384a:	b102      	cbz	r2, 384e <_scanf_chars+0xba>
    384c:	703b      	strb	r3, [r7, #0]
    384e:	6923      	ldr	r3, [r4, #16]
    3850:	2000      	movs	r0, #0
    3852:	441e      	add	r6, r3
    3854:	6126      	str	r6, [r4, #16]
    3856:	e8bd 81f0 	ldmia.w	sp!, {r4, r5, r6, r7, r8, pc}
	...

0000385c <_scanf_i>:
    385c:	e92d 4ff0 	stmdb	sp!, {r4, r5, r6, r7, r8, r9, r10, r11, lr}
    3860:	460c      	mov	r4, r1
    3862:	469a      	mov	r10, r3
    3864:	4b74      	ldr	r3, [pc, #464]	; (3a38 <_scanf_i+0x1dc>)
    3866:	b087      	sub	sp, #28
    3868:	4683      	mov	r11, r0
    386a:	4616      	mov	r6, r2
    386c:	e893 0007 	ldmia.w	r3, {r0, r1, r2}
    3870:	ab03      	add	r3, sp, #12
    3872:	68a7      	ldr	r7, [r4, #8]
    3874:	e883 0007 	stmia.w	r3, {r0, r1, r2}
    3878:	4b70      	ldr	r3, [pc, #448]	; (3a3c <_scanf_i+0x1e0>)
    387a:	69a1      	ldr	r1, [r4, #24]
    387c:	4a70      	ldr	r2, [pc, #448]	; (3a40 <_scanf_i+0x1e4>)
    387e:	f104 091c 	add.w	r9, r4, #28
    3882:	2903      	cmp	r1, #3
    3884:	bf18      	it	ne
    3886:	461a      	movne	r2, r3
    3888:	1e7b      	subs	r3, r7, #1
    388a:	f5b3 7fae 	cmp.w	r3, #348	; 0x15c
    388e:	bf84      	itt	hi
    3890:	f240 135d 	movwhi	r3, #349	; 0x15d
    3894:	60a3      	strhi	r3, [r4, #8]
    3896:	6823      	ldr	r3, [r4, #0]
    3898:	bf88      	it	hi
    389a:	f46f 75ae 	mvnhi.w	r5, #348	; 0x15c
    389e:	f443 6350 	orr.w	r3, r3, #3328	; 0xd00
    38a2:	6023      	str	r3, [r4, #0]
    38a4:	bf98      	it	ls
    38a6:	2700      	movls	r7, #0
    38a8:	464b      	mov	r3, r9
    38aa:	f04f 0800 	mov.w	r8, #0
    38ae:	9200      	str	r2, [sp, #0]
    38b0:	bf88      	it	hi
    38b2:	197f      	addhi	r7, r7, r5
    38b4:	6831      	ldr	r1, [r6, #0]
    38b6:	9301      	str	r3, [sp, #4]
    38b8:	ab03      	add	r3, sp, #12
    38ba:	f853 0028 	ldr.w	r0, [r3, r8, lsl #2]
    38be:	2202      	movs	r2, #2
    38c0:	7809      	ldrb	r1, [r1, #0]
    38c2:	f7ff f8bd 	bl	2a40 <memchr>
    38c6:	9b01      	ldr	r3, [sp, #4]
    38c8:	b328      	cbz	r0, 3916 <_scanf_i+0xba>
    38ca:	f1b8 0f01 	cmp.w	r8, #1
    38ce:	d156      	bne.n	397e <_scanf_i+0x122>
    38d0:	6862      	ldr	r2, [r4, #4]
    38d2:	b92a      	cbnz	r2, 38e0 <_scanf_i+0x84>
    38d4:	2208      	movs	r2, #8
    38d6:	6062      	str	r2, [r4, #4]
    38d8:	6822      	ldr	r2, [r4, #0]
    38da:	f442 7200 	orr.w	r2, r2, #512	; 0x200
    38de:	6022      	str	r2, [r4, #0]
    38e0:	6822      	ldr	r2, [r4, #0]
    38e2:	f422 62a0 	bic.w	r2, r2, #1280	; 0x500
    38e6:	6022      	str	r2, [r4, #0]
    38e8:	68a2      	ldr	r2, [r4, #8]
    38ea:	1e51      	subs	r1, r2, #1
    38ec:	60a1      	str	r1, [r4, #8]
    38ee:	b192      	cbz	r2, 3916 <_scanf_i+0xba>
    38f0:	6832      	ldr	r2, [r6, #0]
    38f2:	1c5d      	adds	r5, r3, #1
    38f4:	1c51      	adds	r1, r2, #1
    38f6:	6031      	str	r1, [r6, #0]
    38f8:	7812      	ldrb	r2, [r2, #0]
    38fa:	701a      	strb	r2, [r3, #0]
    38fc:	6873      	ldr	r3, [r6, #4]
    38fe:	3b01      	subs	r3, #1
    3900:	2b00      	cmp	r3, #0
    3902:	6073      	str	r3, [r6, #4]
    3904:	dc06      	bgt.n	3914 <_scanf_i+0xb8>
    3906:	f8d4 3180 	ldr.w	r3, [r4, #384]	; 0x180
    390a:	4631      	mov	r1, r6
    390c:	4658      	mov	r0, r11
    390e:	4798      	blx	r3
    3910:	2800      	cmp	r0, #0
    3912:	d177      	bne.n	3a04 <_scanf_i+0x1a8>
    3914:	462b      	mov	r3, r5
    3916:	f108 0801 	add.w	r8, r8, #1
    391a:	f1b8 0f03 	cmp.w	r8, #3
    391e:	d1c9      	bne.n	38b4 <_scanf_i+0x58>
    3920:	6862      	ldr	r2, [r4, #4]
    3922:	b90a      	cbnz	r2, 3928 <_scanf_i+0xcc>
    3924:	220a      	movs	r2, #10
    3926:	6062      	str	r2, [r4, #4]
    3928:	6862      	ldr	r2, [r4, #4]
    392a:	4946      	ldr	r1, [pc, #280]	; (3a44 <_scanf_i+0x1e8>)
    392c:	6960      	ldr	r0, [r4, #20]
    392e:	1a89      	subs	r1, r1, r2
    3930:	9301      	str	r3, [sp, #4]
    3932:	f000 f8ab 	bl	3a8c <__sccl>
    3936:	9b01      	ldr	r3, [sp, #4]
    3938:	f04f 0800 	mov.w	r8, #0
    393c:	461d      	mov	r5, r3
    393e:	68a3      	ldr	r3, [r4, #8]
    3940:	2b00      	cmp	r3, #0
    3942:	d039      	beq.n	39b8 <_scanf_i+0x15c>
    3944:	6831      	ldr	r1, [r6, #0]
    3946:	6960      	ldr	r0, [r4, #20]
    3948:	780a      	ldrb	r2, [r1, #0]
    394a:	5c80      	ldrb	r0, [r0, r2]
    394c:	2800      	cmp	r0, #0
    394e:	d033      	beq.n	39b8 <_scanf_i+0x15c>
    3950:	2a30      	cmp	r2, #48	; 0x30
    3952:	6822      	ldr	r2, [r4, #0]
    3954:	d121      	bne.n	399a <_scanf_i+0x13e>
    3956:	0510      	lsls	r0, r2, #20
    3958:	d51f      	bpl.n	399a <_scanf_i+0x13e>
    395a:	f108 0801 	add.w	r8, r8, #1
    395e:	b117      	cbz	r7, 3966 <_scanf_i+0x10a>
    3960:	3301      	adds	r3, #1
    3962:	3f01      	subs	r7, #1
    3964:	60a3      	str	r3, [r4, #8]
    3966:	6873      	ldr	r3, [r6, #4]
    3968:	3b01      	subs	r3, #1
    396a:	2b00      	cmp	r3, #0
    396c:	6073      	str	r3, [r6, #4]
    396e:	dd1c      	ble.n	39aa <_scanf_i+0x14e>
    3970:	6833      	ldr	r3, [r6, #0]
    3972:	3301      	adds	r3, #1
    3974:	6033      	str	r3, [r6, #0]
    3976:	68a3      	ldr	r3, [r4, #8]
    3978:	3b01      	subs	r3, #1
    397a:	60a3      	str	r3, [r4, #8]
    397c:	e7df      	b.n	393e <_scanf_i+0xe2>
    397e:	f1b8 0f02 	cmp.w	r8, #2
    3982:	d1b1      	bne.n	38e8 <_scanf_i+0x8c>
    3984:	6822      	ldr	r2, [r4, #0]
    3986:	f402 61c0 	and.w	r1, r2, #1536	; 0x600
    398a:	f5b1 7f00 	cmp.w	r1, #512	; 0x200
    398e:	d1c2      	bne.n	3916 <_scanf_i+0xba>
    3990:	2110      	movs	r1, #16
    3992:	f442 7280 	orr.w	r2, r2, #256	; 0x100
    3996:	6061      	str	r1, [r4, #4]
    3998:	e7a5      	b.n	38e6 <_scanf_i+0x8a>
    399a:	f422 6210 	bic.w	r2, r2, #2304	; 0x900
    399e:	6022      	str	r2, [r4, #0]
    39a0:	780b      	ldrb	r3, [r1, #0]
    39a2:	3501      	adds	r5, #1
    39a4:	f805 3c01 	strb.w	r3, [r5, #-1]
    39a8:	e7dd      	b.n	3966 <_scanf_i+0x10a>
    39aa:	f8d4 3180 	ldr.w	r3, [r4, #384]	; 0x180
    39ae:	4631      	mov	r1, r6
    39b0:	4658      	mov	r0, r11
    39b2:	4798      	blx	r3
    39b4:	2800      	cmp	r0, #0
    39b6:	d0de      	beq.n	3976 <_scanf_i+0x11a>
    39b8:	6823      	ldr	r3, [r4, #0]
    39ba:	05d9      	lsls	r1, r3, #23
    39bc:	d50c      	bpl.n	39d8 <_scanf_i+0x17c>
    39be:	454d      	cmp	r5, r9
    39c0:	d908      	bls.n	39d4 <_scanf_i+0x178>
    39c2:	f815 1c01 	ldrb.w	r1, [r5, #-1]
    39c6:	1e6f      	subs	r7, r5, #1
    39c8:	f8d4 317c 	ldr.w	r3, [r4, #380]	; 0x17c
    39cc:	4632      	mov	r2, r6
    39ce:	4658      	mov	r0, r11
    39d0:	4798      	blx	r3
    39d2:	463d      	mov	r5, r7
    39d4:	454d      	cmp	r5, r9
    39d6:	d02c      	beq.n	3a32 <_scanf_i+0x1d6>
    39d8:	6822      	ldr	r2, [r4, #0]
    39da:	f012 0210 	ands.w	r2, r2, #16
    39de:	d11e      	bne.n	3a1e <_scanf_i+0x1c2>
    39e0:	702a      	strb	r2, [r5, #0]
    39e2:	6863      	ldr	r3, [r4, #4]
    39e4:	4649      	mov	r1, r9
    39e6:	4658      	mov	r0, r11
    39e8:	9e00      	ldr	r6, [sp, #0]
    39ea:	47b0      	blx	r6
    39ec:	6822      	ldr	r2, [r4, #0]
    39ee:	f8da 3000 	ldr.w	r3, [r10]
    39f2:	f012 0f20 	tst.w	r2, #32
    39f6:	d008      	beq.n	3a0a <_scanf_i+0x1ae>
    39f8:	1d1a      	adds	r2, r3, #4
    39fa:	f8ca 2000 	str.w	r2, [r10]
    39fe:	681b      	ldr	r3, [r3, #0]
    3a00:	6018      	str	r0, [r3, #0]
    3a02:	e009      	b.n	3a18 <_scanf_i+0x1bc>
    3a04:	f04f 0800 	mov.w	r8, #0
    3a08:	e7d6      	b.n	39b8 <_scanf_i+0x15c>
    3a0a:	07d2      	lsls	r2, r2, #31
    3a0c:	d5f4      	bpl.n	39f8 <_scanf_i+0x19c>
    3a0e:	1d1a      	adds	r2, r3, #4
    3a10:	f8ca 2000 	str.w	r2, [r10]
    3a14:	681b      	ldr	r3, [r3, #0]
    3a16:	8018      	strh	r0, [r3, #0]
    3a18:	68e3      	ldr	r3, [r4, #12]
    3a1a:	3301      	adds	r3, #1
    3a1c:	60e3      	str	r3, [r4, #12]
    3a1e:	2000      	movs	r0, #0
    3a20:	eba5 0509 	sub.w	r5, r5, r9
    3a24:	44a8      	add	r8, r5
    3a26:	6925      	ldr	r5, [r4, #16]
    3a28:	4445      	add	r5, r8
    3a2a:	6125      	str	r5, [r4, #16]
    3a2c:	b007      	add	sp, #28
    3a2e:	e8bd 8ff0 	ldmia.w	sp!, {r4, r5, r6, r7, r8, r9, r10, r11, pc}
    3a32:	2001      	movs	r0, #1
    3a34:	e7fa      	b.n	3a2c <_scanf_i+0x1d0>
    3a36:	bf00      	nop
    3a38:	000066e0 	.word	0x000066e0
    3a3c:	00003fe9 	.word	0x00003fe9
    3a40:	00003ec9 	.word	0x00003ec9
    3a44:	000066fc 	.word	0x000066fc

00003a48 <_open_r>:
    3a48:	b538      	push	{r3, r4, r5, lr}
    3a4a:	4605      	mov	r5, r0
    3a4c:	4608      	mov	r0, r1
    3a4e:	4611      	mov	r1, r2
    3a50:	2200      	movs	r2, #0
    3a52:	4c05      	ldr	r4, [pc, #20]	; (3a68 <_open_r+0x20>)
    3a54:	6022      	str	r2, [r4, #0]
    3a56:	461a      	mov	r2, r3
    3a58:	f7fd fee2 	bl	1820 <_open>
    3a5c:	1c43      	adds	r3, r0, #1
    3a5e:	d102      	bne.n	3a66 <_open_r+0x1e>
    3a60:	6823      	ldr	r3, [r4, #0]
    3a62:	b103      	cbz	r3, 3a66 <_open_r+0x1e>
    3a64:	602b      	str	r3, [r5, #0]
    3a66:	bd38      	pop	{r3, r4, r5, pc}
    3a68:	10000554 	.word	0x10000554

00003a6c <_sbrk_r>:
    3a6c:	b538      	push	{r3, r4, r5, lr}
    3a6e:	2300      	movs	r3, #0
    3a70:	4c05      	ldr	r4, [pc, #20]	; (3a88 <_sbrk_r+0x1c>)
    3a72:	4605      	mov	r5, r0
    3a74:	4608      	mov	r0, r1
    3a76:	6023      	str	r3, [r4, #0]
    3a78:	f7fd fe52 	bl	1720 <_sbrk>
    3a7c:	1c43      	adds	r3, r0, #1
    3a7e:	d102      	bne.n	3a86 <_sbrk_r+0x1a>
    3a80:	6823      	ldr	r3, [r4, #0]
    3a82:	b103      	cbz	r3, 3a86 <_sbrk_r+0x1a>
    3a84:	602b      	str	r3, [r5, #0]
    3a86:	bd38      	pop	{r3, r4, r5, pc}
    3a88:	10000554 	.word	0x10000554

00003a8c <__sccl>:
    3a8c:	b570      	push	{r4, r5, r6, lr}
    3a8e:	780b      	ldrb	r3, [r1, #0]
    3a90:	1e44      	subs	r4, r0, #1
    3a92:	2b5e      	cmp	r3, #94	; 0x5e
    3a94:	bf13      	iteet	ne
    3a96:	1c4a      	addne	r2, r1, #1
    3a98:	1c8a      	addeq	r2, r1, #2
    3a9a:	784b      	ldrbeq	r3, [r1, #1]
    3a9c:	2100      	movne	r1, #0
    3a9e:	bf08      	it	eq
