
LPC1768/MPU9250LCD.elf:     file format elf32-littlearm
architecture: arm, flags 0x00000112:
EXEC_P, HAS_SYMS, D_PAGED
start address 0x000025fd


Disassembly of section .text:

00000000 <__isr_vector>:
       0:	10008000 	.word	0x10008000
       4:	000025fd 	.word	0x000025fd
       8:	0000262d 	.word	0x0000262d
       c:	0000262f 	.word	0x0000262f
      10:	00002631 	.word	0x00002631
      14:	00002633 	.word	0x00002633
      18:	00002635 	.word	0x00002635
	...
      2c:	00002637 	.word	0x00002637
      30:	00002639 	.word	0x00002639
      34:	00000000 	.word	0x00000000
      38:	0000263b 	.word	0x0000263b
      3c:	0000263d 	.word	0x0000263d
      40:	0000263f 	.word	0x0000263f
      44:	0000263f 	.word	0x0000263f
      48:	0000263f 	.word	0x0000263f
      4c:	0000263f 	.word	0x0000263f
      50:	0000263f 	.word	0x0000263f
      54:	0000263f 	.word	0x0000263f
      58:	0000263f 	.word	0x0000263f
      5c:	0000263f 	.word	0x0000263f
      60:	0000263f 	.word	0x0000263f
      64:	0000263f 	.word	0x0000263f
      68:	0000263f 	.word	0x0000263f
      6c:	0000263f 	.word	0x0000263f
      70:	0000263f 	.word	0x0000263f
      74:	0000263f 	.word	0x0000263f
      78:	0000263f 	.word	0x0000263f
      7c:	0000263f 	.word	0x0000263f
      80:	0000263f 	.word	0x0000263f
      84:	0000263f 	.word	0x0000263f
      88:	0000263f 	.word	0x0000263f
      8c:	0000263f 	.word	0x0000263f
      90:	0000263f 	.word	0x0000263f
      94:	0000263f 	.word	0x0000263f
      98:	0000263f 	.word	0x0000263f
      9c:	0000263f 	.word	0x0000263f
      a0:	0000263f 	.word	0x0000263f
      a4:	0000263f 	.word	0x0000263f
      a8:	0000263f 	.word	0x0000263f
      ac:	0000263f 	.word	0x0000263f
      b0:	0000263f 	.word	0x0000263f
      b4:	0000263f 	.word	0x0000263f
      b8:	0000263f 	.word	0x0000263f
      bc:	0000263f 	.word	0x0000263f
      c0:	0000263f 	.word	0x0000263f
      c4:	0000263f 	.word	0x0000263f
      c8:	0000263f 	.word	0x0000263f

000000cc <__do_global_dtors_aux>:
      cc:	b510      	push	{r4, lr}
      ce:	4c05      	ldr	r4, [pc, #20]	; (e4 <__do_global_dtors_aux+0x18>)
      d0:	7823      	ldrb	r3, [r4, #0]
      d2:	b933      	cbnz	r3, e2 <__do_global_dtors_aux+0x16>
      d4:	4b04      	ldr	r3, [pc, #16]	; (e8 <__do_global_dtors_aux+0x1c>)
      d6:	b113      	cbz	r3, de <__do_global_dtors_aux+0x12>
      d8:	4804      	ldr	r0, [pc, #16]	; (ec <__do_global_dtors_aux+0x20>)
      da:	f3af 8000 	nop.w
      de:	2301      	movs	r3, #1
      e0:	7023      	strb	r3, [r4, #0]
      e2:	bd10      	pop	{r4, pc}
      e4:	100002b0 	.word	0x100002b0
      e8:	00000000 	.word	0x00000000
      ec:	00007620 	.word	0x00007620

000000f0 <frame_dummy>:
      f0:	4b0c      	ldr	r3, [pc, #48]	; (124 <frame_dummy+0x34>)
      f2:	b143      	cbz	r3, 106 <frame_dummy+0x16>
      f4:	480c      	ldr	r0, [pc, #48]	; (128 <frame_dummy+0x38>)
      f6:	b510      	push	{r4, lr}
      f8:	490c      	ldr	r1, [pc, #48]	; (12c <frame_dummy+0x3c>)
      fa:	f3af 8000 	nop.w
      fe:	480c      	ldr	r0, [pc, #48]	; (130 <frame_dummy+0x40>)
     100:	6803      	ldr	r3, [r0, #0]
     102:	b923      	cbnz	r3, 10e <frame_dummy+0x1e>
     104:	bd10      	pop	{r4, pc}
     106:	480a      	ldr	r0, [pc, #40]	; (130 <frame_dummy+0x40>)
     108:	6803      	ldr	r3, [r0, #0]
     10a:	b933      	cbnz	r3, 11a <frame_dummy+0x2a>
     10c:	4770      	bx	lr
     10e:	4b09      	ldr	r3, [pc, #36]	; (134 <frame_dummy+0x44>)
     110:	2b00      	cmp	r3, #0
     112:	d0f7      	beq.n	104 <frame_dummy+0x14>
     114:	e8bd 4010 	ldmia.w	sp!, {r4, lr}
     118:	4718      	bx	r3
     11a:	4b06      	ldr	r3, [pc, #24]	; (134 <frame_dummy+0x44>)
     11c:	2b00      	cmp	r3, #0
     11e:	d0f5      	beq.n	10c <frame_dummy+0x1c>
     120:	4718      	bx	r3
     122:	bf00      	nop
     124:	00000000 	.word	0x00000000
     128:	00007620 	.word	0x00007620
     12c:	100002b4 	.word	0x100002b4
     130:	100002b0 	.word	0x100002b0
     134:	00000000 	.word	0x00000000

00000138 <MPU9250::MPU9250(PinName, PinName)>:
     138:	b5f8      	push	{r3, r4, r5, r6, r7, lr}
     13a:	4604      	mov	r4, r0
     13c:	200c      	movs	r0, #12
     13e:	460e      	mov	r6, r1
     140:	4617      	mov	r7, r2
     142:	f002 f973 	bl	242c <operator new(unsigned int)>
     146:	4605      	mov	r5, r0
     148:	463a      	mov	r2, r7
     14a:	4631      	mov	r1, r6
     14c:	f001 fc2a 	bl	19a4 <mbed::I2C::I2C(PinName, PinName)>
     150:	4628      	mov	r0, r5
     152:	f8c4 50cc 	str.w	r5, [r4, #204]	; 0xcc
     156:	4902      	ldr	r1, [pc, #8]	; (160 <MPU9250::MPU9250(PinName, PinName)+0x28>)
     158:	f001 fc3a 	bl	19d0 <mbed::I2C::frequency(int)>
     15c:	4620      	mov	r0, r4
     15e:	bdf8      	pop	{r3, r4, r5, r6, r7, pc}
     160:	00061a80 	.word	0x00061a80

00000164 <MPU9250::~MPU9250()>:
     164:	b510      	push	{r4, lr}
     166:	4604      	mov	r4, r0
     168:	f8d0 00cc 	ldr.w	r0, [r0, #204]	; 0xcc
     16c:	b110      	cbz	r0, 174 <MPU9250::~MPU9250()+0x10>
     16e:	6803      	ldr	r3, [r0, #0]
     170:	68db      	ldr	r3, [r3, #12]
     172:	4798      	blx	r3
     174:	4620      	mov	r0, r4
     176:	bd10      	pop	{r4, pc}

00000178 <MPU9250::writeByte(unsigned char, unsigned char, unsigned char)>:
     178:	b51f      	push	{r0, r1, r2, r3, r4, lr}
     17a:	f88d 300d 	strb.w	r3, [sp, #13]
     17e:	2300      	movs	r3, #0
     180:	9300      	str	r3, [sp, #0]
     182:	f88d 200c 	strb.w	r2, [sp, #12]
     186:	2302      	movs	r3, #2
     188:	aa03      	add	r2, sp, #12
     18a:	f8d0 00cc 	ldr.w	r0, [r0, #204]	; 0xcc
     18e:	f001 fc4b 	bl	1a28 <mbed::I2C::write(int, char const*, int, bool)>
     192:	b005      	add	sp, #20
     194:	f85d fb04 	ldr.w	pc, [sp], #4

00000198 <MPU9250::readBytes(unsigned char, unsigned char, unsigned char, unsigned char*)>:
     198:	e92d 43f0 	stmdb	sp!, {r4, r5, r6, r7, r8, r9, lr}
     19c:	4680      	mov	r8, r0
     19e:	461f      	mov	r7, r3
     1a0:	2301      	movs	r3, #1
     1a2:	4689      	mov	r9, r1
     1a4:	2400      	movs	r4, #0
     1a6:	b089      	sub	sp, #36	; 0x24
     1a8:	a808      	add	r0, sp, #32
     1aa:	f800 2d14 	strb.w	r2, [r0, #-20]!
     1ae:	4602      	mov	r2, r0
     1b0:	9300      	str	r3, [sp, #0]
     1b2:	f8d8 00cc 	ldr.w	r0, [r8, #204]	; 0xcc
     1b6:	ae04      	add	r6, sp, #16
     1b8:	9d10      	ldr	r5, [sp, #64]	; 0x40
     1ba:	f001 fc35 	bl	1a28 <mbed::I2C::write(int, char const*, int, bool)>
     1be:	463b      	mov	r3, r7
     1c0:	9400      	str	r4, [sp, #0]
     1c2:	4632      	mov	r2, r6
     1c4:	4649      	mov	r1, r9
     1c6:	f8d8 00cc 	ldr.w	r0, [r8, #204]	; 0xcc
     1ca:	f001 fc4d 	bl	1a68 <mbed::I2C::read(int, char*, int, bool)>
     1ce:	4623      	mov	r3, r4
     1d0:	42bb      	cmp	r3, r7
     1d2:	da03      	bge.n	1dc <MPU9250::readBytes(unsigned char, unsigned char, unsigned char, unsigned char*)+0x44>
     1d4:	5cf2      	ldrb	r2, [r6, r3]
     1d6:	54ea      	strb	r2, [r5, r3]
     1d8:	3301      	adds	r3, #1
     1da:	e7f9      	b.n	1d0 <MPU9250::readBytes(unsigned char, unsigned char, unsigned char, unsigned char*)+0x38>
     1dc:	b009      	add	sp, #36	; 0x24
     1de:	e8bd 83f0 	ldmia.w	sp!, {r4, r5, r6, r7, r8, r9, pc}

000001e2 <MPU9250::getAres()>:
     1e2:	f890 3048 	ldrb.w	r3, [r0, #72]	; 0x48
     1e6:	2b03      	cmp	r3, #3
     1e8:	d806      	bhi.n	1f8 <MPU9250::getAres()+0x16>
     1ea:	e8df f003 	tbb	[pc, r3]
     1ee:	0702      	.short	0x0702
     1f0:	0d0a      	.short	0x0d0a
     1f2:	f04f 5362 	mov.w	r3, #947912704	; 0x38800000
     1f6:	64c3      	str	r3, [r0, #76]	; 0x4c
     1f8:	6cc0      	ldr	r0, [r0, #76]	; 0x4c
     1fa:	4770      	bx	lr
     1fc:	f04f 5364 	mov.w	r3, #956301312	; 0x39000000
     200:	e7f9      	b.n	1f6 <MPU9250::getAres()+0x14>
     202:	f04f 5366 	mov.w	r3, #964689920	; 0x39800000
     206:	e7f6      	b.n	1f6 <MPU9250::getAres()+0x14>
     208:	f04f 5368 	mov.w	r3, #973078528	; 0x3a000000
     20c:	e7f3      	b.n	1f6 <MPU9250::getAres()+0x14>

0000020e <MPU9250::readAccelData(short*)>:
     20e:	b51f      	push	{r0, r1, r2, r3, r4, lr}
     210:	460c      	mov	r4, r1
     212:	ab02      	add	r3, sp, #8
     214:	9300      	str	r3, [sp, #0]
     216:	223b      	movs	r2, #59	; 0x3b
     218:	2306      	movs	r3, #6
     21a:	21d0      	movs	r1, #208	; 0xd0
     21c:	f7ff ffbc 	bl	198 <MPU9250::readBytes(unsigned char, unsigned char, unsigned char, unsigned char*)>
     220:	f89d 2008 	ldrb.w	r2, [sp, #8]
     224:	f89d 3009 	ldrb.w	r3, [sp, #9]
     228:	ea43 2302 	orr.w	r3, r3, r2, lsl #8
     22c:	8023      	strh	r3, [r4, #0]
     22e:	f89d 200a 	ldrb.w	r2, [sp, #10]
     232:	f89d 300b 	ldrb.w	r3, [sp, #11]
     236:	ea43 2302 	orr.w	r3, r3, r2, lsl #8
     23a:	8063      	strh	r3, [r4, #2]
     23c:	f89d 200c 	ldrb.w	r2, [sp, #12]
     240:	f89d 300d 	ldrb.w	r3, [sp, #13]
     244:	ea43 2302 	orr.w	r3, r3, r2, lsl #8
     248:	80a3      	strh	r3, [r4, #4]
     24a:	b004      	add	sp, #16
     24c:	bd10      	pop	{r4, pc}

0000024e <MPU9250::readTempData()>:
     24e:	b51f      	push	{r0, r1, r2, r3, r4, lr}
     250:	ab03      	add	r3, sp, #12
     252:	9300      	str	r3, [sp, #0]
     254:	2241      	movs	r2, #65	; 0x41
     256:	2302      	movs	r3, #2
     258:	21d0      	movs	r1, #208	; 0xd0
     25a:	f7ff ff9d 	bl	198 <MPU9250::readBytes(unsigned char, unsigned char, unsigned char, unsigned char*)>
     25e:	f89d 300c 	ldrb.w	r3, [sp, #12]
     262:	f89d 000d 	ldrb.w	r0, [sp, #13]
     266:	ea40 2003 	orr.w	r0, r0, r3, lsl #8
     26a:	b200      	sxth	r0, r0
     26c:	b005      	add	sp, #20
     26e:	f85d fb04 	ldr.w	pc, [sp], #4
	...

00000274 <MPU9250::resetMPU9250()>:
     274:	b508      	push	{r3, lr}
     276:	226b      	movs	r2, #107	; 0x6b
     278:	2380      	movs	r3, #128	; 0x80
     27a:	21d0      	movs	r1, #208	; 0xd0
     27c:	f7ff ff7c 	bl	178 <MPU9250::writeByte(unsigned char, unsigned char, unsigned char)>
     280:	e8bd 4008 	ldmia.w	sp!, {r3, lr}
     284:	4801      	ldr	r0, [pc, #4]	; (28c <MPU9250::resetMPU9250()+0x18>)
     286:	f000 bc05 	b.w	a94 <wait>
     28a:	bf00      	nop
     28c:	3dcccccd 	.word	0x3dcccccd

00000290 <MPU9250::setWakeOnMotion()>:
     290:	b510      	push	{r4, lr}
     292:	4604      	mov	r4, r0
     294:	2300      	movs	r3, #0
     296:	226b      	movs	r2, #107	; 0x6b
     298:	21d0      	movs	r1, #208	; 0xd0
     29a:	f7ff ff6d 	bl	178 <MPU9250::writeByte(unsigned char, unsigned char, unsigned char)>
     29e:	4620      	mov	r0, r4
     2a0:	2307      	movs	r3, #7
     2a2:	226c      	movs	r2, #108	; 0x6c
     2a4:	21d0      	movs	r1, #208	; 0xd0
     2a6:	f7ff ff67 	bl	178 <MPU9250::writeByte(unsigned char, unsigned char, unsigned char)>
     2aa:	4620      	mov	r0, r4
     2ac:	2301      	movs	r3, #1
     2ae:	221d      	movs	r2, #29
     2b0:	21d0      	movs	r1, #208	; 0xd0
     2b2:	f7ff ff61 	bl	178 <MPU9250::writeByte(unsigned char, unsigned char, unsigned char)>
     2b6:	4620      	mov	r0, r4
     2b8:	2340      	movs	r3, #64	; 0x40
     2ba:	2238      	movs	r2, #56	; 0x38
     2bc:	21d0      	movs	r1, #208	; 0xd0
     2be:	f7ff ff5b 	bl	178 <MPU9250::writeByte(unsigned char, unsigned char, unsigned char)>
     2c2:	4620      	mov	r0, r4
     2c4:	23c0      	movs	r3, #192	; 0xc0
     2c6:	2269      	movs	r2, #105	; 0x69
     2c8:	21d0      	movs	r1, #208	; 0xd0
     2ca:	f7ff ff55 	bl	178 <MPU9250::writeByte(unsigned char, unsigned char, unsigned char)>
     2ce:	4620      	mov	r0, r4
     2d0:	2364      	movs	r3, #100	; 0x64
     2d2:	221f      	movs	r2, #31
     2d4:	21d0      	movs	r1, #208	; 0xd0
     2d6:	f7ff ff4f 	bl	178 <MPU9250::writeByte(unsigned char, unsigned char, unsigned char)>
     2da:	4620      	mov	r0, r4
     2dc:	2307      	movs	r3, #7
     2de:	221e      	movs	r2, #30
     2e0:	21d0      	movs	r1, #208	; 0xd0
     2e2:	f7ff ff49 	bl	178 <MPU9250::writeByte(unsigned char, unsigned char, unsigned char)>
     2e6:	4620      	mov	r0, r4
     2e8:	e8bd 4010 	ldmia.w	sp!, {r4, lr}
     2ec:	2320      	movs	r3, #32
     2ee:	226b      	movs	r2, #107	; 0x6b
     2f0:	21d0      	movs	r1, #208	; 0xd0
     2f2:	f7ff bf41 	b.w	178 <MPU9250::writeByte(unsigned char, unsigned char, unsigned char)>

000002f6 <mbed::FileLike::lseek(long, int)>:
     2f6:	6803      	ldr	r3, [r0, #0]
     2f8:	69db      	ldr	r3, [r3, #28]
     2fa:	4718      	bx	r3

000002fc <mbed::FileLike::fsync()>:
     2fc:	6803      	ldr	r3, [r0, #0]
     2fe:	695b      	ldr	r3, [r3, #20]
     300:	4718      	bx	r3

00000302 <mbed::FileLike::flen()>:
     302:	6803      	ldr	r3, [r0, #0]
     304:	6a9b      	ldr	r3, [r3, #40]	; 0x28
     306:	4718      	bx	r3

00000308 <mbed::FileLike::lock()>:
     308:	4770      	bx	lr

0000030a <mbed::FileLike::unlock()>:
     30a:	4770      	bx	lr

0000030c <TextLCD::_getc()>:
     30c:	f04f 30ff 	mov.w	r0, #4294967295	; 0xffffffff
     310:	4770      	bx	lr

00000312 <TextLCD::locate(int, int)>:
     312:	f8c0 1094 	str.w	r1, [r0, #148]	; 0x94
     316:	f8c0 2098 	str.w	r2, [r0, #152]	; 0x98
     31a:	4770      	bx	lr

0000031c <TextLCD::writeByte(int)>:
     31c:	b5f8      	push	{r3, r4, r5, r6, r7, lr}
     31e:	4604      	mov	r4, r0
     320:	460f      	mov	r7, r1
     322:	4d12      	ldr	r5, [pc, #72]	; (36c <TextLCD::writeByte(int)+0x50>)
     324:	f100 0644 	add.w	r6, r0, #68	; 0x44
     328:	1109      	asrs	r1, r1, #4
     32a:	4630      	mov	r0, r6
     32c:	f001 fc46 	bl	1bbc <mbed::BusOut::operator=(int)>
     330:	4628      	mov	r0, r5
     332:	f000 fbaf 	bl	a94 <wait>
     336:	6be3      	ldr	r3, [r4, #60]	; 0x3c
     338:	6b22      	ldr	r2, [r4, #48]	; 0x30
     33a:	4628      	mov	r0, r5
     33c:	601a      	str	r2, [r3, #0]
     33e:	f000 fba9 	bl	a94 <wait>
     342:	6ba3      	ldr	r3, [r4, #56]	; 0x38
     344:	6b22      	ldr	r2, [r4, #48]	; 0x30
     346:	4639      	mov	r1, r7
     348:	601a      	str	r2, [r3, #0]
     34a:	4630      	mov	r0, r6
     34c:	f001 fc36 	bl	1bbc <mbed::BusOut::operator=(int)>
     350:	4628      	mov	r0, r5
     352:	f000 fb9f 	bl	a94 <wait>
     356:	6be3      	ldr	r3, [r4, #60]	; 0x3c
     358:	6b22      	ldr	r2, [r4, #48]	; 0x30
     35a:	4628      	mov	r0, r5
     35c:	601a      	str	r2, [r3, #0]
     35e:	f000 fb99 	bl	a94 <wait>
     362:	6ba3      	ldr	r3, [r4, #56]	; 0x38
     364:	6b22      	ldr	r2, [r4, #48]	; 0x30
     366:	601a      	str	r2, [r3, #0]
     368:	bdf8      	pop	{r3, r4, r5, r6, r7, pc}
     36a:	bf00      	nop
     36c:	3827c5ac 	.word	0x3827c5ac

00000370 <TextLCD::writeCommand(int)>:
     370:	6a42      	ldr	r2, [r0, #36]	; 0x24
     372:	6983      	ldr	r3, [r0, #24]
     374:	6013      	str	r3, [r2, #0]
     376:	f7ff bfd1 	b.w	31c <TextLCD::writeByte(int)>
	...

0000037c <TextLCD::cls()>:
     37c:	b510      	push	{r4, lr}
     37e:	2101      	movs	r1, #1
     380:	4604      	mov	r4, r0
     382:	f7ff fff5 	bl	370 <TextLCD::writeCommand(int)>
     386:	4804      	ldr	r0, [pc, #16]	; (398 <TextLCD::cls()+0x1c>)
     388:	f000 fb84 	bl	a94 <wait>
     38c:	2300      	movs	r3, #0
     38e:	f8c4 3094 	str.w	r3, [r4, #148]	; 0x94
     392:	f8c4 3098 	str.w	r3, [r4, #152]	; 0x98
     396:	bd10      	pop	{r4, pc}
     398:	3ad6f545 	.word	0x3ad6f545

0000039c <TextLCD::TextLCD(PinName, PinName, PinName, PinName, PinName, PinName, TextLCD::LCDType)>:
     39c:	e92d 41f0 	stmdb	sp!, {r4, r5, r6, r7, r8, lr}
     3a0:	4604      	mov	r4, r0
     3a2:	4625      	mov	r5, r4
     3a4:	4688      	mov	r8, r1
     3a6:	4617      	mov	r7, r2
     3a8:	b08e      	sub	sp, #56	; 0x38
     3aa:	2100      	movs	r1, #0
     3ac:	461e      	mov	r6, r3
     3ae:	f001 fc8b 	bl	1cc8 <mbed::Stream::Stream(char const*)>
     3b2:	4b30      	ldr	r3, [pc, #192]	; (474 <TextLCD::TextLCD(PinName, PinName, PinName, PinName, PinName, PinName, TextLCD::LCDType)+0xd8>)
     3b4:	2218      	movs	r2, #24
     3b6:	f845 3b14 	str.w	r3, [r5], #20
     3ba:	2100      	movs	r1, #0
     3bc:	4628      	mov	r0, r5
     3be:	f003 fb80 	bl	3ac2 <memset>
     3c2:	4628      	mov	r0, r5
     3c4:	4641      	mov	r1, r8
     3c6:	f104 052c 	add.w	r5, r4, #44	; 0x2c
     3ca:	f000 fadf 	bl	98c <gpio_init_out>
     3ce:	2218      	movs	r2, #24
     3d0:	2100      	movs	r1, #0
     3d2:	4628      	mov	r0, r5
     3d4:	f003 fb75 	bl	3ac2 <memset>
     3d8:	4628      	mov	r0, r5
     3da:	4639      	mov	r1, r7
     3dc:	f000 fad6 	bl	98c <gpio_init_out>
     3e0:	f04f 33ff 	mov.w	r3, #4294967295	; 0xffffffff
     3e4:	930c      	str	r3, [sp, #48]	; 0x30
     3e6:	930b      	str	r3, [sp, #44]	; 0x2c
     3e8:	930a      	str	r3, [sp, #40]	; 0x28
     3ea:	9309      	str	r3, [sp, #36]	; 0x24
     3ec:	9308      	str	r3, [sp, #32]
     3ee:	9307      	str	r3, [sp, #28]
     3f0:	9306      	str	r3, [sp, #24]
     3f2:	9305      	str	r3, [sp, #20]
     3f4:	9304      	str	r3, [sp, #16]
     3f6:	9303      	str	r3, [sp, #12]
     3f8:	9302      	str	r3, [sp, #8]
     3fa:	9301      	str	r3, [sp, #4]
     3fc:	9b16      	ldr	r3, [sp, #88]	; 0x58
     3fe:	4631      	mov	r1, r6
     400:	9300      	str	r3, [sp, #0]
     402:	9a14      	ldr	r2, [sp, #80]	; 0x50
     404:	9b15      	ldr	r3, [sp, #84]	; 0x54
     406:	f104 0044 	add.w	r0, r4, #68	; 0x44
     40a:	f001 fb6d 	bl	1ae8 <mbed::BusOut::BusOut(PinName, PinName, PinName, PinName, PinName, PinName, PinName, PinName, PinName, PinName, PinName, PinName, PinName, PinName, PinName, PinName)>
     40e:	f89d 305c 	ldrb.w	r3, [sp, #92]	; 0x5c
     412:	6b22      	ldr	r2, [r4, #48]	; 0x30
     414:	f884 3090 	strb.w	r3, [r4, #144]	; 0x90
     418:	6ba3      	ldr	r3, [r4, #56]	; 0x38
     41a:	4817      	ldr	r0, [pc, #92]	; (478 <TextLCD::TextLCD(PinName, PinName, PinName, PinName, PinName, PinName, TextLCD::LCDType)+0xdc>)
     41c:	601a      	str	r2, [r3, #0]
     41e:	69a2      	ldr	r2, [r4, #24]
     420:	6a63      	ldr	r3, [r4, #36]	; 0x24
     422:	2503      	movs	r5, #3
     424:	601a      	str	r2, [r3, #0]
     426:	f000 fb35 	bl	a94 <wait>
     42a:	4e14      	ldr	r6, [pc, #80]	; (47c <TextLCD::TextLCD(PinName, PinName, PinName, PinName, PinName, PinName, TextLCD::LCDType)+0xe0>)
     42c:	2103      	movs	r1, #3
     42e:	4620      	mov	r0, r4
     430:	f7ff ff74 	bl	31c <TextLCD::writeByte(int)>
     434:	4630      	mov	r0, r6
     436:	f000 fb2d 	bl	a94 <wait>
     43a:	3d01      	subs	r5, #1
     43c:	d1f6      	bne.n	42c <TextLCD::TextLCD(PinName, PinName, PinName, PinName, PinName, PinName, TextLCD::LCDType)+0x90>
     43e:	2102      	movs	r1, #2
     440:	4620      	mov	r0, r4
     442:	f7ff ff6b 	bl	31c <TextLCD::writeByte(int)>
     446:	480e      	ldr	r0, [pc, #56]	; (480 <TextLCD::TextLCD(PinName, PinName, PinName, PinName, PinName, PinName, TextLCD::LCDType)+0xe4>)
     448:	f000 fb24 	bl	a94 <wait>
     44c:	4620      	mov	r0, r4
     44e:	2128      	movs	r1, #40	; 0x28
     450:	f7ff ff8e 	bl	370 <TextLCD::writeCommand(int)>
     454:	4620      	mov	r0, r4
     456:	210c      	movs	r1, #12
     458:	f7ff ff8a 	bl	370 <TextLCD::writeCommand(int)>
     45c:	2106      	movs	r1, #6
     45e:	4620      	mov	r0, r4
     460:	f7ff ff86 	bl	370 <TextLCD::writeCommand(int)>
     464:	4620      	mov	r0, r4
     466:	f7ff ff89 	bl	37c <TextLCD::cls()>
     46a:	4620      	mov	r0, r4
     46c:	b00e      	add	sp, #56	; 0x38
     46e:	e8bd 81f0 	ldmia.w	sp!, {r4, r5, r6, r7, r8, pc}
     472:	bf00      	nop
     474:	00006e10 	.word	0x00006e10
     478:	3c75c28f 	.word	0x3c75c28f
     47c:	3ad6f545 	.word	0x3ad6f545
     480:	3827c5ac 	.word	0x3827c5ac

00000484 <TextLCD::writeData(int)>:
     484:	6a02      	ldr	r2, [r0, #32]
     486:	6983      	ldr	r3, [r0, #24]
     488:	6013      	str	r3, [r2, #0]
     48a:	f7ff bf47 	b.w	31c <TextLCD::writeByte(int)>

0000048e <TextLCD::address(int, int)>:
     48e:	f890 3090 	ldrb.w	r3, [r0, #144]	; 0x90
     492:	2b01      	cmp	r3, #1
     494:	d010      	beq.n	4b8 <TextLCD::address(int, int)+0x2a>
     496:	2b03      	cmp	r3, #3
     498:	d114      	bne.n	4c4 <TextLCD::address(int, int)+0x36>
     49a:	2a03      	cmp	r2, #3
     49c:	d80c      	bhi.n	4b8 <TextLCD::address(int, int)+0x2a>
     49e:	e8df f002 	tbb	[pc, r2]
     4a2:	020e      	.short	0x020e
     4a4:	0805      	.short	0x0805
     4a6:	f101 00c0 	add.w	r0, r1, #192	; 0xc0
     4aa:	4770      	bx	lr
     4ac:	f101 0094 	add.w	r0, r1, #148	; 0x94
     4b0:	4770      	bx	lr
     4b2:	f101 00d4 	add.w	r0, r1, #212	; 0xd4
     4b6:	4770      	bx	lr
     4b8:	2028      	movs	r0, #40	; 0x28
     4ba:	fb00 1102 	mla	r1, r0, r2, r1
     4be:	f101 0080 	add.w	r0, r1, #128	; 0x80
     4c2:	4770      	bx	lr
     4c4:	1c90      	adds	r0, r2, #2
     4c6:	eb01 1080 	add.w	r0, r1, r0, lsl #6
     4ca:	4770      	bx	lr

000004cc <TextLCD::character(int, int, int)>:
     4cc:	b538      	push	{r3, r4, r5, lr}
     4ce:	4604      	mov	r4, r0
     4d0:	461d      	mov	r5, r3
     4d2:	f7ff ffdc 	bl	48e <TextLCD::address(int, int)>
     4d6:	4601      	mov	r1, r0
     4d8:	4620      	mov	r0, r4
     4da:	f7ff ff49 	bl	370 <TextLCD::writeCommand(int)>
     4de:	4629      	mov	r1, r5
     4e0:	4620      	mov	r0, r4
     4e2:	e8bd 4038 	ldmia.w	sp!, {r3, r4, r5, lr}
     4e6:	f7ff bfcd 	b.w	484 <TextLCD::writeData(int)>

000004ea <TextLCD::columns()>:
     4ea:	f890 3090 	ldrb.w	r3, [r0, #144]	; 0x90
     4ee:	3b02      	subs	r3, #2
     4f0:	2b01      	cmp	r3, #1
     4f2:	bf8c      	ite	hi
     4f4:	2010      	movhi	r0, #16
     4f6:	2014      	movls	r0, #20
     4f8:	4770      	bx	lr

000004fa <TextLCD::rows()>:
     4fa:	f890 3090 	ldrb.w	r3, [r0, #144]	; 0x90
     4fe:	2b03      	cmp	r3, #3
     500:	bf0c      	ite	eq
     502:	2004      	moveq	r0, #4
     504:	2002      	movne	r0, #2
     506:	4770      	bx	lr

00000508 <TextLCD::_putc(int)>:
     508:	290a      	cmp	r1, #10
     50a:	b538      	push	{r3, r4, r5, lr}
     50c:	4604      	mov	r4, r0
     50e:	460d      	mov	r5, r1
     510:	d110      	bne.n	534 <TextLCD::_putc(int)+0x2c>
     512:	2300      	movs	r3, #0
     514:	f8d0 2098 	ldr.w	r2, [r0, #152]	; 0x98
     518:	f8c0 3094 	str.w	r3, [r0, #148]	; 0x94
     51c:	3201      	adds	r2, #1
     51e:	f8c0 2098 	str.w	r2, [r0, #152]	; 0x98
     522:	f7ff ffea 	bl	4fa <TextLCD::rows()>
     526:	4282      	cmp	r2, r0
     528:	db02      	blt.n	530 <TextLCD::_putc(int)+0x28>
     52a:	2300      	movs	r3, #0
     52c:	f8c4 3098 	str.w	r3, [r4, #152]	; 0x98
     530:	4628      	mov	r0, r5
     532:	bd38      	pop	{r3, r4, r5, pc}
     534:	460b      	mov	r3, r1
     536:	f8d0 2098 	ldr.w	r2, [r0, #152]	; 0x98
     53a:	f8d0 1094 	ldr.w	r1, [r0, #148]	; 0x94
     53e:	f7ff ffc5 	bl	4cc <TextLCD::character(int, int, int)>
     542:	f8d4 2094 	ldr.w	r2, [r4, #148]	; 0x94
     546:	4620      	mov	r0, r4
     548:	3201      	adds	r2, #1
     54a:	f8c4 2094 	str.w	r2, [r4, #148]	; 0x94
     54e:	f7ff ffcc 	bl	4ea <TextLCD::columns()>
     552:	4282      	cmp	r2, r0
     554:	dbec      	blt.n	530 <TextLCD::_putc(int)+0x28>
     556:	2300      	movs	r3, #0
     558:	f8d4 2098 	ldr.w	r2, [r4, #152]	; 0x98
     55c:	f8c4 3094 	str.w	r3, [r4, #148]	; 0x94
     560:	3201      	adds	r2, #1
     562:	f8c4 2098 	str.w	r2, [r4, #152]	; 0x98
     566:	4620      	mov	r0, r4
     568:	e7db      	b.n	522 <TextLCD::_putc(int)+0x1a>
	...

0000056c <TextLCD::~TextLCD()>:
     56c:	b510      	push	{r4, lr}
     56e:	4604      	mov	r4, r0
     570:	4b04      	ldr	r3, [pc, #16]	; (584 <TextLCD::~TextLCD()+0x18>)
     572:	f840 3b44 	str.w	r3, [r0], #68
     576:	f001 fa99 	bl	1aac <mbed::BusOut::~BusOut()>
     57a:	4620      	mov	r0, r4
     57c:	f001 fbc2 	bl	1d04 <mbed::Stream::~Stream()>
     580:	4620      	mov	r0, r4
     582:	bd10      	pop	{r4, pc}
     584:	00006e10 	.word	0x00006e10

00000588 <TextLCD::~TextLCD()>:
     588:	b510      	push	{r4, lr}
     58a:	4604      	mov	r4, r0
     58c:	f7ff ffee 	bl	56c <TextLCD::~TextLCD()>
     590:	4620      	mov	r0, r4
     592:	f001 ff64 	bl	245e <operator delete(void*)>
     596:	4620      	mov	r0, r4
     598:	bd10      	pop	{r4, pc}
	...

0000059c <detect_shock()>:
     59c:	2201      	movs	r2, #1
     59e:	4b01      	ldr	r3, [pc, #4]	; (5a4 <detect_shock()+0x8>)
     5a0:	701a      	strb	r2, [r3, #0]
     5a2:	4770      	bx	lr
     5a4:	100002cc 	.word	0x100002cc

000005a8 <void mbed::Callback<void ()>::function_call<void (*)()>(void const*)>:
     5a8:	6803      	ldr	r3, [r0, #0]
     5aa:	4718      	bx	r3

000005ac <void mbed::Callback<void ()>::function_move<void (*)()>(void*, void const*)>:
     5ac:	b108      	cbz	r0, 5b2 <void mbed::Callback<void ()>::function_move<void (*)()>(void*, void const*)+0x6>
     5ae:	680b      	ldr	r3, [r1, #0]
     5b0:	6003      	str	r3, [r0, #0]
     5b2:	4770      	bx	lr

000005b4 <void mbed::Callback<void ()>::function_dtor<void (*)()>(void*)>:
     5b4:	4770      	bx	lr

000005b6 <mbed::Callback<void ()>::~Callback()>:
     5b6:	68c3      	ldr	r3, [r0, #12]
     5b8:	b510      	push	{r4, lr}
     5ba:	4604      	mov	r4, r0
     5bc:	b10b      	cbz	r3, 5c2 <mbed::Callback<void ()>::~Callback()+0xc>
     5be:	689b      	ldr	r3, [r3, #8]
     5c0:	4798      	blx	r3
     5c2:	4620      	mov	r0, r4
     5c4:	bd10      	pop	{r4, pc}
	...

000005c8 <mbed::SerialBase::~SerialBase()>:
     5c8:	b570      	push	{r4, r5, r6, lr}
     5ca:	4605      	mov	r5, r0
     5cc:	4b07      	ldr	r3, [pc, #28]	; (5ec <mbed::SerialBase::~SerialBase()+0x24>)
     5ce:	4606      	mov	r6, r0
     5d0:	f845 3b0c 	str.w	r3, [r5], #12
     5d4:	b145      	cbz	r5, 5e8 <mbed::SerialBase::~SerialBase()+0x20>
     5d6:	f100 042c 	add.w	r4, r0, #44	; 0x2c
     5da:	42ac      	cmp	r4, r5
     5dc:	d004      	beq.n	5e8 <mbed::SerialBase::~SerialBase()+0x20>
     5de:	3c10      	subs	r4, #16
     5e0:	4620      	mov	r0, r4
     5e2:	f7ff ffe8 	bl	5b6 <mbed::Callback<void ()>::~Callback()>
     5e6:	e7f8      	b.n	5da <mbed::SerialBase::~SerialBase()+0x12>
     5e8:	4630      	mov	r0, r6
     5ea:	bd70      	pop	{r4, r5, r6, pc}
     5ec:	00007258 	.word	0x00007258

000005f0 <mbed::SerialBase::~SerialBase()>:
     5f0:	b510      	push	{r4, lr}
     5f2:	4604      	mov	r4, r0
     5f4:	f7ff ffe8 	bl	5c8 <mbed::SerialBase::~SerialBase()>
     5f8:	4620      	mov	r0, r4
     5fa:	f001 ff30 	bl	245e <operator delete(void*)>
     5fe:	4620      	mov	r0, r4
     600:	bd10      	pop	{r4, pc}
	...

00000604 <mbed::Serial::~Serial()>:
     604:	b510      	push	{r4, lr}
     606:	4604      	mov	r4, r0
     608:	4b05      	ldr	r3, [pc, #20]	; (620 <mbed::Serial::~Serial()+0x1c>)
     60a:	6003      	str	r3, [r0, #0]
     60c:	3320      	adds	r3, #32
     60e:	f840 3f30 	str.w	r3, [r0, #48]!
     612:	f001 fb77 	bl	1d04 <mbed::Stream::~Stream()>
     616:	4620      	mov	r0, r4
     618:	f7ff ffd6 	bl	5c8 <mbed::SerialBase::~SerialBase()>
     61c:	4620      	mov	r0, r4
     61e:	bd10      	pop	{r4, pc}
     620:	000070f8 	.word	0x000070f8

00000624 <non-virtual thunk to mbed::Serial::~Serial()>:
     624:	f1a0 0030 	sub.w	r0, r0, #48	; 0x30
     628:	e7ec      	b.n	604 <mbed::Serial::~Serial()>
     62a:	bf00      	nop
     62c:	0000      	movs	r0, r0
	...

00000630 <main>:
     630:	e92d 4ff0 	stmdb	sp!, {r4, r5, r6, r7, r8, r9, r10, r11, lr}
     634:	4b5e      	ldr	r3, [pc, #376]	; (7b0 <main+0x180>)
     636:	b08b      	sub	sp, #44	; 0x2c
     638:	9306      	str	r3, [sp, #24]
     63a:	f10d 0b18 	add.w	r11, sp, #24
     63e:	4b5d      	ldr	r3, [pc, #372]	; (7b4 <main+0x184>)
     640:	4659      	mov	r1, r11
     642:	485d      	ldr	r0, [pc, #372]	; (7b8 <main+0x188>)
     644:	9309      	str	r3, [sp, #36]	; 0x24
     646:	f001 fc83 	bl	1f50 <mbed::InterruptIn::rise(mbed::Callback<void ()>)>
     64a:	4658      	mov	r0, r11
     64c:	f7ff ffb3 	bl	5b6 <mbed::Callback<void ()>::~Callback()>
     650:	485a      	ldr	r0, [pc, #360]	; (7bc <main+0x18c>)
     652:	f7ff fe0f 	bl	274 <MPU9250::resetMPU9250()>
     656:	4859      	ldr	r0, [pc, #356]	; (7bc <main+0x18c>)
     658:	f7ff fe1a 	bl	290 <MPU9250::setWakeOnMotion()>
     65c:	4c58      	ldr	r4, [pc, #352]	; (7c0 <main+0x190>)
     65e:	4d59      	ldr	r5, [pc, #356]	; (7c4 <main+0x194>)
     660:	f8df a158 	ldr.w	r10, [pc, #344]	; 7bc <main+0x18c>
     664:	4e58      	ldr	r6, [pc, #352]	; (7c8 <main+0x198>)
     666:	7833      	ldrb	r3, [r6, #0]
     668:	b183      	cbz	r3, 68c <main+0x5c>
     66a:	4620      	mov	r0, r4
     66c:	f7ff fe86 	bl	37c <TextLCD::cls()>
     670:	4956      	ldr	r1, [pc, #344]	; (7cc <main+0x19c>)
     672:	4620      	mov	r0, r4
     674:	f001 fb58 	bl	1d28 <mbed::Stream::printf(char const*, ...)>
     678:	4955      	ldr	r1, [pc, #340]	; (7d0 <main+0x1a0>)
     67a:	4628      	mov	r0, r5
     67c:	f001 fb54 	bl	1d28 <mbed::Stream::printf(char const*, ...)>
     680:	f44f 707a 	mov.w	r0, #1000	; 0x3e8
     684:	f000 fa12 	bl	aac <wait_ms>
     688:	2300      	movs	r3, #0
     68a:	7033      	strb	r3, [r6, #0]
     68c:	a904      	add	r1, sp, #16
     68e:	4650      	mov	r0, r10
     690:	f7ff fdbd 	bl	20e <MPU9250::readAccelData(short*)>
     694:	2600      	movs	r6, #0
     696:	ab04      	add	r3, sp, #16
     698:	f933 0016 	ldrsh.w	r0, [r3, r6, lsl #1]
     69c:	f002 fccc 	bl	3038 <__aeabi_i2f>
     6a0:	4607      	mov	r7, r0
     6a2:	4650      	mov	r0, r10
     6a4:	f7ff fd9d 	bl	1e2 <MPU9250::getAres()>
     6a8:	4601      	mov	r1, r0
     6aa:	4638      	mov	r0, r7
     6ac:	f002 fd18 	bl	30e0 <__aeabi_fmul>
     6b0:	f84b 0026 	str.w	r0, [r11, r6, lsl #2]
     6b4:	3601      	adds	r6, #1
     6b6:	2e03      	cmp	r6, #3
     6b8:	d1ed      	bne.n	696 <main+0x66>
     6ba:	4650      	mov	r0, r10
     6bc:	f7ff fdc7 	bl	24e <MPU9250::readTempData()>
     6c0:	4606      	mov	r6, r0
     6c2:	4620      	mov	r0, r4
     6c4:	f7ff fe5a 	bl	37c <TextLCD::cls()>
     6c8:	483b      	ldr	r0, [pc, #236]	; (7b8 <main+0x188>)
     6ca:	f001 fbd6 	bl	1e7a <mbed::InterruptIn::operator int()>
     6ce:	4941      	ldr	r1, [pc, #260]	; (7d4 <main+0x1a4>)
     6d0:	4602      	mov	r2, r0
     6d2:	4620      	mov	r0, r4
     6d4:	f001 fb28 	bl	1d28 <mbed::Stream::printf(char const*, ...)>
     6d8:	9806      	ldr	r0, [sp, #24]
     6da:	f002 f915 	bl	2908 <__aeabi_f2d>
     6de:	4602      	mov	r2, r0
     6e0:	460b      	mov	r3, r1
     6e2:	4680      	mov	r8, r0
     6e4:	4689      	mov	r9, r1
     6e6:	4620      	mov	r0, r4
     6e8:	493b      	ldr	r1, [pc, #236]	; (7d8 <main+0x1a8>)
     6ea:	f001 fb1d 	bl	1d28 <mbed::Stream::printf(char const*, ...)>
     6ee:	9807      	ldr	r0, [sp, #28]
     6f0:	f002 f90a 	bl	2908 <__aeabi_f2d>
     6f4:	460b      	mov	r3, r1
     6f6:	e9cd 0100 	strd	r0, r1, [sp]
     6fa:	4602      	mov	r2, r0
     6fc:	4937      	ldr	r1, [pc, #220]	; (7dc <main+0x1ac>)
     6fe:	4620      	mov	r0, r4
     700:	f001 fb12 	bl	1d28 <mbed::Stream::printf(char const*, ...)>
     704:	2201      	movs	r2, #1
     706:	4620      	mov	r0, r4
     708:	2100      	movs	r1, #0
     70a:	f7ff fe02 	bl	312 <TextLCD::locate(int, int)>
     70e:	9808      	ldr	r0, [sp, #32]
     710:	f002 f8fa 	bl	2908 <__aeabi_f2d>
     714:	4602      	mov	r2, r0
     716:	460b      	mov	r3, r1
     718:	e9cd 0102 	strd	r0, r1, [sp, #8]
     71c:	4930      	ldr	r1, [pc, #192]	; (7e0 <main+0x1b0>)
     71e:	4620      	mov	r0, r4
     720:	f001 fb02 	bl	1d28 <mbed::Stream::printf(char const*, ...)>
     724:	4630      	mov	r0, r6
     726:	f002 fc87 	bl	3038 <__aeabi_i2f>
     72a:	f002 f8ed 	bl	2908 <__aeabi_f2d>
     72e:	a31e      	add	r3, pc, #120	; (adr r3, 7a8 <main+0x178>)
     730:	e9d3 2300 	ldrd	r2, r3, [r3]
     734:	f002 fa66 	bl	2c04 <__aeabi_ddiv>
     738:	2200      	movs	r2, #0
     73a:	4b2a      	ldr	r3, [pc, #168]	; (7e4 <main+0x1b4>)
     73c:	f001 ff86 	bl	264c <__adddf3>
     740:	f002 fb70 	bl	2e24 <__aeabi_d2f>
     744:	f002 f8e0 	bl	2908 <__aeabi_f2d>
     748:	460b      	mov	r3, r1
     74a:	4602      	mov	r2, r0
     74c:	4606      	mov	r6, r0
     74e:	460f      	mov	r7, r1
     750:	4620      	mov	r0, r4
     752:	4925      	ldr	r1, [pc, #148]	; (7e8 <main+0x1b8>)
     754:	f001 fae8 	bl	1d28 <mbed::Stream::printf(char const*, ...)>
     758:	4817      	ldr	r0, [pc, #92]	; (7b8 <main+0x188>)
     75a:	f001 fb8e 	bl	1e7a <mbed::InterruptIn::operator int()>
     75e:	4923      	ldr	r1, [pc, #140]	; (7ec <main+0x1bc>)
     760:	4602      	mov	r2, r0
     762:	4628      	mov	r0, r5
     764:	f001 fae0 	bl	1d28 <mbed::Stream::printf(char const*, ...)>
     768:	4642      	mov	r2, r8
     76a:	464b      	mov	r3, r9
     76c:	4920      	ldr	r1, [pc, #128]	; (7f0 <main+0x1c0>)
     76e:	4628      	mov	r0, r5
     770:	f001 fada 	bl	1d28 <mbed::Stream::printf(char const*, ...)>
     774:	e9dd 2300 	ldrd	r2, r3, [sp]
     778:	491e      	ldr	r1, [pc, #120]	; (7f4 <main+0x1c4>)
     77a:	4628      	mov	r0, r5
     77c:	f001 fad4 	bl	1d28 <mbed::Stream::printf(char const*, ...)>
     780:	e9dd 2302 	ldrd	r2, r3, [sp, #8]
     784:	491c      	ldr	r1, [pc, #112]	; (7f8 <main+0x1c8>)
     786:	4628      	mov	r0, r5
     788:	f001 face 	bl	1d28 <mbed::Stream::printf(char const*, ...)>
     78c:	4632      	mov	r2, r6
     78e:	463b      	mov	r3, r7
     790:	491a      	ldr	r1, [pc, #104]	; (7fc <main+0x1cc>)
     792:	4628      	mov	r0, r5
     794:	f001 fac8 	bl	1d28 <mbed::Stream::printf(char const*, ...)>
     798:	4919      	ldr	r1, [pc, #100]	; (800 <Heap_Size>)
     79a:	4628      	mov	r0, r5
     79c:	f001 fac4 	bl	1d28 <mbed::Stream::printf(char const*, ...)>
     7a0:	2064      	movs	r0, #100	; 0x64
     7a2:	f000 f983 	bl	aac <wait_ms>
     7a6:	e75d      	b.n	664 <main+0x34>
     7a8:	851eb852 	.word	0x851eb852
     7ac:	4074ddeb 	.word	0x4074ddeb
     7b0:	0000059d 	.word	0x0000059d
     7b4:	00006e58 	.word	0x00006e58
     7b8:	1000043c 	.word	0x1000043c
     7bc:	1000036c 	.word	0x1000036c
     7c0:	100002d0 	.word	0x100002d0
     7c4:	100004b4 	.word	0x100004b4
     7c8:	100002cc 	.word	0x100002cc
     7cc:	00006e64 	.word	0x00006e64
     7d0:	00006e6b 	.word	0x00006e6b
     7d4:	00006e74 	.word	0x00006e74
     7d8:	00006e78 	.word	0x00006e78
     7dc:	00006e81 	.word	0x00006e81
     7e0:	00006e89 	.word	0x00006e89
     7e4:	40350000 	.word	0x40350000
     7e8:	00006e92 	.word	0x00006e92
     7ec:	00006e9a 	.word	0x00006e9a
     7f0:	00006ea2 	.word	0x00006ea2
     7f4:	00006eac 	.word	0x00006eac
     7f8:	00006eb6 	.word	0x00006eb6
     7fc:	00006ec0 	.word	0x00006ec0
     800:	00006e71 	.word	0x00006e71

00000804 <mbed::Serial::~Serial()>:
     804:	b510      	push	{r4, lr}
     806:	4604      	mov	r4, r0
     808:	f7ff fefc 	bl	604 <mbed::Serial::~Serial()>
     80c:	4620      	mov	r0, r4
     80e:	f001 fe26 	bl	245e <operator delete(void*)>
     812:	4620      	mov	r0, r4
     814:	bd10      	pop	{r4, pc}

00000816 <non-virtual thunk to mbed::Serial::~Serial()>:
     816:	f1a0 0030 	sub.w	r0, r0, #48	; 0x30
     81a:	e7f3      	b.n	804 <mbed::Serial::~Serial()>

0000081c <_GLOBAL__sub_I_mpu9250_IntPin>:
     81c:	b530      	push	{r4, r5, lr}
     81e:	4d1d      	ldr	r5, [pc, #116]	; (894 <_GLOBAL__sub_I_mpu9250_IntPin+0x78>)
     820:	b085      	sub	sp, #20
     822:	4c1d      	ldr	r4, [pc, #116]	; (898 <_GLOBAL__sub_I_mpu9250_IntPin+0x7c>)
     824:	491d      	ldr	r1, [pc, #116]	; (89c <_GLOBAL__sub_I_mpu9250_IntPin+0x80>)
     826:	4628      	mov	r0, r5
     828:	f001 fb4e 	bl	1ec8 <mbed::InterruptIn::InterruptIn(PinName)>
     82c:	4628      	mov	r0, r5
     82e:	4d1c      	ldr	r5, [pc, #112]	; (8a0 <_GLOBAL__sub_I_mpu9250_IntPin+0x84>)
     830:	4622      	mov	r2, r4
     832:	491c      	ldr	r1, [pc, #112]	; (8a4 <_GLOBAL__sub_I_mpu9250_IntPin+0x88>)
     834:	f001 fde8 	bl	2408 <__aeabi_atexit>
     838:	4a1b      	ldr	r2, [pc, #108]	; (8a8 <_GLOBAL__sub_I_mpu9250_IntPin+0x8c>)
     83a:	491c      	ldr	r1, [pc, #112]	; (8ac <_GLOBAL__sub_I_mpu9250_IntPin+0x90>)
     83c:	4628      	mov	r0, r5
     83e:	f7ff fc7b 	bl	138 <MPU9250::MPU9250(PinName, PinName)>
     842:	4622      	mov	r2, r4
     844:	491a      	ldr	r1, [pc, #104]	; (8b0 <_GLOBAL__sub_I_mpu9250_IntPin+0x94>)
     846:	4628      	mov	r0, r5
     848:	f001 fdde 	bl	2408 <__aeabi_atexit>
     84c:	2300      	movs	r3, #0
     84e:	9303      	str	r3, [sp, #12]
     850:	4b18      	ldr	r3, [pc, #96]	; (8b4 <_GLOBAL__sub_I_mpu9250_IntPin+0x98>)
     852:	4d19      	ldr	r5, [pc, #100]	; (8b8 <_GLOBAL__sub_I_mpu9250_IntPin+0x9c>)
     854:	9302      	str	r3, [sp, #8]
     856:	3b01      	subs	r3, #1
     858:	9301      	str	r3, [sp, #4]
     85a:	3b01      	subs	r3, #1
     85c:	9300      	str	r3, [sp, #0]
     85e:	4a17      	ldr	r2, [pc, #92]	; (8bc <_GLOBAL__sub_I_mpu9250_IntPin+0xa0>)
     860:	3b01      	subs	r3, #1
     862:	4917      	ldr	r1, [pc, #92]	; (8c0 <_GLOBAL__sub_I_mpu9250_IntPin+0xa4>)
     864:	4628      	mov	r0, r5
     866:	f7ff fd99 	bl	39c <TextLCD::TextLCD(PinName, PinName, PinName, PinName, PinName, PinName, TextLCD::LCDType)>
     86a:	4628      	mov	r0, r5
     86c:	4d15      	ldr	r5, [pc, #84]	; (8c4 <_GLOBAL__sub_I_mpu9250_IntPin+0xa8>)
     86e:	4622      	mov	r2, r4
     870:	4915      	ldr	r1, [pc, #84]	; (8c8 <_GLOBAL__sub_I_mpu9250_IntPin+0xac>)
     872:	f001 fdc9 	bl	2408 <__aeabi_atexit>
     876:	f44f 33e1 	mov.w	r3, #115200	; 0x1c200
     87a:	4a14      	ldr	r2, [pc, #80]	; (8cc <_GLOBAL__sub_I_mpu9250_IntPin+0xb0>)
     87c:	4914      	ldr	r1, [pc, #80]	; (8d0 <_GLOBAL__sub_I_mpu9250_IntPin+0xb4>)
     87e:	4628      	mov	r0, r5
     880:	f001 f86c 	bl	195c <mbed::Serial::Serial(PinName, PinName, int)>
     884:	4622      	mov	r2, r4
     886:	4628      	mov	r0, r5
     888:	4912      	ldr	r1, [pc, #72]	; (8d4 <_GLOBAL__sub_I_mpu9250_IntPin+0xb8>)
     88a:	b005      	add	sp, #20
     88c:	e8bd 4030 	ldmia.w	sp!, {r4, r5, lr}
     890:	f001 bdba 	b.w	2408 <__aeabi_atexit>
     894:	1000043c 	.word	0x1000043c
     898:	100000c8 	.word	0x100000c8
     89c:	2009c00b 	.word	0x2009c00b
     8a0:	1000036c 	.word	0x1000036c
     8a4:	00001e8d 	.word	0x00001e8d
     8a8:	2009c001 	.word	0x2009c001
     8ac:	2009c000 	.word	0x2009c000
     8b0:	00000165 	.word	0x00000165
     8b4:	2009c045 	.word	0x2009c045
     8b8:	100002d0 	.word	0x100002d0
     8bc:	2009c041 	.word	0x2009c041
     8c0:	2009c040 	.word	0x2009c040
     8c4:	10000484 	.word	0x10000484
     8c8:	0000056d 	.word	0x0000056d
     8cc:	2009c003 	.word	0x2009c003
     8d0:	2009c002 	.word	0x2009c002
     8d4:	00000605 	.word	0x00000605

000008d8 <_start>:
     8d8:	4807      	ldr	r0, [pc, #28]	; (8f8 <_start+0x20>)
     8da:	4a08      	ldr	r2, [pc, #32]	; (8fc <_start+0x24>)
     8dc:	b508      	push	{r3, lr}
     8de:	1a12      	subs	r2, r2, r0
     8e0:	2100      	movs	r1, #0
     8e2:	f003 f8ee 	bl	3ac2 <memset>
     8e6:	f001 fd49 	bl	237c <software_init_hook>
     8ea:	f003 f839 	bl	3960 <__libc_init_array>
     8ee:	f001 fd4c 	bl	238a <__wrap_main>
     8f2:	f001 fd8b 	bl	240c <__wrap_exit>
     8f6:	bf00      	nop
     8f8:	100002b0 	.word	0x100002b0
     8fc:	100007c8 	.word	0x100007c8

00000900 <__wrap__isatty>:
     900:	2802      	cmp	r0, #2
     902:	dd01      	ble.n	908 <__wrap__isatty+0x8>
     904:	f001 bcec 	b.w	22e0 <_isatty>
     908:	2001      	movs	r0, #1
     90a:	4770      	bx	lr

0000090c <abort>:
     90c:	b508      	push	{r3, lr}
     90e:	2001      	movs	r0, #1
     910:	f001 fd7c 	bl	240c <__wrap_exit>

00000914 <__cxa_pure_virtual>:
     914:	b508      	push	{r3, lr}
     916:	f7ff fff9 	bl	90c <abort>

0000091a <_gpio_init_in>:
     91a:	b570      	push	{r4, r5, r6, lr}
     91c:	460e      	mov	r6, r1
     91e:	4604      	mov	r4, r0
     920:	4615      	mov	r5, r2
     922:	f000 fa7b 	bl	e1c <gpio_init>
     926:	3601      	adds	r6, #1
     928:	d009      	beq.n	93e <_gpio_init_in+0x24>
     92a:	4620      	mov	r0, r4
     92c:	2100      	movs	r1, #0
     92e:	f000 fa8f 	bl	e50 <gpio_dir>
     932:	4629      	mov	r1, r5
     934:	4620      	mov	r0, r4
     936:	e8bd 4070 	ldmia.w	sp!, {r4, r5, r6, lr}
     93a:	f000 ba86 	b.w	e4a <gpio_mode>
     93e:	bd70      	pop	{r4, r5, r6, pc}

00000940 <_gpio_init_out.part.1>:
     940:	b538      	push	{r3, r4, r5, lr}
     942:	4604      	mov	r4, r0
     944:	460d      	mov	r5, r1
     946:	6843      	ldr	r3, [r0, #4]
     948:	b15a      	cbz	r2, 962 <_gpio_init_out.part.1+0x22>
     94a:	68c2      	ldr	r2, [r0, #12]
     94c:	4620      	mov	r0, r4
     94e:	6013      	str	r3, [r2, #0]
     950:	2101      	movs	r1, #1
     952:	f000 fa7d 	bl	e50 <gpio_dir>
     956:	4629      	mov	r1, r5
     958:	4620      	mov	r0, r4
     95a:	e8bd 4038 	ldmia.w	sp!, {r3, r4, r5, lr}
     95e:	f000 ba74 	b.w	e4a <gpio_mode>
     962:	6902      	ldr	r2, [r0, #16]
     964:	e7f2      	b.n	94c <_gpio_init_out.part.1+0xc>

00000966 <gpio_init_in>:
     966:	2203      	movs	r2, #3
     968:	f7ff bfd7 	b.w	91a <_gpio_init_in>

0000096c <gpio_init_out_ex>:
     96c:	b570      	push	{r4, r5, r6, lr}
     96e:	460e      	mov	r6, r1
     970:	4604      	mov	r4, r0
     972:	4615      	mov	r5, r2
     974:	f000 fa52 	bl	e1c <gpio_init>
     978:	3601      	adds	r6, #1
     97a:	d006      	beq.n	98a <gpio_init_out_ex+0x1e>
     97c:	462a      	mov	r2, r5
     97e:	4620      	mov	r0, r4
     980:	e8bd 4070 	ldmia.w	sp!, {r4, r5, r6, lr}
     984:	2102      	movs	r1, #2
     986:	f7ff bfdb 	b.w	940 <_gpio_init_out.part.1>
     98a:	bd70      	pop	{r4, r5, r6, pc}

0000098c <gpio_init_out>:
     98c:	2200      	movs	r2, #0
     98e:	f7ff bfed 	b.w	96c <gpio_init_out_ex>
	...

00000994 <us_ticker_irq_handler>:
     994:	4801      	ldr	r0, [pc, #4]	; (99c <us_ticker_irq_handler+0x8>)
     996:	f000 b803 	b.w	9a0 <ticker_irq_handler>
     99a:	bf00      	nop
     99c:	00006ecc 	.word	0x00006ecc

000009a0 <ticker_irq_handler>:
     9a0:	6803      	ldr	r3, [r0, #0]
     9a2:	b570      	push	{r4, r5, r6, lr}
     9a4:	68db      	ldr	r3, [r3, #12]
     9a6:	4604      	mov	r4, r0
     9a8:	4798      	blx	r3
     9aa:	6863      	ldr	r3, [r4, #4]
     9ac:	685a      	ldr	r2, [r3, #4]
     9ae:	6823      	ldr	r3, [r4, #0]
     9b0:	b91a      	cbnz	r2, 9ba <ticker_irq_handler+0x1a>
     9b2:	689b      	ldr	r3, [r3, #8]
     9b4:	e8bd 4070 	ldmia.w	sp!, {r4, r5, r6, lr}
     9b8:	4718      	bx	r3
     9ba:	685b      	ldr	r3, [r3, #4]
     9bc:	6815      	ldr	r5, [r2, #0]
     9be:	4798      	blx	r3
     9c0:	6863      	ldr	r3, [r4, #4]
     9c2:	1a28      	subs	r0, r5, r0
     9c4:	2800      	cmp	r0, #0
     9c6:	685a      	ldr	r2, [r3, #4]
     9c8:	dc07      	bgt.n	9da <ticker_irq_handler+0x3a>
     9ca:	6891      	ldr	r1, [r2, #8]
     9cc:	6059      	str	r1, [r3, #4]
     9ce:	681b      	ldr	r3, [r3, #0]
     9d0:	2b00      	cmp	r3, #0
     9d2:	d0ea      	beq.n	9aa <ticker_irq_handler+0xa>
     9d4:	6850      	ldr	r0, [r2, #4]
     9d6:	4798      	blx	r3
     9d8:	e7e7      	b.n	9aa <ticker_irq_handler+0xa>
     9da:	6823      	ldr	r3, [r4, #0]
     9dc:	6810      	ldr	r0, [r2, #0]
     9de:	691b      	ldr	r3, [r3, #16]
     9e0:	e8bd 4070 	ldmia.w	sp!, {r4, r5, r6, lr}
     9e4:	4718      	bx	r3
	...

000009e8 <pinmap_pinout>:
     9e8:	b510      	push	{r4, lr}
     9ea:	4604      	mov	r4, r0
     9ec:	3001      	adds	r0, #1
     9ee:	d10d      	bne.n	a0c <pinmap_pinout+0x24>
     9f0:	bd10      	pop	{r4, pc}
     9f2:	429c      	cmp	r4, r3
     9f4:	d109      	bne.n	a0a <pinmap_pinout+0x22>
     9f6:	4620      	mov	r0, r4
     9f8:	6889      	ldr	r1, [r1, #8]
     9fa:	f000 fee0 	bl	17be <pin_function>
     9fe:	4620      	mov	r0, r4
     a00:	e8bd 4010 	ldmia.w	sp!, {r4, lr}
     a04:	2102      	movs	r1, #2
     a06:	f000 bef3 	b.w	17f0 <pin_mode>
     a0a:	310c      	adds	r1, #12
     a0c:	680b      	ldr	r3, [r1, #0]
     a0e:	1c5a      	adds	r2, r3, #1
     a10:	d1ef      	bne.n	9f2 <pinmap_pinout+0xa>
     a12:	4802      	ldr	r0, [pc, #8]	; (a1c <pinmap_pinout+0x34>)
     a14:	e8bd 4010 	ldmia.w	sp!, {r4, lr}
     a18:	f000 b894 	b.w	b44 <error>
     a1c:	00006f19 	.word	0x00006f19

00000a20 <pinmap_merge>:
     a20:	4288      	cmp	r0, r1
     a22:	b508      	push	{r3, lr}
     a24:	d008      	beq.n	a38 <pinmap_merge+0x18>
     a26:	1c43      	adds	r3, r0, #1
     a28:	d006      	beq.n	a38 <pinmap_merge+0x18>
     a2a:	3101      	adds	r1, #1
     a2c:	d006      	beq.n	a3c <pinmap_merge+0x1c>
     a2e:	4804      	ldr	r0, [pc, #16]	; (a40 <pinmap_merge+0x20>)
     a30:	f000 f888 	bl	b44 <error>
     a34:	f04f 31ff 	mov.w	r1, #4294967295	; 0xffffffff
     a38:	4608      	mov	r0, r1
     a3a:	bd08      	pop	{r3, pc}
     a3c:	4601      	mov	r1, r0
     a3e:	e7fb      	b.n	a38 <pinmap_merge+0x18>
     a40:	00006ee8 	.word	0x00006ee8

00000a44 <pinmap_find_peripheral>:
     a44:	680b      	ldr	r3, [r1, #0]
     a46:	1c5a      	adds	r2, r3, #1
     a48:	d101      	bne.n	a4e <pinmap_find_peripheral+0xa>
     a4a:	4618      	mov	r0, r3
     a4c:	4770      	bx	lr
     a4e:	4283      	cmp	r3, r0
     a50:	d101      	bne.n	a56 <pinmap_find_peripheral+0x12>
     a52:	6848      	ldr	r0, [r1, #4]
     a54:	4770      	bx	lr
     a56:	310c      	adds	r1, #12
     a58:	e7f4      	b.n	a44 <pinmap_find_peripheral>
	...

00000a5c <pinmap_peripheral>:
     a5c:	1c42      	adds	r2, r0, #1
     a5e:	b510      	push	{r4, lr}
     a60:	4604      	mov	r4, r0
     a62:	d007      	beq.n	a74 <pinmap_peripheral+0x18>
     a64:	f7ff ffee 	bl	a44 <pinmap_find_peripheral>
     a68:	1c43      	adds	r3, r0, #1
     a6a:	4604      	mov	r4, r0
     a6c:	d102      	bne.n	a74 <pinmap_peripheral+0x18>
     a6e:	4802      	ldr	r0, [pc, #8]	; (a78 <pinmap_peripheral+0x1c>)
     a70:	f000 f868 	bl	b44 <error>
     a74:	4620      	mov	r0, r4
     a76:	bd10      	pop	{r4, pc}
     a78:	00006ef9 	.word	0x00006ef9

00000a7c <wait_us>:
     a7c:	b538      	push	{r3, r4, r5, lr}
     a7e:	4604      	mov	r4, r0
     a80:	f000 fd44 	bl	150c <us_ticker_read>
     a84:	4605      	mov	r5, r0
     a86:	f000 fd41 	bl	150c <us_ticker_read>
     a8a:	1b40      	subs	r0, r0, r5
     a8c:	42a0      	cmp	r0, r4
     a8e:	d3fa      	bcc.n	a86 <wait_us+0xa>
     a90:	bd38      	pop	{r3, r4, r5, pc}
	...

00000a94 <wait>:
     a94:	b508      	push	{r3, lr}
     a96:	4904      	ldr	r1, [pc, #16]	; (aa8 <wait+0x14>)
     a98:	f002 fb22 	bl	30e0 <__aeabi_fmul>
     a9c:	f002 fc70 	bl	3380 <__aeabi_f2iz>
     aa0:	e8bd 4008 	ldmia.w	sp!, {r3, lr}
     aa4:	f7ff bfea 	b.w	a7c <wait_us>
     aa8:	49742400 	.word	0x49742400

00000aac <wait_ms>:
     aac:	f44f 737a 	mov.w	r3, #1000	; 0x3e8
     ab0:	4358      	muls	r0, r3
     ab2:	f7ff bfe3 	b.w	a7c <wait_us>

00000ab6 <mbed_interface_connected>:
     ab6:	f000 b83d 	b.w	b34 <semihost_connected>

00000aba <core_util_are_interrupts_enabled>:
     aba:	f3ef 8010 	mrs	r0, PRIMASK
     abe:	43c0      	mvns	r0, r0
     ac0:	f000 0001 	and.w	r0, r0, #1
     ac4:	4770      	bx	lr
	...

00000ac8 <core_util_critical_section_enter>:
     ac8:	b508      	push	{r3, lr}
     aca:	f7ff fff6 	bl	aba <core_util_are_interrupts_enabled>
     ace:	b672      	cpsid	i
     ad0:	4b06      	ldr	r3, [pc, #24]	; (aec <core_util_critical_section_enter+0x24>)
     ad2:	681a      	ldr	r2, [r3, #0]
     ad4:	b922      	cbnz	r2, ae0 <core_util_critical_section_enter+0x18>
     ad6:	f080 0001 	eor.w	r0, r0, #1
     ada:	4a05      	ldr	r2, [pc, #20]	; (af0 <core_util_critical_section_enter+0x28>)
     adc:	b2c0      	uxtb	r0, r0
     ade:	7010      	strb	r0, [r2, #0]
     ae0:	681a      	ldr	r2, [r3, #0]
     ae2:	681a      	ldr	r2, [r3, #0]
     ae4:	3201      	adds	r2, #1
     ae6:	601a      	str	r2, [r3, #0]
     ae8:	bd08      	pop	{r3, pc}
     aea:	bf00      	nop
     aec:	100004d8 	.word	0x100004d8
     af0:	100004d4 	.word	0x100004d4

00000af4 <core_util_critical_section_exit>:
     af4:	b508      	push	{r3, lr}
     af6:	4b07      	ldr	r3, [pc, #28]	; (b14 <core_util_critical_section_exit+0x20>)
     af8:	681a      	ldr	r2, [r3, #0]
     afa:	b152      	cbz	r2, b12 <core_util_critical_section_exit+0x1e>
     afc:	f7ff ffdd 	bl	aba <core_util_are_interrupts_enabled>
     b00:	681a      	ldr	r2, [r3, #0]
     b02:	3a01      	subs	r2, #1
     b04:	601a      	str	r2, [r3, #0]
     b06:	681b      	ldr	r3, [r3, #0]
     b08:	b91b      	cbnz	r3, b12 <core_util_critical_section_exit+0x1e>
     b0a:	4b03      	ldr	r3, [pc, #12]	; (b18 <core_util_critical_section_exit+0x24>)
     b0c:	781b      	ldrb	r3, [r3, #0]
     b0e:	b903      	cbnz	r3, b12 <core_util_critical_section_exit+0x1e>
     b10:	b662      	cpsie	i
     b12:	bd08      	pop	{r3, pc}
     b14:	100004d8 	.word	0x100004d8
     b18:	100004d4 	.word	0x100004d4

00000b1c <semihost_exit>:
     b1c:	b530      	push	{r4, r5, lr}
     b1e:	b085      	sub	sp, #20
     b20:	466d      	mov	r5, sp
     b22:	2418      	movs	r4, #24
     b24:	4620      	mov	r0, r4
     b26:	4629      	mov	r1, r5
     b28:	beab      	bkpt	0x00ab
     b2a:	4604      	mov	r4, r0
     b2c:	4620      	mov	r0, r4
     b2e:	b005      	add	sp, #20
     b30:	bd30      	pop	{r4, r5, pc}
	...

00000b34 <semihost_connected>:
     b34:	4b02      	ldr	r3, [pc, #8]	; (b40 <semihost_connected+0xc>)
     b36:	6818      	ldr	r0, [r3, #0]
     b38:	f000 0001 	and.w	r0, r0, #1
     b3c:	4770      	bx	lr
     b3e:	bf00      	nop
     b40:	e000edf0 	.word	0xe000edf0

00000b44 <error>:
     b44:	b40f      	push	{r0, r1, r2, r3}
     b46:	2001      	movs	r0, #1
     b48:	b508      	push	{r3, lr}
     b4a:	f001 fc5f 	bl	240c <__wrap_exit>
	...

00000b50 <mbed_die>:
     b50:	b500      	push	{lr}
     b52:	b099      	sub	sp, #100	; 0x64
     b54:	f7ff ffb8 	bl	ac8 <core_util_critical_section_enter>
     b58:	4917      	ldr	r1, [pc, #92]	; (bb8 <mbed_die+0x68>)
     b5a:	4668      	mov	r0, sp
     b5c:	f7ff ff16 	bl	98c <gpio_init_out>
     b60:	4916      	ldr	r1, [pc, #88]	; (bbc <mbed_die+0x6c>)
     b62:	a806      	add	r0, sp, #24
     b64:	f7ff ff12 	bl	98c <gpio_init_out>
     b68:	4915      	ldr	r1, [pc, #84]	; (bc0 <mbed_die+0x70>)
     b6a:	a80c      	add	r0, sp, #48	; 0x30
     b6c:	f7ff ff0e 	bl	98c <gpio_init_out>
     b70:	4914      	ldr	r1, [pc, #80]	; (bc4 <mbed_die+0x74>)
     b72:	a812      	add	r0, sp, #72	; 0x48
     b74:	f7ff ff0a 	bl	98c <gpio_init_out>
     b78:	9a01      	ldr	r2, [sp, #4]
     b7a:	9b03      	ldr	r3, [sp, #12]
     b7c:	2096      	movs	r0, #150	; 0x96
     b7e:	601a      	str	r2, [r3, #0]
     b80:	9a07      	ldr	r2, [sp, #28]
     b82:	9b0a      	ldr	r3, [sp, #40]	; 0x28
     b84:	601a      	str	r2, [r3, #0]
     b86:	9a0d      	ldr	r2, [sp, #52]	; 0x34
     b88:	9b10      	ldr	r3, [sp, #64]	; 0x40
     b8a:	601a      	str	r2, [r3, #0]
     b8c:	9a13      	ldr	r2, [sp, #76]	; 0x4c
     b8e:	9b15      	ldr	r3, [sp, #84]	; 0x54
     b90:	601a      	str	r2, [r3, #0]
     b92:	f7ff ff8b 	bl	aac <wait_ms>
     b96:	9a01      	ldr	r2, [sp, #4]
     b98:	9b04      	ldr	r3, [sp, #16]
     b9a:	2096      	movs	r0, #150	; 0x96
     b9c:	601a      	str	r2, [r3, #0]
     b9e:	9a07      	ldr	r2, [sp, #28]
     ba0:	9b09      	ldr	r3, [sp, #36]	; 0x24
     ba2:	601a      	str	r2, [r3, #0]
     ba4:	9a0d      	ldr	r2, [sp, #52]	; 0x34
     ba6:	9b0f      	ldr	r3, [sp, #60]	; 0x3c
     ba8:	601a      	str	r2, [r3, #0]
     baa:	9a13      	ldr	r2, [sp, #76]	; 0x4c
     bac:	9b16      	ldr	r3, [sp, #88]	; 0x58
     bae:	601a      	str	r2, [r3, #0]
     bb0:	f7ff ff7c 	bl	aac <wait_ms>
     bb4:	e7e0      	b.n	b78 <mbed_die+0x28>
     bb6:	bf00      	nop
     bb8:	2009c032 	.word	0x2009c032
     bbc:	2009c034 	.word	0x2009c034
     bc0:	2009c035 	.word	0x2009c035
     bc4:	2009c037 	.word	0x2009c037

00000bc8 <handle_interrupt_in>:
     bc8:	e92d 4ff7 	stmdb	sp!, {r0, r1, r2, r4, r5, r6, r7, r8, r9, r10, r11, lr}
     bcc:	f04f 0a01 	mov.w	r10, #1
     bd0:	4c3a      	ldr	r4, [pc, #232]	; (cbc <Stack_Size+0xbc>)
     bd2:	4a3b      	ldr	r2, [pc, #236]	; (cc0 <Stack_Size+0xc0>)
     bd4:	f8d4 9004 	ldr.w	r9, [r4, #4]
     bd8:	f8df b0e8 	ldr.w	r11, [pc, #232]	; cc4 <Stack_Size+0xc4>
     bdc:	f8d4 8008 	ldr.w	r8, [r4, #8]
     be0:	6a67      	ldr	r7, [r4, #36]	; 0x24
     be2:	6aa6      	ldr	r6, [r4, #40]	; 0x28
     be4:	f1b9 0f00 	cmp.w	r9, #0
     be8:	d115      	bne.n	c16 <Stack_Size+0x16>
     bea:	f8df 90d4 	ldr.w	r9, [pc, #212]	; cc0 <Stack_Size+0xc0>
     bee:	f8df a0d4 	ldr.w	r10, [pc, #212]	; cc4 <Stack_Size+0xc4>
     bf2:	f1b8 0f00 	cmp.w	r8, #0
     bf6:	d122      	bne.n	c3e <Stack_Size+0x3e>
     bf8:	f04f 0a01 	mov.w	r10, #1
     bfc:	f8df 80c0 	ldr.w	r8, [pc, #192]	; cc0 <Stack_Size+0xc0>
     c00:	f8df 90c0 	ldr.w	r9, [pc, #192]	; cc4 <Stack_Size+0xc4>
     c04:	bb77      	cbnz	r7, c64 <Stack_Size+0x64>
     c06:	4f2e      	ldr	r7, [pc, #184]	; (cc0 <Stack_Size+0xc0>)
     c08:	f8df 80b8 	ldr.w	r8, [pc, #184]	; cc4 <Stack_Size+0xc4>
     c0c:	2e00      	cmp	r6, #0
     c0e:	d13e      	bne.n	c8e <Stack_Size+0x8e>
     c10:	b003      	add	sp, #12
     c12:	e8bd 8ff0 	ldmia.w	sp!, {r4, r5, r6, r7, r8, r9, r10, r11, pc}
     c16:	fab9 f589 	clz	r5, r9
     c1a:	f1c5 051f 	rsb	r5, r5, #31
     c1e:	b2ed      	uxtb	r5, r5
     c20:	f852 0025 	ldr.w	r0, [r2, r5, lsl #2]
     c24:	b128      	cbz	r0, c32 <Stack_Size+0x32>
     c26:	2101      	movs	r1, #1
     c28:	f8db 3000 	ldr.w	r3, [r11]
     c2c:	9201      	str	r2, [sp, #4]
     c2e:	4798      	blx	r3
     c30:	9a01      	ldr	r2, [sp, #4]
     c32:	fa0a f505 	lsl.w	r5, r10, r5
     c36:	60e5      	str	r5, [r4, #12]
     c38:	eba9 0905 	sub.w	r9, r9, r5
     c3c:	e7d2      	b.n	be4 <handle_interrupt_in+0x1c>
     c3e:	fab8 f588 	clz	r5, r8
     c42:	f1c5 051f 	rsb	r5, r5, #31
     c46:	b2ed      	uxtb	r5, r5
     c48:	f859 0025 	ldr.w	r0, [r9, r5, lsl #2]
     c4c:	b118      	cbz	r0, c56 <Stack_Size+0x56>
     c4e:	2102      	movs	r1, #2
     c50:	f8da 3000 	ldr.w	r3, [r10]
     c54:	4798      	blx	r3
     c56:	2301      	movs	r3, #1
     c58:	fa03 f505 	lsl.w	r5, r3, r5
     c5c:	60e5      	str	r5, [r4, #12]
     c5e:	eba8 0805 	sub.w	r8, r8, r5
     c62:	e7c6      	b.n	bf2 <handle_interrupt_in+0x2a>
     c64:	fab7 f587 	clz	r5, r7
     c68:	f1c5 051f 	rsb	r5, r5, #31
     c6c:	b2ed      	uxtb	r5, r5
     c6e:	2d0f      	cmp	r5, #15
     c70:	d808      	bhi.n	c84 <Stack_Size+0x84>
     c72:	f105 0320 	add.w	r3, r5, #32
     c76:	f858 0023 	ldr.w	r0, [r8, r3, lsl #2]
     c7a:	b118      	cbz	r0, c84 <Stack_Size+0x84>
     c7c:	2101      	movs	r1, #1
     c7e:	f8d9 3000 	ldr.w	r3, [r9]
     c82:	4798      	blx	r3
     c84:	fa0a f505 	lsl.w	r5, r10, r5
     c88:	62e5      	str	r5, [r4, #44]	; 0x2c
     c8a:	1b7f      	subs	r7, r7, r5
     c8c:	e7ba      	b.n	c04 <Stack_Size+0x4>
     c8e:	fab6 f586 	clz	r5, r6
     c92:	f1c5 051f 	rsb	r5, r5, #31
     c96:	b2ed      	uxtb	r5, r5
     c98:	2d0f      	cmp	r5, #15
     c9a:	d808      	bhi.n	cae <Stack_Size+0xae>
     c9c:	f105 0320 	add.w	r3, r5, #32
     ca0:	f857 0023 	ldr.w	r0, [r7, r3, lsl #2]
     ca4:	b118      	cbz	r0, cae <Stack_Size+0xae>
     ca6:	2102      	movs	r1, #2
     ca8:	f8d8 3000 	ldr.w	r3, [r8]
     cac:	4798      	blx	r3
     cae:	2301      	movs	r3, #1
     cb0:	fa03 f505 	lsl.w	r5, r3, r5
     cb4:	62e5      	str	r5, [r4, #44]	; 0x2c
     cb6:	1b76      	subs	r6, r6, r5
     cb8:	e7a8      	b.n	c0c <Stack_Size+0xc>
     cba:	bf00      	nop
     cbc:	40028080 	.word	0x40028080
     cc0:	100004dc 	.word	0x100004dc
     cc4:	1000059c 	.word	0x1000059c

00000cc8 <gpio_irq_init>:
     cc8:	b570      	push	{r4, r5, r6, lr}
     cca:	461e      	mov	r6, r3
     ccc:	1c4b      	adds	r3, r1, #1
     cce:	4604      	mov	r4, r0
     cd0:	d022      	beq.n	d18 <gpio_irq_init+0x50>
     cd2:	4b12      	ldr	r3, [pc, #72]	; (d1c <gpio_irq_init+0x54>)
     cd4:	4d12      	ldr	r5, [pc, #72]	; (d20 <gpio_irq_init+0x58>)
     cd6:	601a      	str	r2, [r3, #0]
     cd8:	f021 031f 	bic.w	r3, r1, #31
     cdc:	6003      	str	r3, [r0, #0]
     cde:	f001 031f 	and.w	r3, r1, #31
     ce2:	f021 015f 	bic.w	r1, r1, #95	; 0x5f
     ce6:	42a9      	cmp	r1, r5
     ce8:	6043      	str	r3, [r0, #4]
     cea:	d002      	beq.n	cf2 <gpio_irq_init+0x2a>
     cec:	480d      	ldr	r0, [pc, #52]	; (d24 <gpio_irq_init+0x5c>)
     cee:	f7ff ff29 	bl	b44 <error>
     cf2:	6823      	ldr	r3, [r4, #0]
     cf4:	6862      	ldr	r2, [r4, #4]
     cf6:	42ab      	cmp	r3, r5
     cf8:	490b      	ldr	r1, [pc, #44]	; (d28 <gpio_irq_init+0x60>)
     cfa:	bf18      	it	ne
     cfc:	3220      	addne	r2, #32
     cfe:	f841 6022 	str.w	r6, [r1, r2, lsl #2]
     d02:	60a2      	str	r2, [r4, #8]
     d04:	4909      	ldr	r1, [pc, #36]	; (d2c <gpio_irq_init+0x64>)
     d06:	2015      	movs	r0, #21
     d08:	f000 fda0 	bl	184c <__NVIC_SetVector>
     d0c:	f44f 1200 	mov.w	r2, #2097152	; 0x200000
     d10:	4b07      	ldr	r3, [pc, #28]	; (d30 <gpio_irq_init+0x68>)
     d12:	2000      	movs	r0, #0
     d14:	601a      	str	r2, [r3, #0]
     d16:	bd70      	pop	{r4, r5, r6, pc}
     d18:	4608      	mov	r0, r1
     d1a:	bd70      	pop	{r4, r5, r6, pc}
     d1c:	1000059c 	.word	0x1000059c
     d20:	2009c000 	.word	0x2009c000
     d24:	00006f2a 	.word	0x00006f2a
     d28:	100004dc 	.word	0x100004dc
     d2c:	00000bc9 	.word	0x00000bc9
     d30:	e000e100 	.word	0xe000e100

00000d34 <gpio_irq_free>:
     d34:	2100      	movs	r1, #0
     d36:	6882      	ldr	r2, [r0, #8]
     d38:	4b01      	ldr	r3, [pc, #4]	; (d40 <gpio_irq_free+0xc>)
     d3a:	f843 1022 	str.w	r1, [r3, r2, lsl #2]
     d3e:	4770      	bx	lr
     d40:	100004dc 	.word	0x100004dc

00000d44 <gpio_irq_set>:
     d44:	b530      	push	{r4, r5, lr}
     d46:	6803      	ldr	r3, [r0, #0]
     d48:	4d2c      	ldr	r5, [pc, #176]	; (dfc <gpio_irq_set+0xb8>)
     d4a:	42ab      	cmp	r3, r5
     d4c:	d009      	beq.n	d62 <gpio_irq_set+0x1e>
     d4e:	4c2c      	ldr	r4, [pc, #176]	; (e00 <gpio_irq_set+0xbc>)
     d50:	42a3      	cmp	r3, r4
     d52:	d017      	beq.n	d84 <gpio_irq_set+0x40>
     d54:	2901      	cmp	r1, #1
     d56:	d130      	bne.n	dba <gpio_irq_set+0x76>
     d58:	42ab      	cmp	r3, r5
     d5a:	d00a      	beq.n	d72 <gpio_irq_set+0x2e>
     d5c:	42a3      	cmp	r3, r4
     d5e:	d019      	beq.n	d94 <gpio_irq_set+0x50>
     d60:	bd30      	pop	{r4, r5, pc}
     d62:	2301      	movs	r3, #1
     d64:	6844      	ldr	r4, [r0, #4]
     d66:	2901      	cmp	r1, #1
     d68:	fa03 f304 	lsl.w	r3, r3, r4
     d6c:	4c25      	ldr	r4, [pc, #148]	; (e04 <gpio_irq_set+0xc0>)
     d6e:	60e3      	str	r3, [r4, #12]
     d70:	d130      	bne.n	dd4 <gpio_irq_set+0x90>
     d72:	2301      	movs	r3, #1
     d74:	6840      	ldr	r0, [r0, #4]
     d76:	4923      	ldr	r1, [pc, #140]	; (e04 <gpio_irq_set+0xc0>)
     d78:	b1aa      	cbz	r2, da6 <gpio_irq_set+0x62>
     d7a:	690a      	ldr	r2, [r1, #16]
     d7c:	4083      	lsls	r3, r0
     d7e:	4313      	orrs	r3, r2
     d80:	610b      	str	r3, [r1, #16]
     d82:	bd30      	pop	{r4, r5, pc}
     d84:	2301      	movs	r3, #1
     d86:	6844      	ldr	r4, [r0, #4]
     d88:	2901      	cmp	r1, #1
     d8a:	fa03 f304 	lsl.w	r3, r3, r4
     d8e:	4c1d      	ldr	r4, [pc, #116]	; (e04 <gpio_irq_set+0xc0>)
     d90:	62e3      	str	r3, [r4, #44]	; 0x2c
     d92:	d116      	bne.n	dc2 <gpio_irq_set+0x7e>
     d94:	2301      	movs	r3, #1
     d96:	6840      	ldr	r0, [r0, #4]
     d98:	491a      	ldr	r1, [pc, #104]	; (e04 <gpio_irq_set+0xc0>)
     d9a:	b14a      	cbz	r2, db0 <gpio_irq_set+0x6c>
     d9c:	6b0a      	ldr	r2, [r1, #48]	; 0x30
     d9e:	4083      	lsls	r3, r0
     da0:	4313      	orrs	r3, r2
     da2:	630b      	str	r3, [r1, #48]	; 0x30
     da4:	bd30      	pop	{r4, r5, pc}
     da6:	690a      	ldr	r2, [r1, #16]
     da8:	4083      	lsls	r3, r0
     daa:	ea22 0303 	bic.w	r3, r2, r3
     dae:	e7e7      	b.n	d80 <gpio_irq_set+0x3c>
     db0:	6b0a      	ldr	r2, [r1, #48]	; 0x30
     db2:	4083      	lsls	r3, r0
     db4:	ea22 0303 	bic.w	r3, r2, r3
     db8:	e7f3      	b.n	da2 <gpio_irq_set+0x5e>
     dba:	42ab      	cmp	r3, r5
     dbc:	d00a      	beq.n	dd4 <gpio_irq_set+0x90>
     dbe:	42a3      	cmp	r3, r4
     dc0:	d1ce      	bne.n	d60 <gpio_irq_set+0x1c>
     dc2:	2301      	movs	r3, #1
     dc4:	6840      	ldr	r0, [r0, #4]
     dc6:	490f      	ldr	r1, [pc, #60]	; (e04 <gpio_irq_set+0xc0>)
     dc8:	b192      	cbz	r2, df0 <gpio_irq_set+0xac>
     dca:	6b4a      	ldr	r2, [r1, #52]	; 0x34
     dcc:	4083      	lsls	r3, r0
     dce:	4313      	orrs	r3, r2
     dd0:	634b      	str	r3, [r1, #52]	; 0x34
     dd2:	e7c5      	b.n	d60 <gpio_irq_set+0x1c>
     dd4:	2301      	movs	r3, #1
     dd6:	6840      	ldr	r0, [r0, #4]
     dd8:	490a      	ldr	r1, [pc, #40]	; (e04 <gpio_irq_set+0xc0>)
     dda:	b122      	cbz	r2, de6 <gpio_irq_set+0xa2>
     ddc:	694a      	ldr	r2, [r1, #20]
     dde:	4083      	lsls	r3, r0
     de0:	4313      	orrs	r3, r2
     de2:	614b      	str	r3, [r1, #20]
     de4:	bd30      	pop	{r4, r5, pc}
     de6:	694a      	ldr	r2, [r1, #20]
     de8:	4083      	lsls	r3, r0
     dea:	ea22 0303 	bic.w	r3, r2, r3
     dee:	e7f8      	b.n	de2 <gpio_irq_set+0x9e>
     df0:	6b4a      	ldr	r2, [r1, #52]	; 0x34
     df2:	4083      	lsls	r3, r0
     df4:	ea22 0303 	bic.w	r3, r2, r3
     df8:	e7ea      	b.n	dd0 <gpio_irq_set+0x8c>
     dfa:	bf00      	nop
     dfc:	2009c000 	.word	0x2009c000
     e00:	2009c040 	.word	0x2009c040
     e04:	40028080 	.word	0x40028080

00000e08 <gpio_set>:
     e08:	b510      	push	{r4, lr}
     e0a:	2100      	movs	r1, #0
     e0c:	4604      	mov	r4, r0
     e0e:	f000 fcd6 	bl	17be <pin_function>
     e12:	2001      	movs	r0, #1
     e14:	f004 041f 	and.w	r4, r4, #31
     e18:	40a0      	lsls	r0, r4
     e1a:	bd10      	pop	{r4, pc}

00000e1c <gpio_init>:
     e1c:	b538      	push	{r3, r4, r5, lr}
     e1e:	4605      	mov	r5, r0
     e20:	1c4b      	adds	r3, r1, #1
     e22:	460c      	mov	r4, r1
     e24:	6029      	str	r1, [r5, #0]
     e26:	d00f      	beq.n	e48 <gpio_init+0x2c>
     e28:	4608      	mov	r0, r1
     e2a:	f7ff ffed 	bl	e08 <gpio_set>
     e2e:	f024 041f 	bic.w	r4, r4, #31
     e32:	f104 0318 	add.w	r3, r4, #24
     e36:	60eb      	str	r3, [r5, #12]
     e38:	f104 031c 	add.w	r3, r4, #28
     e3c:	612b      	str	r3, [r5, #16]
     e3e:	f104 0314 	add.w	r3, r4, #20
     e42:	6068      	str	r0, [r5, #4]
     e44:	616b      	str	r3, [r5, #20]
     e46:	60ac      	str	r4, [r5, #8]
     e48:	bd38      	pop	{r3, r4, r5, pc}

00000e4a <gpio_mode>:
     e4a:	6800      	ldr	r0, [r0, #0]
     e4c:	f000 bcd0 	b.w	17f0 <pin_mode>

00000e50 <gpio_dir>:
     e50:	b111      	cbz	r1, e58 <gpio_dir+0x8>
     e52:	2901      	cmp	r1, #1
     e54:	d007      	beq.n	e66 <gpio_dir+0x16>
     e56:	4770      	bx	lr
     e58:	6882      	ldr	r2, [r0, #8]
     e5a:	6841      	ldr	r1, [r0, #4]
     e5c:	6813      	ldr	r3, [r2, #0]
     e5e:	ea23 0301 	bic.w	r3, r3, r1
     e62:	6013      	str	r3, [r2, #0]
     e64:	4770      	bx	lr
     e66:	6882      	ldr	r2, [r0, #8]
     e68:	6841      	ldr	r1, [r0, #4]
     e6a:	6813      	ldr	r3, [r2, #0]
     e6c:	430b      	orrs	r3, r1
     e6e:	e7f8      	b.n	e62 <gpio_dir+0x12>

00000e70 <uart_irq>:
     e70:	2801      	cmp	r0, #1
     e72:	b410      	push	{r4}
     e74:	d008      	beq.n	e88 <uart_irq+0x18>
     e76:	2802      	cmp	r0, #2
     e78:	d008      	beq.n	e8c <uart_irq+0x1c>
     e7a:	bc10      	pop	{r4}
     e7c:	4770      	bx	lr
     e7e:	6850      	ldr	r0, [r2, #4]
     e80:	f020 0001 	bic.w	r0, r0, #1
     e84:	6050      	str	r0, [r2, #4]
     e86:	e010      	b.n	eaa <uart_irq+0x3a>
     e88:	4603      	mov	r3, r0
     e8a:	e00e      	b.n	eaa <uart_irq+0x3a>
     e8c:	2338      	movs	r3, #56	; 0x38
     e8e:	480f      	ldr	r0, [pc, #60]	; (ecc <uart_irq+0x5c>)
     e90:	fb03 0301 	mla	r3, r3, r1, r0
     e94:	6858      	ldr	r0, [r3, #4]
     e96:	3001      	adds	r0, #1
     e98:	d006      	beq.n	ea8 <uart_irq+0x38>
     e9a:	6918      	ldr	r0, [r3, #16]
     e9c:	689c      	ldr	r4, [r3, #8]
     e9e:	6004      	str	r4, [r0, #0]
     ea0:	f893 3036 	ldrb.w	r3, [r3, #54]	; 0x36
     ea4:	2b00      	cmp	r3, #0
     ea6:	d0ea      	beq.n	e7e <uart_irq+0xe>
     ea8:	2300      	movs	r3, #0
     eaa:	2238      	movs	r2, #56	; 0x38
     eac:	4351      	muls	r1, r2
     eae:	4807      	ldr	r0, [pc, #28]	; (ecc <uart_irq+0x5c>)
     eb0:	1842      	adds	r2, r0, r1
     eb2:	5840      	ldr	r0, [r0, r1]
     eb4:	2800      	cmp	r0, #0
     eb6:	d0e0      	beq.n	e7a <uart_irq+0xa>
     eb8:	b91b      	cbnz	r3, ec2 <uart_irq+0x52>
     eba:	f892 2036 	ldrb.w	r2, [r2, #54]	; 0x36
     ebe:	2a00      	cmp	r2, #0
     ec0:	d0db      	beq.n	e7a <uart_irq+0xa>
     ec2:	4a03      	ldr	r2, [pc, #12]	; (ed0 <uart_irq+0x60>)
     ec4:	4619      	mov	r1, r3
     ec6:	6812      	ldr	r2, [r2, #0]
     ec8:	bc10      	pop	{r4}
     eca:	4710      	bx	r2
     ecc:	100005a8 	.word	0x100005a8
     ed0:	100005a0 	.word	0x100005a0

00000ed4 <uart0_irq>:
     ed4:	4a03      	ldr	r2, [pc, #12]	; (ee4 <uart0_irq+0x10>)
     ed6:	2100      	movs	r1, #0
     ed8:	6890      	ldr	r0, [r2, #8]
     eda:	f3c0 0042 	ubfx	r0, r0, #1, #3
     ede:	f7ff bfc7 	b.w	e70 <uart_irq>
     ee2:	bf00      	nop
     ee4:	4000c000 	.word	0x4000c000

00000ee8 <uart1_irq>:
     ee8:	4a03      	ldr	r2, [pc, #12]	; (ef8 <uart1_irq+0x10>)
     eea:	2101      	movs	r1, #1
     eec:	6890      	ldr	r0, [r2, #8]
     eee:	f3c0 0042 	ubfx	r0, r0, #1, #3
     ef2:	f7ff bfbd 	b.w	e70 <uart_irq>
     ef6:	bf00      	nop
     ef8:	40010000 	.word	0x40010000

00000efc <uart2_irq>:
     efc:	4a03      	ldr	r2, [pc, #12]	; (f0c <uart2_irq+0x10>)
     efe:	2102      	movs	r1, #2
     f00:	6890      	ldr	r0, [r2, #8]
     f02:	f3c0 0042 	ubfx	r0, r0, #1, #3
     f06:	f7ff bfb3 	b.w	e70 <uart_irq>
     f0a:	bf00      	nop
     f0c:	40098000 	.word	0x40098000

00000f10 <uart3_irq>:
     f10:	4a03      	ldr	r2, [pc, #12]	; (f20 <uart3_irq+0x10>)
     f12:	2103      	movs	r1, #3
     f14:	6890      	ldr	r0, [r2, #8]
     f16:	f3c0 0042 	ubfx	r0, r0, #1, #3
     f1a:	f7ff bfa9 	b.w	e70 <uart_irq>
     f1e:	bf00      	nop
     f20:	4009c000 	.word	0x4009c000

00000f24 <serial_irq_set_internal>:
     f24:	b570      	push	{r4, r5, r6, lr}
     f26:	460b      	mov	r3, r1
     f28:	6806      	ldr	r6, [r0, #0]
     f2a:	4929      	ldr	r1, [pc, #164]	; (fd0 <serial_irq_set_internal+0xac>)
     f2c:	428e      	cmp	r6, r1
     f2e:	d022      	beq.n	f76 <serial_irq_set_internal+0x52>
     f30:	dc06      	bgt.n	f40 <serial_irq_set_internal+0x1c>
     f32:	f5a1 4180 	sub.w	r1, r1, #16384	; 0x4000
     f36:	428e      	cmp	r6, r1
     f38:	d00c      	beq.n	f54 <serial_irq_set_internal+0x30>
     f3a:	2100      	movs	r1, #0
     f3c:	460c      	mov	r4, r1
     f3e:	e00b      	b.n	f58 <serial_irq_set_internal+0x34>
     f40:	4924      	ldr	r1, [pc, #144]	; (fd4 <serial_irq_set_internal+0xb0>)
     f42:	428e      	cmp	r6, r1
     f44:	d01a      	beq.n	f7c <serial_irq_set_internal+0x58>
     f46:	f501 4180 	add.w	r1, r1, #16384	; 0x4000
     f4a:	428e      	cmp	r6, r1
     f4c:	d1f5      	bne.n	f3a <serial_irq_set_internal+0x16>
     f4e:	4922      	ldr	r1, [pc, #136]	; (fd8 <serial_irq_set_internal+0xb4>)
     f50:	2408      	movs	r4, #8
     f52:	e001      	b.n	f58 <serial_irq_set_internal+0x34>
     f54:	2405      	movs	r4, #5
     f56:	4921      	ldr	r1, [pc, #132]	; (fdc <serial_irq_set_internal+0xb8>)
     f58:	b19a      	cbz	r2, f82 <serial_irq_set_internal+0x5e>
     f5a:	2501      	movs	r5, #1
     f5c:	6872      	ldr	r2, [r6, #4]
     f5e:	fa05 f303 	lsl.w	r3, r5, r3
     f62:	4313      	orrs	r3, r2
     f64:	6073      	str	r3, [r6, #4]
     f66:	4620      	mov	r0, r4
     f68:	f000 fc70 	bl	184c <__NVIC_SetVector>
     f6c:	4b1c      	ldr	r3, [pc, #112]	; (fe0 <serial_irq_set_internal+0xbc>)
     f6e:	fa05 f404 	lsl.w	r4, r5, r4
     f72:	601c      	str	r4, [r3, #0]
     f74:	bd70      	pop	{r4, r5, r6, pc}
     f76:	491b      	ldr	r1, [pc, #108]	; (fe4 <serial_irq_set_internal+0xc0>)
     f78:	2406      	movs	r4, #6
     f7a:	e7ed      	b.n	f58 <serial_irq_set_internal+0x34>
     f7c:	491a      	ldr	r1, [pc, #104]	; (fe8 <serial_irq_set_internal+0xc4>)
     f7e:	2407      	movs	r4, #7
     f80:	e7ea      	b.n	f58 <serial_irq_set_internal+0x34>
     f82:	2b01      	cmp	r3, #1
     f84:	d00a      	beq.n	f9c <serial_irq_set_internal+0x78>
     f86:	6842      	ldr	r2, [r0, #4]
     f88:	2038      	movs	r0, #56	; 0x38
     f8a:	4918      	ldr	r1, [pc, #96]	; (fec <serial_irq_set_internal+0xc8>)
     f8c:	fb00 1202 	mla	r2, r0, r2, r1
     f90:	f892 1036 	ldrb.w	r1, [r2, #54]	; 0x36
     f94:	f892 2035 	ldrb.w	r2, [r2, #53]	; 0x35
     f98:	42d1      	cmn	r1, r2
     f9a:	d117      	bne.n	fcc <serial_irq_set_internal+0xa8>
     f9c:	2201      	movs	r2, #1
     f9e:	fa02 f003 	lsl.w	r0, r2, r3
     fa2:	fab3 f383 	clz	r3, r3
     fa6:	6871      	ldr	r1, [r6, #4]
     fa8:	095b      	lsrs	r3, r3, #5
     faa:	ea21 0100 	bic.w	r1, r1, r0
     fae:	6071      	str	r1, [r6, #4]
     fb0:	6871      	ldr	r1, [r6, #4]
     fb2:	fa02 f303 	lsl.w	r3, r2, r3
     fb6:	420b      	tst	r3, r1
     fb8:	d108      	bne.n	fcc <serial_irq_set_internal+0xa8>
     fba:	4b09      	ldr	r3, [pc, #36]	; (fe0 <serial_irq_set_internal+0xbc>)
     fbc:	fa02 f404 	lsl.w	r4, r2, r4
     fc0:	f8c3 4080 	str.w	r4, [r3, #128]	; 0x80
     fc4:	f3bf 8f4f 	dsb	sy
     fc8:	f3bf 8f6f 	isb	sy
     fcc:	bd70      	pop	{r4, r5, r6, pc}
     fce:	bf00      	nop
     fd0:	40010000 	.word	0x40010000
     fd4:	40098000 	.word	0x40098000
     fd8:	00000f11 	.word	0x00000f11
     fdc:	00000ed5 	.word	0x00000ed5
     fe0:	e000e100 	.word	0xe000e100
     fe4:	00000ee9 	.word	0x00000ee9
     fe8:	00000efd 	.word	0x00000efd
     fec:	100005a8 	.word	0x100005a8

00000ff0 <serial_baud>:
     ff0:	e92d 4ff0 	stmdb	sp!, {r4, r5, r6, r7, r8, r9, r10, r11, lr}
     ff4:	4b64      	ldr	r3, [pc, #400]	; (1188 <serial_baud+0x198>)
     ff6:	6804      	ldr	r4, [r0, #0]
     ff8:	b087      	sub	sp, #28
     ffa:	429c      	cmp	r4, r3
     ffc:	f000 808d 	beq.w	111a <serial_baud+0x12a>
    1000:	dc6a      	bgt.n	10d8 <serial_baud+0xe8>
    1002:	f5a3 4380 	sub.w	r3, r3, #16384	; 0x4000
    1006:	429c      	cmp	r4, r3
    1008:	d079      	beq.n	10fe <serial_baud+0x10e>
    100a:	4b60      	ldr	r3, [pc, #384]	; (118c <serial_baud+0x19c>)
    100c:	0108      	lsls	r0, r1, #4
    100e:	f8d3 c000 	ldr.w	r12, [r3]
    1012:	fbbc f2f0 	udiv	r2, r12, r0
    1016:	b293      	uxth	r3, r2
    1018:	fb00 c212 	mls	r2, r0, r2, r12
    101c:	2a00      	cmp	r2, #0
    101e:	f000 80aa 	beq.w	1176 <serial_baud+0x186>
    1022:	2501      	movs	r5, #1
    1024:	46e6      	mov	lr, r12
    1026:	4699      	mov	r9, r3
    1028:	46ab      	mov	r11, r5
    102a:	f04f 0a00 	mov.w	r10, #0
    102e:	9101      	str	r1, [sp, #4]
    1030:	9103      	str	r1, [sp, #12]
    1032:	2600      	movs	r6, #0
    1034:	ea4f 034e 	mov.w	r3, lr, lsl #1
    1038:	9304      	str	r3, [sp, #16]
    103a:	f8dd 8004 	ldr.w	r8, [sp, #4]
    103e:	ea4f 038e 	mov.w	r3, lr, lsl #2
    1042:	b2ef      	uxtb	r7, r5
    1044:	9305      	str	r3, [sp, #20]
    1046:	b2f3      	uxtb	r3, r6
    1048:	9300      	str	r3, [sp, #0]
    104a:	9b04      	ldr	r3, [sp, #16]
    104c:	2b00      	cmp	r3, #0
    104e:	bfab      	itete	ge
    1050:	9b05      	ldrge	r3, [sp, #20]
    1052:	fbb3 f3f8 	udivlt	r3, r3, r8
    1056:	fbb3 f3f8 	udivge	r3, r3, r8
    105a:	091b      	lsrlt	r3, r3, #4
    105c:	bfa8      	it	ge
    105e:	095b      	lsrge	r3, r3, #5
    1060:	3301      	adds	r3, #1
    1062:	f3c3 034f 	ubfx	r3, r3, #1, #16
    1066:	2b00      	cmp	r3, #0
    1068:	f000 8088 	beq.w	117c <serial_baud+0x18c>
    106c:	b116      	cbz	r6, 1074 <serial_baud+0x84>
    106e:	2b01      	cmp	r3, #1
    1070:	bf08      	it	eq
    1072:	2302      	moveq	r3, #2
    1074:	19a8      	adds	r0, r5, r6
    1076:	4358      	muls	r0, r3
    1078:	00c0      	lsls	r0, r0, #3
    107a:	fbbe f0f0 	udiv	r0, lr, r0
    107e:	3001      	adds	r0, #1
    1080:	ebc1 0050 	rsb	r0, r1, r0, lsr #1
    1084:	2800      	cmp	r0, #0
    1086:	bfb8      	it	lt
    1088:	4240      	neglt	r0, r0
    108a:	9002      	str	r0, [sp, #8]
    108c:	9a02      	ldr	r2, [sp, #8]
    108e:	9803      	ldr	r0, [sp, #12]
    1090:	4282      	cmp	r2, r0
    1092:	da62      	bge.n	115a <serial_baud+0x16a>
    1094:	4291      	cmp	r1, r2
    1096:	d15a      	bne.n	114e <serial_baud+0x15e>
    1098:	2d0f      	cmp	r5, #15
    109a:	d107      	bne.n	10ac <serial_baud+0xbc>
    109c:	46bb      	mov	r11, r7
    109e:	4699      	mov	r9, r3
    10a0:	f8dd a000 	ldr.w	r10, [sp]
    10a4:	465f      	mov	r7, r11
    10a6:	464b      	mov	r3, r9
    10a8:	f8cd a000 	str.w	r10, [sp]
    10ac:	7b21      	ldrb	r1, [r4, #12]
    10ae:	f041 0180 	orr.w	r1, r1, #128	; 0x80
    10b2:	7321      	strb	r1, [r4, #12]
    10b4:	f3c3 2107 	ubfx	r1, r3, #8, #8
    10b8:	b2db      	uxtb	r3, r3
    10ba:	7121      	strb	r1, [r4, #4]
    10bc:	7023      	strb	r3, [r4, #0]
    10be:	9b00      	ldr	r3, [sp, #0]
    10c0:	ea43 1207 	orr.w	r2, r3, r7, lsl #4
    10c4:	b2d2      	uxtb	r2, r2
    10c6:	f884 2028 	strb.w	r2, [r4, #40]	; 0x28
    10ca:	7b23      	ldrb	r3, [r4, #12]
    10cc:	f003 037f 	and.w	r3, r3, #127	; 0x7f
    10d0:	7323      	strb	r3, [r4, #12]
    10d2:	b007      	add	sp, #28
    10d4:	e8bd 8ff0 	ldmia.w	sp!, {r4, r5, r6, r7, r8, r9, r10, r11, pc}
    10d8:	4b2d      	ldr	r3, [pc, #180]	; (1190 <serial_baud+0x1a0>)
    10da:	429c      	cmp	r4, r3
    10dc:	d029      	beq.n	1132 <serial_baud+0x142>
    10de:	f503 4380 	add.w	r3, r3, #16384	; 0x4000
    10e2:	429c      	cmp	r4, r3
    10e4:	d191      	bne.n	100a <serial_baud+0x1a>
    10e6:	4b2b      	ldr	r3, [pc, #172]	; (1194 <serial_baud+0x1a4>)
    10e8:	f8d3 21ac 	ldr.w	r2, [r3, #428]	; 0x1ac
    10ec:	f422 2240 	bic.w	r2, r2, #786432	; 0xc0000
    10f0:	f8c3 21ac 	str.w	r2, [r3, #428]	; 0x1ac
    10f4:	f8d3 21ac 	ldr.w	r2, [r3, #428]	; 0x1ac
    10f8:	f442 2280 	orr.w	r2, r2, #262144	; 0x40000
    10fc:	e024      	b.n	1148 <serial_baud+0x158>
    10fe:	4b25      	ldr	r3, [pc, #148]	; (1194 <serial_baud+0x1a4>)
    1100:	f8d3 21a8 	ldr.w	r2, [r3, #424]	; 0x1a8
    1104:	f022 02c0 	bic.w	r2, r2, #192	; 0xc0
    1108:	f8c3 21a8 	str.w	r2, [r3, #424]	; 0x1a8
    110c:	f8d3 21a8 	ldr.w	r2, [r3, #424]	; 0x1a8
    1110:	f042 0240 	orr.w	r2, r2, #64	; 0x40
    1114:	f8c3 21a8 	str.w	r2, [r3, #424]	; 0x1a8
    1118:	e777      	b.n	100a <serial_baud+0x1a>
    111a:	4b1e      	ldr	r3, [pc, #120]	; (1194 <serial_baud+0x1a4>)
    111c:	f8d3 21a8 	ldr.w	r2, [r3, #424]	; 0x1a8
    1120:	f422 7240 	bic.w	r2, r2, #768	; 0x300
    1124:	f8c3 21a8 	str.w	r2, [r3, #424]	; 0x1a8
    1128:	f8d3 21a8 	ldr.w	r2, [r3, #424]	; 0x1a8
    112c:	f442 7280 	orr.w	r2, r2, #256	; 0x100
    1130:	e7f0      	b.n	1114 <serial_baud+0x124>
    1132:	4b18      	ldr	r3, [pc, #96]	; (1194 <serial_baud+0x1a4>)
    1134:	f8d3 21ac 	ldr.w	r2, [r3, #428]	; 0x1ac
    1138:	f422 3240 	bic.w	r2, r2, #196608	; 0x30000
    113c:	f8c3 21ac 	str.w	r2, [r3, #428]	; 0x1ac
    1140:	f8d3 21ac 	ldr.w	r2, [r3, #428]	; 0x1ac
    1144:	f442 3280 	orr.w	r2, r2, #65536	; 0x10000
    1148:	f8c3 21ac 	str.w	r2, [r3, #428]	; 0x1ac
    114c:	e75d      	b.n	100a <serial_baud+0x1a>
    114e:	46bb      	mov	r11, r7
    1150:	4699      	mov	r9, r3
    1152:	9a02      	ldr	r2, [sp, #8]
    1154:	f8dd a000 	ldr.w	r10, [sp]
    1158:	9203      	str	r2, [sp, #12]
    115a:	3601      	adds	r6, #1
    115c:	b2f3      	uxtb	r3, r6
    115e:	42bb      	cmp	r3, r7
    1160:	4488      	add	r8, r1
    1162:	f4ff af70 	bcc.w	1046 <serial_baud+0x56>
    1166:	2d0f      	cmp	r5, #15
    1168:	d09c      	beq.n	10a4 <serial_baud+0xb4>
    116a:	9b01      	ldr	r3, [sp, #4]
    116c:	3501      	adds	r5, #1
    116e:	440b      	add	r3, r1
    1170:	44e6      	add	lr, r12
    1172:	9301      	str	r3, [sp, #4]
    1174:	e75d      	b.n	1032 <serial_baud+0x42>
    1176:	2701      	movs	r7, #1
    1178:	9200      	str	r2, [sp, #0]
    117a:	e797      	b.n	10ac <serial_baud+0xbc>
    117c:	2e00      	cmp	r6, #0
    117e:	bf0c      	ite	eq
    1180:	2301      	moveq	r3, #1
    1182:	2302      	movne	r3, #2
    1184:	e776      	b.n	1074 <serial_baud+0x84>
    1186:	bf00      	nop
    1188:	40010000 	.word	0x40010000
    118c:	100000cc 	.word	0x100000cc
    1190:	40098000 	.word	0x40098000
    1194:	400fc000 	.word	0x400fc000

00001198 <serial_irq_handler>:
    1198:	4b03      	ldr	r3, [pc, #12]	; (11a8 <serial_irq_handler+0x10>)
    119a:	6019      	str	r1, [r3, #0]
    119c:	2338      	movs	r3, #56	; 0x38
    119e:	6841      	ldr	r1, [r0, #4]
    11a0:	434b      	muls	r3, r1
    11a2:	4902      	ldr	r1, [pc, #8]	; (11ac <serial_irq_handler+0x14>)
    11a4:	50ca      	str	r2, [r1, r3]
    11a6:	4770      	bx	lr
    11a8:	100005a0 	.word	0x100005a0
    11ac:	100005a8 	.word	0x100005a8

000011b0 <serial_getc>:
    11b0:	b510      	push	{r4, lr}
    11b2:	6802      	ldr	r2, [r0, #0]
    11b4:	7d13      	ldrb	r3, [r2, #20]
    11b6:	07db      	lsls	r3, r3, #31
    11b8:	d5fc      	bpl.n	11b4 <serial_getc+0x4>
    11ba:	2438      	movs	r4, #56	; 0x38
    11bc:	6843      	ldr	r3, [r0, #4]
    11be:	4808      	ldr	r0, [pc, #32]	; (11e0 <serial_getc+0x30>)
    11c0:	7811      	ldrb	r1, [r2, #0]
    11c2:	fb04 0303 	mla	r3, r4, r3, r0
    11c6:	6858      	ldr	r0, [r3, #4]
    11c8:	b2c9      	uxtb	r1, r1
    11ca:	3001      	adds	r0, #1
    11cc:	d006      	beq.n	11dc <serial_getc+0x2c>
    11ce:	6958      	ldr	r0, [r3, #20]
    11d0:	689b      	ldr	r3, [r3, #8]
    11d2:	6003      	str	r3, [r0, #0]
    11d4:	6853      	ldr	r3, [r2, #4]
    11d6:	f043 0301 	orr.w	r3, r3, #1
    11da:	6053      	str	r3, [r2, #4]
    11dc:	4608      	mov	r0, r1
    11de:	bd10      	pop	{r4, pc}
    11e0:	100005a8 	.word	0x100005a8

000011e4 <serial_writable>:
    11e4:	2138      	movs	r1, #56	; 0x38
    11e6:	4a11      	ldr	r2, [pc, #68]	; (122c <serial_writable+0x48>)
    11e8:	6843      	ldr	r3, [r0, #4]
    11ea:	fb01 2303 	mla	r3, r1, r3, r2
    11ee:	69da      	ldr	r2, [r3, #28]
    11f0:	3201      	adds	r2, #1
    11f2:	d009      	beq.n	1208 <serial_writable+0x24>
    11f4:	6b1a      	ldr	r2, [r3, #48]	; 0x30
    11f6:	6a1b      	ldr	r3, [r3, #32]
    11f8:	6812      	ldr	r2, [r2, #0]
    11fa:	421a      	tst	r2, r3
    11fc:	d114      	bne.n	1228 <serial_writable+0x44>
    11fe:	6803      	ldr	r3, [r0, #0]
    1200:	7d18      	ldrb	r0, [r3, #20]
    1202:	f3c0 1080 	ubfx	r0, r0, #6, #1
    1206:	4770      	bx	lr
    1208:	6802      	ldr	r2, [r0, #0]
    120a:	7d12      	ldrb	r2, [r2, #20]
    120c:	0692      	lsls	r2, r2, #26
    120e:	d504      	bpl.n	121a <serial_writable+0x36>
    1210:	2200      	movs	r2, #0
    1212:	2001      	movs	r0, #1
    1214:	f883 2034 	strb.w	r2, [r3, #52]	; 0x34
    1218:	4770      	bx	lr
    121a:	f893 0034 	ldrb.w	r0, [r3, #52]	; 0x34
    121e:	280f      	cmp	r0, #15
    1220:	bf8c      	ite	hi
    1222:	2000      	movhi	r0, #0
    1224:	2001      	movls	r0, #1
    1226:	4770      	bx	lr
    1228:	2000      	movs	r0, #0
    122a:	4770      	bx	lr
    122c:	100005a8 	.word	0x100005a8

00001230 <serial_putc>:
    1230:	b538      	push	{r3, r4, r5, lr}
    1232:	4604      	mov	r4, r0
    1234:	460d      	mov	r5, r1
    1236:	4620      	mov	r0, r4
    1238:	f7ff ffd4 	bl	11e4 <serial_writable>
    123c:	2800      	cmp	r0, #0
    123e:	d0fa      	beq.n	1236 <serial_putc+0x6>
    1240:	2138      	movs	r1, #56	; 0x38
    1242:	6823      	ldr	r3, [r4, #0]
    1244:	b2ed      	uxtb	r5, r5
    1246:	701d      	strb	r5, [r3, #0]
    1248:	6863      	ldr	r3, [r4, #4]
    124a:	4a04      	ldr	r2, [pc, #16]	; (125c <serial_putc+0x2c>)
    124c:	fb01 2303 	mla	r3, r1, r3, r2
    1250:	f893 2034 	ldrb.w	r2, [r3, #52]	; 0x34
    1254:	3201      	adds	r2, #1
    1256:	f883 2034 	strb.w	r2, [r3, #52]	; 0x34
    125a:	bd38      	pop	{r3, r4, r5, pc}
    125c:	100005a8 	.word	0x100005a8

00001260 <serial_set_flow_control>:
    1260:	e92d 4ff8 	stmdb	sp!, {r3, r4, r5, r6, r7, r8, r9, r10, r11, lr}
    1264:	469a      	mov	r10, r3
    1266:	4c3c      	ldr	r4, [pc, #240]	; (1358 <serial_set_flow_control+0xf8>)
    1268:	6803      	ldr	r3, [r0, #0]
    126a:	4605      	mov	r5, r0
    126c:	42a3      	cmp	r3, r4
    126e:	bf18      	it	ne
    1270:	2400      	movne	r4, #0
    1272:	4689      	mov	r9, r1
    1274:	4690      	mov	r8, r2
    1276:	6847      	ldr	r7, [r0, #4]
    1278:	b11c      	cbz	r4, 1282 <serial_set_flow_control+0x22>
    127a:	7c23      	ldrb	r3, [r4, #16]
    127c:	f003 033f 	and.w	r3, r3, #63	; 0x3f
    1280:	7423      	strb	r3, [r4, #16]
    1282:	2338      	movs	r3, #56	; 0x38
    1284:	f04f 32ff 	mov.w	r2, #4294967295	; 0xffffffff
    1288:	4e34      	ldr	r6, [pc, #208]	; (135c <serial_set_flow_control+0xfc>)
    128a:	4628      	mov	r0, r5
    128c:	fb03 6307 	mla	r3, r3, r7, r6
    1290:	61da      	str	r2, [r3, #28]
    1292:	605a      	str	r2, [r3, #4]
    1294:	2200      	movs	r2, #0
    1296:	f883 2035 	strb.w	r2, [r3, #53]	; 0x35
    129a:	4611      	mov	r1, r2
    129c:	f7ff fe42 	bl	f24 <serial_irq_set_internal>
    12a0:	f1b9 0f00 	cmp.w	r9, #0
    12a4:	d055      	beq.n	1352 <serial_set_flow_control+0xf2>
    12a6:	492e      	ldr	r1, [pc, #184]	; (1360 <serial_set_flow_control+0x100>)
    12a8:	4640      	mov	r0, r8
    12aa:	f7ff fbcb 	bl	a44 <pinmap_find_peripheral>
    12ae:	492d      	ldr	r1, [pc, #180]	; (1364 <serial_set_flow_control+0x104>)
    12b0:	4683      	mov	r11, r0
    12b2:	4650      	mov	r0, r10
    12b4:	f7ff fbc6 	bl	a44 <pinmap_find_peripheral>
    12b8:	f1a9 0302 	sub.w	r3, r9, #2
    12bc:	2b01      	cmp	r3, #1
    12be:	d81b      	bhi.n	12f8 <serial_set_flow_control+0x98>
    12c0:	f1ba 3fff 	cmp.w	r10, #4294967295	; 0xffffffff
    12c4:	d00b      	beq.n	12de <serial_set_flow_control+0x7e>
    12c6:	4b24      	ldr	r3, [pc, #144]	; (1358 <serial_set_flow_control+0xf8>)
    12c8:	4298      	cmp	r0, r3
    12ca:	d10d      	bne.n	12e8 <serial_set_flow_control+0x88>
    12cc:	b164      	cbz	r4, 12e8 <serial_set_flow_control+0x88>
    12ce:	7c23      	ldrb	r3, [r4, #16]
    12d0:	4924      	ldr	r1, [pc, #144]	; (1364 <serial_set_flow_control+0x104>)
    12d2:	f043 0380 	orr.w	r3, r3, #128	; 0x80
    12d6:	7423      	strb	r3, [r4, #16]
    12d8:	4650      	mov	r0, r10
    12da:	f7ff fb85 	bl	9e8 <pinmap_pinout>
    12de:	f1b9 0f03 	cmp.w	r9, #3
    12e2:	d00c      	beq.n	12fe <serial_set_flow_control+0x9e>
    12e4:	e8bd 8ff8 	ldmia.w	sp!, {r3, r4, r5, r6, r7, r8, r9, r10, r11, pc}
    12e8:	2038      	movs	r0, #56	; 0x38
    12ea:	fb00 6007 	mla	r0, r0, r7, r6
    12ee:	4651      	mov	r1, r10
    12f0:	301c      	adds	r0, #28
    12f2:	f7ff fb38 	bl	966 <gpio_init_in>
    12f6:	e7f2      	b.n	12de <serial_set_flow_control+0x7e>
    12f8:	f1b9 0f01 	cmp.w	r9, #1
    12fc:	d129      	bne.n	1352 <serial_set_flow_control+0xf2>
    12fe:	f1b8 3fff 	cmp.w	r8, #4294967295	; 0xffffffff
    1302:	d101      	bne.n	1308 <serial_set_flow_control+0xa8>
    1304:	e8bd 8ff8 	ldmia.w	sp!, {r3, r4, r5, r6, r7, r8, r9, r10, r11, pc}
    1308:	2207      	movs	r2, #7
    130a:	682b      	ldr	r3, [r5, #0]
    130c:	721a      	strb	r2, [r3, #8]
    130e:	4b12      	ldr	r3, [pc, #72]	; (1358 <serial_set_flow_control+0xf8>)
    1310:	459b      	cmp	r11, r3
    1312:	d10a      	bne.n	132a <serial_set_flow_control+0xca>
    1314:	b14c      	cbz	r4, 132a <serial_set_flow_control+0xca>
    1316:	7c23      	ldrb	r3, [r4, #16]
    1318:	4640      	mov	r0, r8
    131a:	f043 0340 	orr.w	r3, r3, #64	; 0x40
    131e:	7423      	strb	r3, [r4, #16]
    1320:	490f      	ldr	r1, [pc, #60]	; (1360 <serial_set_flow_control+0x100>)
    1322:	e8bd 4ff8 	ldmia.w	sp!, {r3, r4, r5, r6, r7, r8, r9, r10, r11, lr}
    1326:	f7ff bb5f 	b.w	9e8 <pinmap_pinout>
    132a:	2438      	movs	r4, #56	; 0x38
    132c:	fb04 6007 	mla	r0, r4, r7, r6
    1330:	4641      	mov	r1, r8
    1332:	2200      	movs	r2, #0
    1334:	3004      	adds	r0, #4
    1336:	f7ff fb19 	bl	96c <gpio_init_out_ex>
    133a:	2201      	movs	r2, #1
    133c:	686b      	ldr	r3, [r5, #4]
    133e:	4628      	mov	r0, r5
    1340:	fb04 6603 	mla	r6, r4, r3, r6
    1344:	f886 2035 	strb.w	r2, [r6, #53]	; 0x35
    1348:	2100      	movs	r1, #0
    134a:	e8bd 4ff8 	ldmia.w	sp!, {r3, r4, r5, r6, r7, r8, r9, r10, r11, lr}
    134e:	f7ff bde9 	b.w	f24 <serial_irq_set_internal>
    1352:	e8bd 8ff8 	ldmia.w	sp!, {r3, r4, r5, r6, r7, r8, r9, r10, r11, pc}
    1356:	bf00      	nop
    1358:	40010000 	.word	0x40010000
    135c:	100005a8 	.word	0x100005a8
    1360:	00006f7c 	.word	0x00006f7c
    1364:	00006f58 	.word	0x00006f58

00001368 <serial_init>:
    1368:	e92d 41f0 	stmdb	sp!, {r4, r5, r6, r7, r8, lr}
    136c:	460f      	mov	r7, r1
    136e:	4605      	mov	r5, r0
    1370:	4946      	ldr	r1, [pc, #280]	; (148c <serial_init+0x124>)
    1372:	4638      	mov	r0, r7
    1374:	4616      	mov	r6, r2
    1376:	f7ff fb71 	bl	a5c <pinmap_peripheral>
    137a:	4945      	ldr	r1, [pc, #276]	; (1490 <serial_init+0x128>)
    137c:	4604      	mov	r4, r0
    137e:	4630      	mov	r0, r6
    1380:	f7ff fb6c 	bl	a5c <pinmap_peripheral>
    1384:	4601      	mov	r1, r0
    1386:	4620      	mov	r0, r4
    1388:	f7ff fb4a 	bl	a20 <pinmap_merge>
    138c:	4b41      	ldr	r3, [pc, #260]	; (1494 <serial_init+0x12c>)
    138e:	4604      	mov	r4, r0
    1390:	4298      	cmp	r0, r3
    1392:	6028      	str	r0, [r5, #0]
    1394:	d05d      	beq.n	1452 <serial_init+0xea>
    1396:	d847      	bhi.n	1428 <serial_init+0xc0>
    1398:	f5a3 4380 	sub.w	r3, r3, #16384	; 0x4000
    139c:	4298      	cmp	r0, r3
    139e:	d050      	beq.n	1442 <serial_init+0xda>
    13a0:	2301      	movs	r3, #1
    13a2:	f04f 0800 	mov.w	r8, #0
    13a6:	7223      	strb	r3, [r4, #8]
    13a8:	f44f 5116 	mov.w	r1, #9600	; 0x2580
    13ac:	4628      	mov	r0, r5
    13ae:	f8c4 8004 	str.w	r8, [r4, #4]
    13b2:	f7ff fe1d 	bl	ff0 <serial_baud>
    13b6:	2203      	movs	r2, #3
    13b8:	682b      	ldr	r3, [r5, #0]
    13ba:	4934      	ldr	r1, [pc, #208]	; (148c <serial_init+0x124>)
    13bc:	731a      	strb	r2, [r3, #12]
    13be:	4638      	mov	r0, r7
    13c0:	f7ff fb12 	bl	9e8 <pinmap_pinout>
    13c4:	4932      	ldr	r1, [pc, #200]	; (1490 <serial_init+0x128>)
    13c6:	4630      	mov	r0, r6
    13c8:	f7ff fb0e 	bl	9e8 <pinmap_pinout>
    13cc:	1c7a      	adds	r2, r7, #1
    13ce:	d003      	beq.n	13d8 <serial_init+0x70>
    13d0:	4641      	mov	r1, r8
    13d2:	4638      	mov	r0, r7
    13d4:	f000 fa0c 	bl	17f0 <pin_mode>
    13d8:	1c73      	adds	r3, r6, #1
    13da:	d003      	beq.n	13e4 <serial_init+0x7c>
    13dc:	2100      	movs	r1, #0
    13de:	4630      	mov	r0, r6
    13e0:	f000 fa06 	bl	17f0 <pin_mode>
    13e4:	4b2b      	ldr	r3, [pc, #172]	; (1494 <serial_init+0x12c>)
    13e6:	429c      	cmp	r4, r3
    13e8:	d04b      	beq.n	1482 <serial_init+0x11a>
    13ea:	d83e      	bhi.n	146a <serial_init+0x102>
    13ec:	f5a3 4380 	sub.w	r3, r3, #16384	; 0x4000
    13f0:	429c      	cmp	r4, r3
    13f2:	d043      	beq.n	147c <serial_init+0x114>
    13f4:	2138      	movs	r1, #56	; 0x38
    13f6:	686a      	ldr	r2, [r5, #4]
    13f8:	4b27      	ldr	r3, [pc, #156]	; (1498 <serial_init+0x130>)
    13fa:	4628      	mov	r0, r5
    13fc:	fb01 3202 	mla	r2, r1, r2, r3
    1400:	f04f 33ff 	mov.w	r3, #4294967295	; 0xffffffff
    1404:	2100      	movs	r1, #0
    1406:	6053      	str	r3, [r2, #4]
    1408:	61d3      	str	r3, [r2, #28]
    140a:	461a      	mov	r2, r3
    140c:	f7ff ff28 	bl	1260 <serial_set_flow_control>
    1410:	4b22      	ldr	r3, [pc, #136]	; (149c <serial_init+0x134>)
    1412:	429c      	cmp	r4, r3
    1414:	d106      	bne.n	1424 <serial_init+0xbc>
    1416:	2201      	movs	r2, #1
    1418:	4b21      	ldr	r3, [pc, #132]	; (14a0 <serial_init+0x138>)
    141a:	6869      	ldr	r1, [r5, #4]
    141c:	601a      	str	r2, [r3, #0]
    141e:	6828      	ldr	r0, [r5, #0]
    1420:	4b20      	ldr	r3, [pc, #128]	; (14a4 <serial_init+0x13c>)
    1422:	c303      	stmia	r3!, {r0, r1}
    1424:	e8bd 81f0 	ldmia.w	sp!, {r4, r5, r6, r7, r8, pc}
    1428:	4b1f      	ldr	r3, [pc, #124]	; (14a8 <serial_init+0x140>)
    142a:	4298      	cmp	r0, r3
    142c:	d017      	beq.n	145e <serial_init+0xf6>
    142e:	f503 4380 	add.w	r3, r3, #16384	; 0x4000
    1432:	4298      	cmp	r0, r3
    1434:	d1b4      	bne.n	13a0 <serial_init+0x38>
    1436:	4a1d      	ldr	r2, [pc, #116]	; (14ac <serial_init+0x144>)
    1438:	f8d2 30c4 	ldr.w	r3, [r2, #196]	; 0xc4
    143c:	f043 7300 	orr.w	r3, r3, #33554432	; 0x2000000
    1440:	e004      	b.n	144c <serial_init+0xe4>
    1442:	4a1a      	ldr	r2, [pc, #104]	; (14ac <serial_init+0x144>)
    1444:	f8d2 30c4 	ldr.w	r3, [r2, #196]	; 0xc4
    1448:	f043 0308 	orr.w	r3, r3, #8
    144c:	f8c2 30c4 	str.w	r3, [r2, #196]	; 0xc4
    1450:	e7a6      	b.n	13a0 <serial_init+0x38>
    1452:	4a16      	ldr	r2, [pc, #88]	; (14ac <serial_init+0x144>)
    1454:	f8d2 30c4 	ldr.w	r3, [r2, #196]	; 0xc4
    1458:	f043 0310 	orr.w	r3, r3, #16
    145c:	e7f6      	b.n	144c <serial_init+0xe4>
    145e:	4a13      	ldr	r2, [pc, #76]	; (14ac <serial_init+0x144>)
    1460:	f8d2 30c4 	ldr.w	r3, [r2, #196]	; 0xc4
    1464:	f043 7380 	orr.w	r3, r3, #16777216	; 0x1000000
    1468:	e7f0      	b.n	144c <serial_init+0xe4>
    146a:	4b0f      	ldr	r3, [pc, #60]	; (14a8 <serial_init+0x140>)
    146c:	429c      	cmp	r4, r3
    146e:	d00a      	beq.n	1486 <serial_init+0x11e>
    1470:	f503 4380 	add.w	r3, r3, #16384	; 0x4000
    1474:	429c      	cmp	r4, r3
    1476:	d1bd      	bne.n	13f4 <serial_init+0x8c>
    1478:	2303      	movs	r3, #3
    147a:	e000      	b.n	147e <serial_init+0x116>
    147c:	2300      	movs	r3, #0
    147e:	606b      	str	r3, [r5, #4]
    1480:	e7b8      	b.n	13f4 <serial_init+0x8c>
    1482:	2301      	movs	r3, #1
    1484:	e7fb      	b.n	147e <serial_init+0x116>
    1486:	2302      	movs	r3, #2
    1488:	e7f9      	b.n	147e <serial_init+0x116>
    148a:	bf00      	nop
    148c:	0000700c 	.word	0x0000700c
    1490:	00006fa0 	.word	0x00006fa0
    1494:	40010000 	.word	0x40010000
    1498:	100005a8 	.word	0x100005a8
    149c:	4000c000 	.word	0x4000c000
    14a0:	100005a4 	.word	0x100005a4
    14a4:	100007bc 	.word	0x100007bc
    14a8:	40098000 	.word	0x40098000
    14ac:	400fc000 	.word	0x400fc000

000014b0 <us_ticker_init>:
    14b0:	b508      	push	{r3, lr}
    14b2:	4b10      	ldr	r3, [pc, #64]	; (14f4 <us_ticker_init+0x44>)
    14b4:	6818      	ldr	r0, [r3, #0]
    14b6:	b9e0      	cbnz	r0, 14f2 <us_ticker_init+0x42>
    14b8:	2101      	movs	r1, #1
    14ba:	4a0f      	ldr	r2, [pc, #60]	; (14f8 <us_ticker_init+0x48>)
    14bc:	6019      	str	r1, [r3, #0]
    14be:	f8d2 30c4 	ldr.w	r3, [r2, #196]	; 0xc4
    14c2:	f443 0300 	orr.w	r3, r3, #8388608	; 0x800000
    14c6:	f8c2 30c4 	str.w	r3, [r2, #196]	; 0xc4
    14ca:	f5a2 22d0 	sub.w	r2, r2, #425984	; 0x68000
    14ce:	6710      	str	r0, [r2, #112]	; 0x70
    14d0:	2002      	movs	r0, #2
    14d2:	4b0a      	ldr	r3, [pc, #40]	; (14fc <us_ticker_init+0x4c>)
    14d4:	681b      	ldr	r3, [r3, #0]
    14d6:	6050      	str	r0, [r2, #4]
    14d8:	4809      	ldr	r0, [pc, #36]	; (1500 <us_ticker_init+0x50>)
    14da:	fbb3 f3f0 	udiv	r3, r3, r0
    14de:	3b01      	subs	r3, #1
    14e0:	60d3      	str	r3, [r2, #12]
    14e2:	2004      	movs	r0, #4
    14e4:	6051      	str	r1, [r2, #4]
    14e6:	4907      	ldr	r1, [pc, #28]	; (1504 <us_ticker_init+0x54>)
    14e8:	f000 f9b0 	bl	184c <__NVIC_SetVector>
    14ec:	2210      	movs	r2, #16
    14ee:	4b06      	ldr	r3, [pc, #24]	; (1508 <us_ticker_init+0x58>)
    14f0:	601a      	str	r2, [r3, #0]
    14f2:	bd08      	pop	{r3, pc}
    14f4:	10000688 	.word	0x10000688
    14f8:	400fc000 	.word	0x400fc000
    14fc:	100000cc 	.word	0x100000cc
    1500:	003d0900 	.word	0x003d0900
    1504:	00000995 	.word	0x00000995
    1508:	e000e100 	.word	0xe000e100

0000150c <us_ticker_read>:
    150c:	b508      	push	{r3, lr}
    150e:	4b04      	ldr	r3, [pc, #16]	; (1520 <us_ticker_read+0x14>)
    1510:	681b      	ldr	r3, [r3, #0]
    1512:	b90b      	cbnz	r3, 1518 <us_ticker_read+0xc>
    1514:	f7ff ffcc 	bl	14b0 <us_ticker_init>
    1518:	4b02      	ldr	r3, [pc, #8]	; (1524 <us_ticker_read+0x18>)
    151a:	6898      	ldr	r0, [r3, #8]
    151c:	bd08      	pop	{r3, pc}
    151e:	bf00      	nop
    1520:	10000688 	.word	0x10000688
    1524:	40094000 	.word	0x40094000

00001528 <us_ticker_set_interrupt>:
    1528:	4b03      	ldr	r3, [pc, #12]	; (1538 <us_ticker_set_interrupt+0x10>)
    152a:	6198      	str	r0, [r3, #24]
    152c:	695a      	ldr	r2, [r3, #20]
    152e:	f042 0201 	orr.w	r2, r2, #1
    1532:	615a      	str	r2, [r3, #20]
    1534:	4770      	bx	lr
    1536:	bf00      	nop
    1538:	40094000 	.word	0x40094000

0000153c <us_ticker_disable_interrupt>:
    153c:	4a02      	ldr	r2, [pc, #8]	; (1548 <us_ticker_disable_interrupt+0xc>)
    153e:	6953      	ldr	r3, [r2, #20]
    1540:	f023 0301 	bic.w	r3, r3, #1
    1544:	6153      	str	r3, [r2, #20]
    1546:	4770      	bx	lr
    1548:	40094000 	.word	0x40094000

0000154c <us_ticker_clear_interrupt>:
    154c:	2201      	movs	r2, #1
    154e:	4b01      	ldr	r3, [pc, #4]	; (1554 <us_ticker_clear_interrupt+0x8>)
    1550:	601a      	str	r2, [r3, #0]
    1552:	4770      	bx	lr
    1554:	40094000 	.word	0x40094000

00001558 <i2c_wait_SI>:
    1558:	6801      	ldr	r1, [r0, #0]
    155a:	4b05      	ldr	r3, [pc, #20]	; (1570 <i2c_wait_SI+0x18>)
    155c:	680a      	ldr	r2, [r1, #0]
    155e:	0712      	lsls	r2, r2, #28
    1560:	d501      	bpl.n	1566 <i2c_wait_SI+0xe>
    1562:	2000      	movs	r0, #0
    1564:	4770      	bx	lr
    1566:	3b01      	subs	r3, #1
    1568:	d1f8      	bne.n	155c <i2c_wait_SI+0x4>
    156a:	f04f 30ff 	mov.w	r0, #4294967295	; 0xffffffff
    156e:	4770      	bx	lr
    1570:	000186a1 	.word	0x000186a1

00001574 <i2c_start>:
    1574:	2134      	movs	r1, #52	; 0x34
    1576:	6803      	ldr	r3, [r0, #0]
    1578:	b510      	push	{r4, lr}
    157a:	681a      	ldr	r2, [r3, #0]
    157c:	6199      	str	r1, [r3, #24]
    157e:	0712      	lsls	r2, r2, #28
    1580:	bf48      	it	mi
    1582:	2208      	movmi	r2, #8
    1584:	f04f 0124 	mov.w	r1, #36	; 0x24
    1588:	4604      	mov	r4, r0
    158a:	6019      	str	r1, [r3, #0]
    158c:	bf48      	it	mi
    158e:	619a      	strmi	r2, [r3, #24]
    1590:	f7ff ffe2 	bl	1558 <i2c_wait_SI>
    1594:	2220      	movs	r2, #32
    1596:	6823      	ldr	r3, [r4, #0]
    1598:	6858      	ldr	r0, [r3, #4]
    159a:	619a      	str	r2, [r3, #24]
    159c:	bd10      	pop	{r4, pc}
	...

000015a0 <i2c_stop>:
    15a0:	2210      	movs	r2, #16
    15a2:	6803      	ldr	r3, [r0, #0]
    15a4:	601a      	str	r2, [r3, #0]
    15a6:	2208      	movs	r2, #8
    15a8:	619a      	str	r2, [r3, #24]
    15aa:	4a05      	ldr	r2, [pc, #20]	; (15c0 <i2c_stop+0x20>)
    15ac:	6818      	ldr	r0, [r3, #0]
    15ae:	f010 0010 	ands.w	r0, r0, #16
    15b2:	d100      	bne.n	15b6 <i2c_stop+0x16>
    15b4:	4770      	bx	lr
    15b6:	3a01      	subs	r2, #1
    15b8:	d1f8      	bne.n	15ac <i2c_stop+0xc>
    15ba:	2001      	movs	r0, #1
    15bc:	4770      	bx	lr
    15be:	bf00      	nop
    15c0:	000186a1 	.word	0x000186a1

000015c4 <i2c_frequency>:
    15c4:	4b04      	ldr	r3, [pc, #16]	; (15d8 <i2c_frequency+0x14>)
    15c6:	0049      	lsls	r1, r1, #1
    15c8:	681b      	ldr	r3, [r3, #0]
    15ca:	089b      	lsrs	r3, r3, #2
    15cc:	fbb3 f1f1 	udiv	r1, r3, r1
    15d0:	6803      	ldr	r3, [r0, #0]
    15d2:	6159      	str	r1, [r3, #20]
    15d4:	6119      	str	r1, [r3, #16]
    15d6:	4770      	bx	lr
    15d8:	100000cc 	.word	0x100000cc

000015dc <i2c_init>:
    15dc:	b5f8      	push	{r3, r4, r5, r6, r7, lr}
    15de:	460e      	mov	r6, r1
    15e0:	4604      	mov	r4, r0
    15e2:	4920      	ldr	r1, [pc, #128]	; (1664 <i2c_init+0x88>)
    15e4:	4630      	mov	r0, r6
    15e6:	4615      	mov	r5, r2
    15e8:	f7ff fa38 	bl	a5c <pinmap_peripheral>
    15ec:	491e      	ldr	r1, [pc, #120]	; (1668 <i2c_init+0x8c>)
    15ee:	4607      	mov	r7, r0
    15f0:	4628      	mov	r0, r5
    15f2:	f7ff fa33 	bl	a5c <pinmap_peripheral>
    15f6:	4601      	mov	r1, r0
    15f8:	4638      	mov	r0, r7
    15fa:	f7ff fa11 	bl	a20 <pinmap_merge>
    15fe:	4b1b      	ldr	r3, [pc, #108]	; (166c <i2c_init+0x90>)
    1600:	6020      	str	r0, [r4, #0]
    1602:	4298      	cmp	r0, r3
    1604:	d021      	beq.n	164a <i2c_init+0x6e>
    1606:	f503 2388 	add.w	r3, r3, #278528	; 0x44000
    160a:	4298      	cmp	r0, r3
    160c:	d023      	beq.n	1656 <i2c_init+0x7a>
    160e:	f5a3 2304 	sub.w	r3, r3, #540672	; 0x84000
    1612:	4298      	cmp	r0, r3
    1614:	d106      	bne.n	1624 <i2c_init+0x48>
    1616:	4a16      	ldr	r2, [pc, #88]	; (1670 <i2c_init+0x94>)
    1618:	f8d2 30c4 	ldr.w	r3, [r2, #196]	; 0xc4
    161c:	f043 0380 	orr.w	r3, r3, #128	; 0x80
    1620:	f8c2 30c4 	str.w	r3, [r2, #196]	; 0xc4
    1624:	4620      	mov	r0, r4
    1626:	4913      	ldr	r1, [pc, #76]	; (1674 <i2c_init+0x98>)
    1628:	f7ff ffcc 	bl	15c4 <i2c_frequency>
    162c:	223c      	movs	r2, #60	; 0x3c
    162e:	6823      	ldr	r3, [r4, #0]
    1630:	4630      	mov	r0, r6
    1632:	619a      	str	r2, [r3, #24]
    1634:	2240      	movs	r2, #64	; 0x40
    1636:	490b      	ldr	r1, [pc, #44]	; (1664 <i2c_init+0x88>)
    1638:	601a      	str	r2, [r3, #0]
    163a:	f7ff f9d5 	bl	9e8 <pinmap_pinout>
    163e:	4628      	mov	r0, r5
    1640:	e8bd 40f8 	ldmia.w	sp!, {r3, r4, r5, r6, r7, lr}
    1644:	4908      	ldr	r1, [pc, #32]	; (1668 <i2c_init+0x8c>)
    1646:	f7ff b9cf 	b.w	9e8 <pinmap_pinout>
    164a:	4a09      	ldr	r2, [pc, #36]	; (1670 <i2c_init+0x94>)
    164c:	f8d2 30c4 	ldr.w	r3, [r2, #196]	; 0xc4
    1650:	f443 2300 	orr.w	r3, r3, #524288	; 0x80000
    1654:	e7e4      	b.n	1620 <i2c_init+0x44>
    1656:	4a06      	ldr	r2, [pc, #24]	; (1670 <i2c_init+0x94>)
    1658:	f8d2 30c4 	ldr.w	r3, [r2, #196]	; 0xc4
    165c:	f043 6380 	orr.w	r3, r3, #67108864	; 0x4000000
    1660:	e7de      	b.n	1620 <i2c_init+0x44>
    1662:	bf00      	nop
    1664:	000070b4 	.word	0x000070b4
    1668:	00007078 	.word	0x00007078
    166c:	4005c000 	.word	0x4005c000
    1670:	400fc000 	.word	0x400fc000
    1674:	000186a0 	.word	0x000186a0

00001678 <i2c_read>:
    1678:	e92d 4ef0 	stmdb	sp!, {r4, r5, r6, r7, r9, r10, r11, lr}
    167c:	4604      	mov	r4, r0
    167e:	460e      	mov	r6, r1
    1680:	4691      	mov	r9, r2
    1682:	461d      	mov	r5, r3
    1684:	f7ff ff76 	bl	1574 <i2c_start>
    1688:	2810      	cmp	r0, #16
    168a:	d009      	beq.n	16a0 <i2c_read+0x28>
    168c:	2808      	cmp	r0, #8
    168e:	d007      	beq.n	16a0 <i2c_read+0x28>
    1690:	4620      	mov	r0, r4
    1692:	f7ff ff85 	bl	15a0 <i2c_stop>
    1696:	f06f 0501 	mvn.w	r5, #1
    169a:	4628      	mov	r0, r5
    169c:	e8bd 8ef0 	ldmia.w	sp!, {r4, r5, r6, r7, r9, r10, r11, pc}
    16a0:	2708      	movs	r7, #8
    16a2:	6823      	ldr	r3, [r4, #0]
    16a4:	f046 0601 	orr.w	r6, r6, #1
    16a8:	609e      	str	r6, [r3, #8]
    16aa:	4620      	mov	r0, r4
    16ac:	619f      	str	r7, [r3, #24]
    16ae:	f7ff ff53 	bl	1558 <i2c_wait_SI>
    16b2:	6823      	ldr	r3, [r4, #0]
    16b4:	685b      	ldr	r3, [r3, #4]
    16b6:	2b40      	cmp	r3, #64	; 0x40
    16b8:	d117      	bne.n	16ea <i2c_read+0x72>
    16ba:	2600      	movs	r6, #0
    16bc:	f04f 0b04 	mov.w	r11, #4
    16c0:	f105 3aff 	add.w	r10, r5, #4294967295	; 0xffffffff
    16c4:	4556      	cmp	r6, r10
    16c6:	6823      	ldr	r3, [r4, #0]
    16c8:	db15      	blt.n	16f6 <i2c_read+0x7e>
    16ca:	f8c3 b018 	str.w	r11, [r3, #24]
    16ce:	4620      	mov	r0, r4
    16d0:	619f      	str	r7, [r3, #24]
    16d2:	f7ff ff41 	bl	1558 <i2c_wait_SI>
    16d6:	6823      	ldr	r3, [r4, #0]
    16d8:	689a      	ldr	r2, [r3, #8]
    16da:	685b      	ldr	r3, [r3, #4]
    16dc:	2b58      	cmp	r3, #88	; 0x58
    16de:	d01e      	beq.n	171e <i2c_read+0xa6>
    16e0:	4620      	mov	r0, r4
    16e2:	f7ff ff5d 	bl	15a0 <i2c_stop>
    16e6:	4655      	mov	r5, r10
    16e8:	e7d7      	b.n	169a <i2c_read+0x22>
    16ea:	4620      	mov	r0, r4
    16ec:	f7ff ff58 	bl	15a0 <i2c_stop>
    16f0:	f04f 35ff 	mov.w	r5, #4294967295	; 0xffffffff
    16f4:	e7d1      	b.n	169a <i2c_read+0x22>
    16f6:	f8c3 b000 	str.w	r11, [r3]
    16fa:	4620      	mov	r0, r4
    16fc:	619f      	str	r7, [r3, #24]
    16fe:	f7ff ff2b 	bl	1558 <i2c_wait_SI>
    1702:	6823      	ldr	r3, [r4, #0]
    1704:	689a      	ldr	r2, [r3, #8]
    1706:	685b      	ldr	r3, [r3, #4]
    1708:	2b50      	cmp	r3, #80	; 0x50
    170a:	d004      	beq.n	1716 <i2c_read+0x9e>
    170c:	4620      	mov	r0, r4
    170e:	f7ff ff47 	bl	15a0 <i2c_stop>
    1712:	4635      	mov	r5, r6
    1714:	e7c1      	b.n	169a <i2c_read+0x22>
    1716:	f809 2006 	strb.w	r2, [r9, r6]
    171a:	3601      	adds	r6, #1
    171c:	e7d2      	b.n	16c4 <i2c_read+0x4c>
    171e:	9b08      	ldr	r3, [sp, #32]
    1720:	f809 2006 	strb.w	r2, [r9, r6]
    1724:	2b00      	cmp	r3, #0
    1726:	d0b8      	beq.n	169a <i2c_read+0x22>
    1728:	4620      	mov	r0, r4
    172a:	f7ff ff39 	bl	15a0 <i2c_stop>
    172e:	e7b4      	b.n	169a <i2c_read+0x22>

00001730 <i2c_write>:
    1730:	e92d 43f8 	stmdb	sp!, {r3, r4, r5, r6, r7, r8, r9, lr}
    1734:	9f08      	ldr	r7, [sp, #32]
    1736:	4604      	mov	r4, r0
    1738:	460e      	mov	r6, r1
    173a:	4691      	mov	r9, r2
    173c:	461d      	mov	r5, r3
    173e:	f7ff ff19 	bl	1574 <i2c_start>
    1742:	2810      	cmp	r0, #16
    1744:	d009      	beq.n	175a <i2c_write+0x2a>
    1746:	2808      	cmp	r0, #8
    1748:	d007      	beq.n	175a <i2c_write+0x2a>
    174a:	4620      	mov	r0, r4
    174c:	f7ff ff28 	bl	15a0 <i2c_stop>
    1750:	f06f 0501 	mvn.w	r5, #1
    1754:	4628      	mov	r0, r5
    1756:	e8bd 83f8 	ldmia.w	sp!, {r3, r4, r5, r6, r7, r8, r9, pc}
    175a:	f04f 0808 	mov.w	r8, #8
    175e:	6823      	ldr	r3, [r4, #0]
    1760:	f006 06fe 	and.w	r6, r6, #254	; 0xfe
    1764:	609e      	str	r6, [r3, #8]
    1766:	4620      	mov	r0, r4
    1768:	f8c3 8018 	str.w	r8, [r3, #24]
    176c:	f7ff fef4 	bl	1558 <i2c_wait_SI>
    1770:	6823      	ldr	r3, [r4, #0]
    1772:	685b      	ldr	r3, [r3, #4]
    1774:	2b18      	cmp	r3, #24
    1776:	d108      	bne.n	178a <i2c_write+0x5a>
    1778:	2600      	movs	r6, #0
    177a:	42ae      	cmp	r6, r5
    177c:	db0b      	blt.n	1796 <i2c_write+0x66>
    177e:	2f00      	cmp	r7, #0
    1780:	d0e8      	beq.n	1754 <i2c_write+0x24>
    1782:	4620      	mov	r0, r4
    1784:	f7ff ff0c 	bl	15a0 <i2c_stop>
    1788:	e7e4      	b.n	1754 <i2c_write+0x24>
    178a:	4620      	mov	r0, r4
    178c:	f7ff ff08 	bl	15a0 <i2c_stop>
    1790:	f04f 35ff 	mov.w	r5, #4294967295	; 0xffffffff
    1794:	e7de      	b.n	1754 <i2c_write+0x24>
    1796:	6823      	ldr	r3, [r4, #0]
    1798:	f819 2006 	ldrb.w	r2, [r9, r6]
    179c:	4620      	mov	r0, r4
    179e:	609a      	str	r2, [r3, #8]
    17a0:	f8c3 8018 	str.w	r8, [r3, #24]
    17a4:	f7ff fed8 	bl	1558 <i2c_wait_SI>
    17a8:	6823      	ldr	r3, [r4, #0]
    17aa:	685b      	ldr	r3, [r3, #4]
    17ac:	2b28      	cmp	r3, #40	; 0x28
    17ae:	d004      	beq.n	17ba <i2c_write+0x8a>
    17b0:	4620      	mov	r0, r4
    17b2:	f7ff fef5 	bl	15a0 <i2c_stop>
    17b6:	4635      	mov	r5, r6
    17b8:	e7cc      	b.n	1754 <i2c_write+0x24>
    17ba:	3601      	adds	r6, #1
    17bc:	e7dd      	b.n	177a <i2c_write+0x4a>

000017be <pin_function>:
    17be:	b510      	push	{r4, lr}
    17c0:	2403      	movs	r4, #3
    17c2:	f100 4060 	add.w	r0, r0, #3758096384	; 0xe0000000
    17c6:	f5a0 201c 	sub.w	r0, r0, #638976	; 0x9c000
    17ca:	0043      	lsls	r3, r0, #1
    17cc:	0900      	lsrs	r0, r0, #4
    17ce:	0080      	lsls	r0, r0, #2
    17d0:	f100 4080 	add.w	r0, r0, #1073741824	; 0x40000000
    17d4:	f500 3030 	add.w	r0, r0, #180224	; 0x2c000
    17d8:	6802      	ldr	r2, [r0, #0]
    17da:	f003 031e 	and.w	r3, r3, #30
    17de:	409c      	lsls	r4, r3
    17e0:	ea22 0204 	bic.w	r2, r2, r4
    17e4:	6002      	str	r2, [r0, #0]
    17e6:	6802      	ldr	r2, [r0, #0]
    17e8:	4099      	lsls	r1, r3
    17ea:	4311      	orrs	r1, r2
    17ec:	6001      	str	r1, [r0, #0]
    17ee:	bd10      	pop	{r4, pc}

000017f0 <pin_mode>:
    17f0:	f100 4060 	add.w	r0, r0, #3758096384	; 0xe0000000
    17f4:	f5a0 201c 	sub.w	r0, r0, #638976	; 0x9c000
    17f8:	0943      	lsrs	r3, r0, #5
    17fa:	009b      	lsls	r3, r3, #2
    17fc:	f103 4380 	add.w	r3, r3, #1073741824	; 0x40000000
    1800:	f503 3330 	add.w	r3, r3, #180224	; 0x2c000
    1804:	b530      	push	{r4, r5, lr}
    1806:	f000 021f 	and.w	r2, r0, #31
    180a:	6e9c      	ldr	r4, [r3, #104]	; 0x68
    180c:	f3c1 0580 	ubfx	r5, r1, #2, #1
    1810:	fa05 f202 	lsl.w	r2, r5, r2
    1814:	ea24 0402 	bic.w	r4, r4, r2
    1818:	669c      	str	r4, [r3, #104]	; 0x68
    181a:	6e9c      	ldr	r4, [r3, #104]	; 0x68
    181c:	4322      	orrs	r2, r4
    181e:	669a      	str	r2, [r3, #104]	; 0x68
    1820:	b995      	cbnz	r5, 1848 <pin_mode+0x58>
    1822:	2403      	movs	r4, #3
    1824:	0043      	lsls	r3, r0, #1
    1826:	0900      	lsrs	r0, r0, #4
    1828:	0080      	lsls	r0, r0, #2
    182a:	f100 4080 	add.w	r0, r0, #1073741824	; 0x40000000
    182e:	f500 3030 	add.w	r0, r0, #180224	; 0x2c000
    1832:	6c02      	ldr	r2, [r0, #64]	; 0x40
    1834:	f003 031e 	and.w	r3, r3, #30
    1838:	409c      	lsls	r4, r3
    183a:	ea22 0204 	bic.w	r2, r2, r4
    183e:	6402      	str	r2, [r0, #64]	; 0x40
    1840:	6c02      	ldr	r2, [r0, #64]	; 0x40
    1842:	4099      	lsls	r1, r3
    1844:	4311      	orrs	r1, r2
    1846:	6401      	str	r1, [r0, #64]	; 0x40
    1848:	bd30      	pop	{r4, r5, pc}
	...

0000184c <__NVIC_SetVector>:
    184c:	b530      	push	{r4, r5, lr}
    184e:	4c0c      	ldr	r4, [pc, #48]	; (1880 <__NVIC_SetVector+0x34>)
    1850:	68a2      	ldr	r2, [r4, #8]
    1852:	68a4      	ldr	r4, [r4, #8]
    1854:	4613      	mov	r3, r2
    1856:	f1b4 5f80 	cmp.w	r4, #268435456	; 0x10000000
    185a:	d20c      	bcs.n	1876 <__NVIC_SetVector+0x2a>
    185c:	1f13      	subs	r3, r2, #4
    185e:	4c09      	ldr	r4, [pc, #36]	; (1884 <__NVIC_SetVector+0x38>)
    1860:	4a09      	ldr	r2, [pc, #36]	; (1888 <__NVIC_SetVector+0x3c>)
    1862:	f853 5f04 	ldr.w	r5, [r3, #4]!
    1866:	f842 5f04 	str.w	r5, [r2, #4]!
    186a:	42a2      	cmp	r2, r4
    186c:	d1f9      	bne.n	1862 <__NVIC_SetVector+0x16>
    186e:	f04f 5380 	mov.w	r3, #268435456	; 0x10000000
    1872:	4a03      	ldr	r2, [pc, #12]	; (1880 <__NVIC_SetVector+0x34>)
    1874:	6093      	str	r3, [r2, #8]
    1876:	3010      	adds	r0, #16
    1878:	f843 1020 	str.w	r1, [r3, r0, lsl #2]
    187c:	bd30      	pop	{r4, r5, pc}
    187e:	bf00      	nop
    1880:	e000ed00 	.word	0xe000ed00
    1884:	100000c0 	.word	0x100000c0
    1888:	0ffffffc 	.word	0x0ffffffc

0000188c <SystemInit>:
    188c:	2220      	movs	r2, #32
    188e:	4b26      	ldr	r3, [pc, #152]	; (1928 <SystemInit+0x9c>)
    1890:	f8c3 21a0 	str.w	r2, [r3, #416]	; 0x1a0
    1894:	f8d3 21a0 	ldr.w	r2, [r3, #416]	; 0x1a0
    1898:	0692      	lsls	r2, r2, #26
    189a:	d503      	bpl.n	18a4 <SystemInit+0x18>
    189c:	f8d3 21a0 	ldr.w	r2, [r3, #416]	; 0x1a0
    18a0:	0650      	lsls	r0, r2, #25
    18a2:	d5fb      	bpl.n	189c <SystemInit+0x10>
    18a4:	2202      	movs	r2, #2
    18a6:	f8c3 2104 	str.w	r2, [r3, #260]	; 0x104
    18aa:	2200      	movs	r2, #0
    18ac:	2001      	movs	r0, #1
    18ae:	f8c3 21a8 	str.w	r2, [r3, #424]	; 0x1a8
    18b2:	f8c3 21ac 	str.w	r2, [r3, #428]	; 0x1ac
    18b6:	220b      	movs	r2, #11
    18b8:	f8c3 010c 	str.w	r0, [r3, #268]	; 0x10c
    18bc:	21aa      	movs	r1, #170	; 0xaa
    18be:	f8c3 2084 	str.w	r2, [r3, #132]	; 0x84
    18c2:	2255      	movs	r2, #85	; 0x55
    18c4:	f8c3 108c 	str.w	r1, [r3, #140]	; 0x8c
    18c8:	f8c3 208c 	str.w	r2, [r3, #140]	; 0x8c
    18cc:	f8c3 0080 	str.w	r0, [r3, #128]	; 0x80
    18d0:	f8c3 108c 	str.w	r1, [r3, #140]	; 0x8c
    18d4:	f8c3 208c 	str.w	r2, [r3, #140]	; 0x8c
    18d8:	4b13      	ldr	r3, [pc, #76]	; (1928 <SystemInit+0x9c>)
    18da:	461a      	mov	r2, r3
    18dc:	f8d3 1088 	ldr.w	r1, [r3, #136]	; 0x88
    18e0:	0149      	lsls	r1, r1, #5
    18e2:	d5fb      	bpl.n	18dc <SystemInit+0x50>
    18e4:	2103      	movs	r1, #3
    18e6:	f8c3 1080 	str.w	r1, [r3, #128]	; 0x80
    18ea:	21aa      	movs	r1, #170	; 0xaa
    18ec:	f8c3 108c 	str.w	r1, [r3, #140]	; 0x8c
    18f0:	2155      	movs	r1, #85	; 0x55
    18f2:	f8c3 108c 	str.w	r1, [r3, #140]	; 0x8c
    18f6:	f8d2 3088 	ldr.w	r3, [r2, #136]	; 0x88
    18fa:	f013 7f40 	tst.w	r3, #50331648	; 0x3000000
    18fe:	d0fa      	beq.n	18f6 <SystemInit+0x6a>
    1900:	2305      	movs	r3, #5
    1902:	f8c2 3108 	str.w	r3, [r2, #264]	; 0x108
    1906:	4b09      	ldr	r3, [pc, #36]	; (192c <SystemInit+0xa0>)
    1908:	f8c2 30c4 	str.w	r3, [r2, #196]	; 0xc4
    190c:	2300      	movs	r3, #0
    190e:	f8c2 31c8 	str.w	r3, [r2, #456]	; 0x1c8
    1912:	6813      	ldr	r3, [r2, #0]
    1914:	f423 4370 	bic.w	r3, r3, #61440	; 0xf000
    1918:	f023 033a 	bic.w	r3, r3, #58	; 0x3a
    191c:	f443 5340 	orr.w	r3, r3, #12288	; 0x3000
    1920:	f043 033a 	orr.w	r3, r3, #58	; 0x3a
    1924:	6013      	str	r3, [r2, #0]
    1926:	4770      	bx	lr
    1928:	400fc000 	.word	0x400fc000
    192c:	042887de 	.word	0x042887de

00001930 <mbed::Serial::lock()>:
    1930:	4770      	bx	lr

00001932 <non-virtual thunk to mbed::Serial::lock()>:
    1932:	f1a0 0030 	sub.w	r0, r0, #48	; 0x30
    1936:	f7ff bffb 	b.w	1930 <mbed::Serial::lock()>

0000193a <non-virtual thunk to mbed::Serial::unlock()>:
    193a:	f1a0 0030 	sub.w	r0, r0, #48	; 0x30
    193e:	f7ff bff7 	b.w	1930 <mbed::Serial::lock()>

00001942 <mbed::Serial::_getc()>:
    1942:	f000 bb44 	b.w	1fce <mbed::SerialBase::_base_getc()>

00001946 <non-virtual thunk to mbed::Serial::_getc()>:
    1946:	f1a0 0030 	sub.w	r0, r0, #48	; 0x30
    194a:	f7ff bffa 	b.w	1942 <mbed::Serial::_getc()>

0000194e <mbed::Serial::_putc(int)>:
    194e:	f000 bb41 	b.w	1fd4 <mbed::SerialBase::_base_putc(int)>

00001952 <non-virtual thunk to mbed::Serial::_putc(int)>:
    1952:	f1a0 0030 	sub.w	r0, r0, #48	; 0x30
    1956:	f7ff bffa 	b.w	194e <mbed::Serial::_putc(int)>
	...

0000195c <mbed::Serial::Serial(PinName, PinName, int)>:
    195c:	b510      	push	{r4, lr}
    195e:	4604      	mov	r4, r0
    1960:	f000 fb40 	bl	1fe4 <mbed::SerialBase::SerialBase(PinName, PinName, int)>
    1964:	2100      	movs	r1, #0
    1966:	f104 0030 	add.w	r0, r4, #48	; 0x30
    196a:	f000 f9ad 	bl	1cc8 <mbed::Stream::Stream(char const*)>
    196e:	4b04      	ldr	r3, [pc, #16]	; (1980 <mbed::Serial::Serial(PinName, PinName, int)+0x24>)
    1970:	4620      	mov	r0, r4
    1972:	f103 0208 	add.w	r2, r3, #8
    1976:	3328      	adds	r3, #40	; 0x28
    1978:	6022      	str	r2, [r4, #0]
    197a:	6323      	str	r3, [r4, #48]	; 0x30
    197c:	bd10      	pop	{r4, pc}
    197e:	bf00      	nop
    1980:	000070f0 	.word	0x000070f0

00001984 <mbed::I2C::~I2C()>:
    1984:	4770      	bx	lr
	...

00001988 <mbed::I2C::lock()>:
    1988:	4b02      	ldr	r3, [pc, #8]	; (1994 <mbed::I2C::lock()+0xc>)
    198a:	681a      	ldr	r2, [r3, #0]
    198c:	b90a      	cbnz	r2, 1992 <mbed::I2C::lock()+0xa>
    198e:	1d1a      	adds	r2, r3, #4
    1990:	601a      	str	r2, [r3, #0]
    1992:	4770      	bx	lr
    1994:	1000068c 	.word	0x1000068c

00001998 <mbed::I2C::~I2C()>:
    1998:	b510      	push	{r4, lr}
    199a:	4604      	mov	r4, r0
    199c:	f000 fd5f 	bl	245e <operator delete(void*)>
    19a0:	4620      	mov	r0, r4
    19a2:	bd10      	pop	{r4, pc}

000019a4 <mbed::I2C::I2C(PinName, PinName)>:
    19a4:	4b07      	ldr	r3, [pc, #28]	; (19c4 <mbed::I2C::I2C(PinName, PinName)+0x20>)
    19a6:	b510      	push	{r4, lr}
    19a8:	6003      	str	r3, [r0, #0]
    19aa:	2300      	movs	r3, #0
    19ac:	4604      	mov	r4, r0
    19ae:	6043      	str	r3, [r0, #4]
    19b0:	4b05      	ldr	r3, [pc, #20]	; (19c8 <mbed::I2C::I2C(PinName, PinName)+0x24>)
    19b2:	3004      	adds	r0, #4
    19b4:	6043      	str	r3, [r0, #4]
    19b6:	f7ff fe11 	bl	15dc <i2c_init>
    19ba:	4b04      	ldr	r3, [pc, #16]	; (19cc <mbed::I2C::I2C(PinName, PinName)+0x28>)
    19bc:	4620      	mov	r0, r4
    19be:	601c      	str	r4, [r3, #0]
    19c0:	bd10      	pop	{r4, pc}
    19c2:	bf00      	nop
    19c4:	00007168 	.word	0x00007168
    19c8:	000186a0 	.word	0x000186a0
    19cc:	10000694 	.word	0x10000694

000019d0 <mbed::I2C::frequency(int)>:
    19d0:	b570      	push	{r4, r5, r6, lr}
    19d2:	4604      	mov	r4, r0
    19d4:	460d      	mov	r5, r1
    19d6:	6803      	ldr	r3, [r0, #0]
    19d8:	681b      	ldr	r3, [r3, #0]
    19da:	4798      	blx	r3
    19dc:	1d20      	adds	r0, r4, #4
    19de:	60a5      	str	r5, [r4, #8]
    19e0:	4629      	mov	r1, r5
    19e2:	f7ff fdef 	bl	15c4 <i2c_frequency>
    19e6:	4b04      	ldr	r3, [pc, #16]	; (19f8 <mbed::I2C::frequency(int)+0x28>)
    19e8:	4620      	mov	r0, r4
    19ea:	601c      	str	r4, [r3, #0]
    19ec:	6823      	ldr	r3, [r4, #0]
    19ee:	e8bd 4070 	ldmia.w	sp!, {r4, r5, r6, lr}
    19f2:	685b      	ldr	r3, [r3, #4]
    19f4:	4718      	bx	r3
    19f6:	bf00      	nop
    19f8:	10000694 	.word	0x10000694

000019fc <mbed::I2C::aquire()>:
    19fc:	b570      	push	{r4, r5, r6, lr}
    19fe:	4604      	mov	r4, r0
    1a00:	6803      	ldr	r3, [r0, #0]
    1a02:	4d08      	ldr	r5, [pc, #32]	; (1a24 <mbed::I2C::aquire()+0x28>)
    1a04:	681b      	ldr	r3, [r3, #0]
    1a06:	4798      	blx	r3
    1a08:	682b      	ldr	r3, [r5, #0]
    1a0a:	429c      	cmp	r4, r3
    1a0c:	d004      	beq.n	1a18 <mbed::I2C::aquire()+0x1c>
    1a0e:	68a1      	ldr	r1, [r4, #8]
    1a10:	1d20      	adds	r0, r4, #4
    1a12:	f7ff fdd7 	bl	15c4 <i2c_frequency>
    1a16:	602c      	str	r4, [r5, #0]
    1a18:	6823      	ldr	r3, [r4, #0]
    1a1a:	4620      	mov	r0, r4
    1a1c:	e8bd 4070 	ldmia.w	sp!, {r4, r5, r6, lr}
    1a20:	685b      	ldr	r3, [r3, #4]
    1a22:	4718      	bx	r3
    1a24:	10000694 	.word	0x10000694

00001a28 <mbed::I2C::write(int, char const*, int, bool)>:
    1a28:	b5f7      	push	{r0, r1, r2, r4, r5, r6, r7, lr}
    1a2a:	4604      	mov	r4, r0
    1a2c:	460e      	mov	r6, r1
    1a2e:	4617      	mov	r7, r2
    1a30:	461d      	mov	r5, r3
    1a32:	6803      	ldr	r3, [r0, #0]
    1a34:	681b      	ldr	r3, [r3, #0]
    1a36:	4798      	blx	r3
    1a38:	4620      	mov	r0, r4
    1a3a:	f7ff ffdf 	bl	19fc <mbed::I2C::aquire()>
    1a3e:	f89d 3020 	ldrb.w	r3, [sp, #32]
    1a42:	4631      	mov	r1, r6
    1a44:	f083 0301 	eor.w	r3, r3, #1
    1a48:	9300      	str	r3, [sp, #0]
    1a4a:	463a      	mov	r2, r7
    1a4c:	462b      	mov	r3, r5
    1a4e:	1d20      	adds	r0, r4, #4
    1a50:	f7ff fe6e 	bl	1730 <i2c_write>
    1a54:	4606      	mov	r6, r0
    1a56:	6823      	ldr	r3, [r4, #0]
    1a58:	4620      	mov	r0, r4
    1a5a:	685b      	ldr	r3, [r3, #4]
    1a5c:	4798      	blx	r3
    1a5e:	1ba8      	subs	r0, r5, r6
    1a60:	bf18      	it	ne
    1a62:	2001      	movne	r0, #1
    1a64:	b003      	add	sp, #12
    1a66:	bdf0      	pop	{r4, r5, r6, r7, pc}

00001a68 <mbed::I2C::read(int, char*, int, bool)>:
    1a68:	b5f7      	push	{r0, r1, r2, r4, r5, r6, r7, lr}
    1a6a:	4604      	mov	r4, r0
    1a6c:	460e      	mov	r6, r1
    1a6e:	4617      	mov	r7, r2
    1a70:	461d      	mov	r5, r3
    1a72:	6803      	ldr	r3, [r0, #0]
    1a74:	681b      	ldr	r3, [r3, #0]
    1a76:	4798      	blx	r3
    1a78:	4620      	mov	r0, r4
    1a7a:	f7ff ffbf 	bl	19fc <mbed::I2C::aquire()>
    1a7e:	f89d 3020 	ldrb.w	r3, [sp, #32]
    1a82:	4631      	mov	r1, r6
    1a84:	f083 0301 	eor.w	r3, r3, #1
    1a88:	9300      	str	r3, [sp, #0]
    1a8a:	463a      	mov	r2, r7
    1a8c:	462b      	mov	r3, r5
    1a8e:	1d20      	adds	r0, r4, #4
    1a90:	f7ff fdf2 	bl	1678 <i2c_read>
    1a94:	4606      	mov	r6, r0
    1a96:	6823      	ldr	r3, [r4, #0]
    1a98:	4620      	mov	r0, r4
    1a9a:	685b      	ldr	r3, [r3, #4]
    1a9c:	4798      	blx	r3
    1a9e:	1ba8      	subs	r0, r5, r6
    1aa0:	bf18      	it	ne
    1aa2:	2001      	movne	r0, #1
    1aa4:	b003      	add	sp, #12
    1aa6:	bdf0      	pop	{r4, r5, r6, r7, pc}

00001aa8 <mbed::BusOut::lock()>:
    1aa8:	4770      	bx	lr
	...

00001aac <mbed::BusOut::~BusOut()>:
    1aac:	b570      	push	{r4, r5, r6, lr}
    1aae:	4604      	mov	r4, r0
    1ab0:	4605      	mov	r5, r0
    1ab2:	4b07      	ldr	r3, [pc, #28]	; (1ad0 <mbed::BusOut::~BusOut()+0x24>)
    1ab4:	f100 0644 	add.w	r6, r0, #68	; 0x44
    1ab8:	f844 3b04 	str.w	r3, [r4], #4
    1abc:	f854 0b04 	ldr.w	r0, [r4], #4
    1ac0:	b108      	cbz	r0, 1ac6 <mbed::BusOut::~BusOut()+0x1a>
    1ac2:	f000 fccc 	bl	245e <operator delete(void*)>
    1ac6:	42b4      	cmp	r4, r6
    1ac8:	d1f8      	bne.n	1abc <mbed::BusOut::~BusOut()+0x10>
    1aca:	4628      	mov	r0, r5
    1acc:	bd70      	pop	{r4, r5, r6, pc}
    1ace:	bf00      	nop
    1ad0:	00007180 	.word	0x00007180

00001ad4 <mbed::BusOut::~BusOut()>:
    1ad4:	b510      	push	{r4, lr}
    1ad6:	4604      	mov	r4, r0
    1ad8:	f7ff ffe8 	bl	1aac <mbed::BusOut::~BusOut()>
    1adc:	4620      	mov	r0, r4
    1ade:	f000 fcbe 	bl	245e <operator delete(void*)>
    1ae2:	4620      	mov	r0, r4
    1ae4:	bd10      	pop	{r4, pc}
	...

00001ae8 <mbed::BusOut::BusOut(PinName, PinName, PinName, PinName, PinName, PinName, PinName, PinName, PinName, PinName, PinName, PinName, PinName, PinName, PinName, PinName)>:
    1ae8:	e92d 41f0 	stmdb	sp!, {r4, r5, r6, r7, r8, lr}
    1aec:	4605      	mov	r5, r0
    1aee:	2400      	movs	r4, #0
    1af0:	b090      	sub	sp, #64	; 0x40
    1af2:	e88d 000e 	stmia.w	sp, {r1, r2, r3}
    1af6:	9b16      	ldr	r3, [sp, #88]	; 0x58
    1af8:	4820      	ldr	r0, [pc, #128]	; (1b7c <mbed::BusOut::BusOut(PinName, PinName, PinName, PinName, PinName, PinName, PinName, PinName, PinName, PinName, PinName, PinName, PinName, PinName, PinName, PinName)+0x94>)
    1afa:	9303      	str	r3, [sp, #12]
    1afc:	9b17      	ldr	r3, [sp, #92]	; 0x5c
    1afe:	6028      	str	r0, [r5, #0]
    1b00:	9304      	str	r3, [sp, #16]
    1b02:	9b18      	ldr	r3, [sp, #96]	; 0x60
    1b04:	646c      	str	r4, [r5, #68]	; 0x44
    1b06:	9305      	str	r3, [sp, #20]
    1b08:	9b19      	ldr	r3, [sp, #100]	; 0x64
    1b0a:	1d2f      	adds	r7, r5, #4
    1b0c:	9306      	str	r3, [sp, #24]
    1b0e:	9b1a      	ldr	r3, [sp, #104]	; 0x68
    1b10:	9307      	str	r3, [sp, #28]
    1b12:	9b1b      	ldr	r3, [sp, #108]	; 0x6c
    1b14:	9308      	str	r3, [sp, #32]
    1b16:	9b1c      	ldr	r3, [sp, #112]	; 0x70
    1b18:	9309      	str	r3, [sp, #36]	; 0x24
    1b1a:	9b1d      	ldr	r3, [sp, #116]	; 0x74
    1b1c:	930a      	str	r3, [sp, #40]	; 0x28
    1b1e:	9b1e      	ldr	r3, [sp, #120]	; 0x78
    1b20:	930b      	str	r3, [sp, #44]	; 0x2c
    1b22:	9b1f      	ldr	r3, [sp, #124]	; 0x7c
    1b24:	930c      	str	r3, [sp, #48]	; 0x30
    1b26:	9b20      	ldr	r3, [sp, #128]	; 0x80
    1b28:	930d      	str	r3, [sp, #52]	; 0x34
    1b2a:	9b21      	ldr	r3, [sp, #132]	; 0x84
    1b2c:	930e      	str	r3, [sp, #56]	; 0x38
    1b2e:	9b22      	ldr	r3, [sp, #136]	; 0x88
    1b30:	930f      	str	r3, [sp, #60]	; 0x3c
    1b32:	f85d 8024 	ldr.w	r8, [sp, r4, lsl #2]
    1b36:	f1b8 3fff 	cmp.w	r8, #4294967295	; 0xffffffff
    1b3a:	d01d      	beq.n	1b78 <mbed::BusOut::BusOut(PinName, PinName, PinName, PinName, PinName, PinName, PinName, PinName, PinName, PinName, PinName, PinName, PinName, PinName, PinName, PinName)+0x90>
    1b3c:	2018      	movs	r0, #24
    1b3e:	f000 fc75 	bl	242c <operator new(unsigned int)>
    1b42:	4606      	mov	r6, r0
    1b44:	2100      	movs	r1, #0
    1b46:	2218      	movs	r2, #24
    1b48:	f001 ffbb 	bl	3ac2 <memset>
    1b4c:	4641      	mov	r1, r8
    1b4e:	4630      	mov	r0, r6
    1b50:	f7fe ff1c 	bl	98c <gpio_init_out>
    1b54:	f1b8 3fff 	cmp.w	r8, #4294967295	; 0xffffffff
    1b58:	f847 6b04 	str.w	r6, [r7], #4
    1b5c:	d005      	beq.n	1b6a <mbed::BusOut::BusOut(PinName, PinName, PinName, PinName, PinName, PinName, PinName, PinName, PinName, PinName, PinName, PinName, PinName, PinName, PinName, PinName)+0x82>
    1b5e:	2301      	movs	r3, #1
    1b60:	fa03 f204 	lsl.w	r2, r3, r4
    1b64:	6c6b      	ldr	r3, [r5, #68]	; 0x44
    1b66:	4313      	orrs	r3, r2
    1b68:	646b      	str	r3, [r5, #68]	; 0x44
    1b6a:	3401      	adds	r4, #1
    1b6c:	2c10      	cmp	r4, #16
    1b6e:	d1e0      	bne.n	1b32 <mbed::BusOut::BusOut(PinName, PinName, PinName, PinName, PinName, PinName, PinName, PinName, PinName, PinName, PinName, PinName, PinName, PinName, PinName, PinName)+0x4a>
    1b70:	4628      	mov	r0, r5
    1b72:	b010      	add	sp, #64	; 0x40
    1b74:	e8bd 81f0 	ldmia.w	sp!, {r4, r5, r6, r7, r8, pc}
    1b78:	2600      	movs	r6, #0
    1b7a:	e7eb      	b.n	1b54 <mbed::BusOut::BusOut(PinName, PinName, PinName, PinName, PinName, PinName, PinName, PinName, PinName, PinName, PinName, PinName, PinName, PinName, PinName, PinName)+0x6c>
    1b7c:	00007180 	.word	0x00007180

00001b80 <mbed::BusOut::write(int)>:
    1b80:	b570      	push	{r4, r5, r6, lr}
    1b82:	4604      	mov	r4, r0
    1b84:	f854 3b04 	ldr.w	r3, [r4], #4
    1b88:	4605      	mov	r5, r0
    1b8a:	689b      	ldr	r3, [r3, #8]
    1b8c:	460e      	mov	r6, r1
    1b8e:	4798      	blx	r3
    1b90:	2300      	movs	r3, #0
    1b92:	f854 2b04 	ldr.w	r2, [r4], #4
    1b96:	b142      	cbz	r2, 1baa <mbed::BusOut::write(int)+0x2a>
    1b98:	fa46 f103 	asr.w	r1, r6, r3
    1b9c:	f011 0f01 	tst.w	r1, #1
    1ba0:	6850      	ldr	r0, [r2, #4]
    1ba2:	bf14      	ite	ne
    1ba4:	68d2      	ldrne	r2, [r2, #12]
    1ba6:	6912      	ldreq	r2, [r2, #16]
    1ba8:	6010      	str	r0, [r2, #0]
    1baa:	3301      	adds	r3, #1
    1bac:	2b10      	cmp	r3, #16
    1bae:	d1f0      	bne.n	1b92 <mbed::BusOut::write(int)+0x12>
    1bb0:	682b      	ldr	r3, [r5, #0]
    1bb2:	4628      	mov	r0, r5
    1bb4:	e8bd 4070 	ldmia.w	sp!, {r4, r5, r6, lr}
    1bb8:	68db      	ldr	r3, [r3, #12]
    1bba:	4718      	bx	r3

00001bbc <mbed::BusOut::operator=(int)>:
    1bbc:	b510      	push	{r4, lr}
    1bbe:	4604      	mov	r4, r0
    1bc0:	f7ff ffde 	bl	1b80 <mbed::BusOut::write(int)>
    1bc4:	4620      	mov	r0, r4
    1bc6:	bd10      	pop	{r4, pc}

00001bc8 <mbed::FilePath::FilePath(char const*)>:
    1bc8:	2300      	movs	r3, #0
    1bca:	b510      	push	{r4, lr}
    1bcc:	6003      	str	r3, [r0, #0]
    1bce:	6043      	str	r3, [r0, #4]
    1bd0:	780a      	ldrb	r2, [r1, #0]
    1bd2:	4604      	mov	r4, r0
    1bd4:	2a2f      	cmp	r2, #47	; 0x2f
    1bd6:	d10d      	bne.n	1bf4 <mbed::FilePath::FilePath(char const*)+0x2c>
    1bd8:	784a      	ldrb	r2, [r1, #1]
    1bda:	b15a      	cbz	r2, 1bf4 <mbed::FilePath::FilePath(char const*)+0x2c>
    1bdc:	1c48      	adds	r0, r1, #1
    1bde:	4619      	mov	r1, r3
    1be0:	6020      	str	r0, [r4, #0]
    1be2:	6823      	ldr	r3, [r4, #0]
    1be4:	781a      	ldrb	r2, [r3, #0]
    1be6:	2a2f      	cmp	r2, #47	; 0x2f
    1be8:	d106      	bne.n	1bf8 <mbed::FilePath::FilePath(char const*)+0x30>
    1bea:	3301      	adds	r3, #1
    1bec:	6023      	str	r3, [r4, #0]
    1bee:	f000 f921 	bl	1e34 <mbed::FileBase::lookup(char const*, unsigned int)>
    1bf2:	6060      	str	r0, [r4, #4]
    1bf4:	4620      	mov	r0, r4
    1bf6:	bd10      	pop	{r4, pc}
    1bf8:	2a00      	cmp	r2, #0
    1bfa:	d0f8      	beq.n	1bee <mbed::FilePath::FilePath(char const*)+0x26>
    1bfc:	3301      	adds	r3, #1
    1bfe:	3101      	adds	r1, #1
    1c00:	6023      	str	r3, [r4, #0]
    1c02:	e7ee      	b.n	1be2 <mbed::FilePath::FilePath(char const*)+0x1a>

00001c04 <mbed::FilePath::fileName()>:
    1c04:	6800      	ldr	r0, [r0, #0]
    1c06:	4770      	bx	lr

00001c08 <mbed::FilePath::isFileSystem()>:
    1c08:	6840      	ldr	r0, [r0, #4]
    1c0a:	b508      	push	{r3, lr}
    1c0c:	b120      	cbz	r0, 1c18 <mbed::FilePath::isFileSystem()+0x10>
    1c0e:	f000 f8ba 	bl	1d86 <mbed::FileBase::getPathType()>
    1c12:	1e43      	subs	r3, r0, #1
    1c14:	4258      	negs	r0, r3
    1c16:	4158      	adcs	r0, r3
    1c18:	bd08      	pop	{r3, pc}

00001c1a <mbed::FilePath::fileSystem()>:
    1c1a:	b510      	push	{r4, lr}
    1c1c:	4604      	mov	r4, r0
    1c1e:	f7ff fff3 	bl	1c08 <mbed::FilePath::isFileSystem()>
    1c22:	b100      	cbz	r0, 1c26 <mbed::FilePath::fileSystem()+0xc>
    1c24:	6860      	ldr	r0, [r4, #4]
    1c26:	bd10      	pop	{r4, pc}

00001c28 <mbed::FilePath::isFile()>:
    1c28:	6840      	ldr	r0, [r0, #4]
    1c2a:	b508      	push	{r3, lr}
    1c2c:	b120      	cbz	r0, 1c38 <mbed::FilePath::isFile()+0x10>
    1c2e:	f000 f8aa 	bl	1d86 <mbed::FileBase::getPathType()>
    1c32:	fab0 f080 	clz	r0, r0
    1c36:	0940      	lsrs	r0, r0, #5
    1c38:	bd08      	pop	{r3, pc}

00001c3a <mbed::FilePath::file()>:
    1c3a:	b510      	push	{r4, lr}
    1c3c:	4604      	mov	r4, r0
    1c3e:	f7ff fff3 	bl	1c28 <mbed::FilePath::isFile()>
    1c42:	b100      	cbz	r0, 1c46 <mbed::FilePath::file()+0xc>
    1c44:	6860      	ldr	r0, [r4, #4]
    1c46:	bd10      	pop	{r4, pc}

00001c48 <mbed::FilePath::exists()>:
    1c48:	6840      	ldr	r0, [r0, #4]
    1c4a:	3000      	adds	r0, #0
    1c4c:	bf18      	it	ne
    1c4e:	2001      	movne	r0, #1
    1c50:	4770      	bx	lr

00001c52 <mbed::Stream::write(void const*, unsigned int)>:
    1c52:	b5f8      	push	{r3, r4, r5, r6, r7, lr}
    1c54:	460e      	mov	r6, r1
    1c56:	6803      	ldr	r3, [r0, #0]
    1c58:	4604      	mov	r4, r0
    1c5a:	6b9b      	ldr	r3, [r3, #56]	; 0x38
    1c5c:	188f      	adds	r7, r1, r2
    1c5e:	4635      	mov	r5, r6
    1c60:	4798      	blx	r3
    1c62:	42bd      	cmp	r5, r7
    1c64:	d007      	beq.n	1c76 <mbed::Stream::write(void const*, unsigned int)+0x24>
    1c66:	6823      	ldr	r3, [r4, #0]
    1c68:	f815 1b01 	ldrb.w	r1, [r5], #1
    1c6c:	6c1b      	ldr	r3, [r3, #64]	; 0x40
    1c6e:	4620      	mov	r0, r4
    1c70:	4798      	blx	r3
    1c72:	3001      	adds	r0, #1
    1c74:	d1f5      	bne.n	1c62 <mbed::Stream::write(void const*, unsigned int)+0x10>
    1c76:	6823      	ldr	r3, [r4, #0]
    1c78:	4620      	mov	r0, r4
    1c7a:	6bdb      	ldr	r3, [r3, #60]	; 0x3c
    1c7c:	4798      	blx	r3
    1c7e:	1ba8      	subs	r0, r5, r6
    1c80:	bdf8      	pop	{r3, r4, r5, r6, r7, pc}

00001c82 <mbed::Stream::read(void*, unsigned int)>:
    1c82:	b5f8      	push	{r3, r4, r5, r6, r7, lr}
    1c84:	460e      	mov	r6, r1
    1c86:	6803      	ldr	r3, [r0, #0]
    1c88:	4604      	mov	r4, r0
    1c8a:	6b9b      	ldr	r3, [r3, #56]	; 0x38
    1c8c:	188f      	adds	r7, r1, r2
    1c8e:	4635      	mov	r5, r6
    1c90:	4798      	blx	r3
    1c92:	42bd      	cmp	r5, r7
    1c94:	d008      	beq.n	1ca8 <mbed::Stream::read(void*, unsigned int)+0x26>
    1c96:	6823      	ldr	r3, [r4, #0]
    1c98:	4620      	mov	r0, r4
    1c9a:	6c5b      	ldr	r3, [r3, #68]	; 0x44
    1c9c:	4798      	blx	r3
    1c9e:	1c43      	adds	r3, r0, #1
    1ca0:	d002      	beq.n	1ca8 <mbed::Stream::read(void*, unsigned int)+0x26>
    1ca2:	f805 0b01 	strb.w	r0, [r5], #1
    1ca6:	e7f4      	b.n	1c92 <mbed::Stream::read(void*, unsigned int)+0x10>
    1ca8:	6823      	ldr	r3, [r4, #0]
    1caa:	4620      	mov	r0, r4
    1cac:	6bdb      	ldr	r3, [r3, #60]	; 0x3c
    1cae:	4798      	blx	r3
    1cb0:	1ba8      	subs	r0, r5, r6
    1cb2:	bdf8      	pop	{r3, r4, r5, r6, r7, pc}

00001cb4 <mbed::Stream::seek(long, int)>:
    1cb4:	2000      	movs	r0, #0
    1cb6:	4770      	bx	lr

00001cb8 <mbed::Stream::tell()>:
    1cb8:	2000      	movs	r0, #0
    1cba:	4770      	bx	lr

00001cbc <mbed::Stream::rewind()>:
    1cbc:	4770      	bx	lr

00001cbe <mbed::Stream::sync()>:
    1cbe:	2000      	movs	r0, #0
    1cc0:	4770      	bx	lr

00001cc2 <mbed::Stream::size()>:
    1cc2:	2000      	movs	r0, #0
    1cc4:	4770      	bx	lr
	...

00001cc8 <mbed::Stream::Stream(char const*)>:
    1cc8:	b51f      	push	{r0, r1, r2, r3, r4, lr}
    1cca:	4604      	mov	r4, r0
    1ccc:	2200      	movs	r2, #0
    1cce:	f000 f863 	bl	1d98 <mbed::FileBase::FileBase(char const*, mbed::PathType)>
    1cd2:	4b09      	ldr	r3, [pc, #36]	; (1cf8 <mbed::Stream::Stream(char const*)+0x30>)
    1cd4:	4622      	mov	r2, r4
    1cd6:	6023      	str	r3, [r4, #0]
    1cd8:	2300      	movs	r3, #0
    1cda:	4908      	ldr	r1, [pc, #32]	; (1cfc <mbed::Stream::Stream(char const*)+0x34>)
    1cdc:	6123      	str	r3, [r4, #16]
    1cde:	a801      	add	r0, sp, #4
    1ce0:	f002 ffe2 	bl	4ca8 <siprintf>
    1ce4:	4906      	ldr	r1, [pc, #24]	; (1d00 <mbed::Stream::Stream(char const*)+0x38>)
    1ce6:	a801      	add	r0, sp, #4
    1ce8:	f001 fd82 	bl	37f0 <fopen>
    1cec:	6120      	str	r0, [r4, #16]
    1cee:	f000 fb90 	bl	2412 <mbed::mbed_set_unbuffered_stream(__sFILE*)>
    1cf2:	4620      	mov	r0, r4
    1cf4:	b004      	add	sp, #16
    1cf6:	bd10      	pop	{r4, pc}
    1cf8:	000071e8 	.word	0x000071e8
    1cfc:	000071d8 	.word	0x000071d8
    1d00:	000071dc 	.word	0x000071dc

00001d04 <mbed::Stream::~Stream()>:
    1d04:	b510      	push	{r4, lr}
    1d06:	4604      	mov	r4, r0
    1d08:	4b05      	ldr	r3, [pc, #20]	; (1d20 <mbed::Stream::~Stream()+0x1c>)
    1d0a:	6003      	str	r3, [r0, #0]
    1d0c:	6900      	ldr	r0, [r0, #16]
    1d0e:	f001 fbb5 	bl	347c <fclose>
    1d12:	4b04      	ldr	r3, [pc, #16]	; (1d24 <mbed::Stream::~Stream()+0x20>)
    1d14:	4620      	mov	r0, r4
    1d16:	6023      	str	r3, [r4, #0]
    1d18:	f000 f85c 	bl	1dd4 <mbed::FileBase::~FileBase()>
    1d1c:	4620      	mov	r0, r4
    1d1e:	bd10      	pop	{r4, pc}
    1d20:	000071e8 	.word	0x000071e8
    1d24:	00007198 	.word	0x00007198

00001d28 <mbed::Stream::printf(char const*, ...)>:
    1d28:	b40e      	push	{r1, r2, r3}
    1d2a:	b577      	push	{r0, r1, r2, r4, r5, r6, lr}
    1d2c:	4604      	mov	r4, r0
    1d2e:	6803      	ldr	r3, [r0, #0]
    1d30:	ad07      	add	r5, sp, #28
    1d32:	f855 6b04 	ldr.w	r6, [r5], #4
    1d36:	6b9b      	ldr	r3, [r3, #56]	; 0x38
    1d38:	4798      	blx	r3
    1d3a:	6920      	ldr	r0, [r4, #16]
    1d3c:	9501      	str	r5, [sp, #4]
    1d3e:	f001 fc57 	bl	35f0 <fflush>
    1d42:	9a01      	ldr	r2, [sp, #4]
    1d44:	4631      	mov	r1, r6
    1d46:	6920      	ldr	r0, [r4, #16]
    1d48:	f002 f8e0 	bl	3f0c <vfiprintf>
    1d4c:	4605      	mov	r5, r0
    1d4e:	6823      	ldr	r3, [r4, #0]
    1d50:	4620      	mov	r0, r4
    1d52:	6bdb      	ldr	r3, [r3, #60]	; 0x3c
    1d54:	4798      	blx	r3
    1d56:	4628      	mov	r0, r5
    1d58:	b003      	add	sp, #12
    1d5a:	e8bd 4070 	ldmia.w	sp!, {r4, r5, r6, lr}
    1d5e:	b003      	add	sp, #12
    1d60:	4770      	bx	lr

00001d62 <mbed::Callback<void ()>::operator=(mbed::Callback<void ()> const&)>:
    1d62:	4288      	cmp	r0, r1
    1d64:	b538      	push	{r3, r4, r5, lr}
    1d66:	4604      	mov	r4, r0
    1d68:	460d      	mov	r5, r1
    1d6a:	d00a      	beq.n	1d82 <mbed::Callback<void ()>::operator=(mbed::Callback<void ()> const&)+0x20>
    1d6c:	f7fe fc23 	bl	5b6 <mbed::Callback<void ()>::~Callback()>
    1d70:	b13c      	cbz	r4, 1d82 <mbed::Callback<void ()>::operator=(mbed::Callback<void ()> const&)+0x20>
    1d72:	68eb      	ldr	r3, [r5, #12]
    1d74:	b11b      	cbz	r3, 1d7e <mbed::Callback<void ()>::operator=(mbed::Callback<void ()> const&)+0x1c>
    1d76:	685b      	ldr	r3, [r3, #4]
    1d78:	4629      	mov	r1, r5
    1d7a:	4620      	mov	r0, r4
    1d7c:	4798      	blx	r3
    1d7e:	68eb      	ldr	r3, [r5, #12]
    1d80:	60e3      	str	r3, [r4, #12]
    1d82:	4620      	mov	r0, r4
    1d84:	bd38      	pop	{r3, r4, r5, pc}

00001d86 <mbed::FileBase::getPathType()>:
    1d86:	7b00      	ldrb	r0, [r0, #12]
    1d88:	4770      	bx	lr

00001d8a <SingletonPtr<PlatformMutex>::get()>:
    1d8a:	6803      	ldr	r3, [r0, #0]
    1d8c:	b90b      	cbnz	r3, 1d92 <SingletonPtr<PlatformMutex>::get()+0x8>
    1d8e:	1d03      	adds	r3, r0, #4
    1d90:	6003      	str	r3, [r0, #0]
    1d92:	6800      	ldr	r0, [r0, #0]
    1d94:	4770      	bx	lr
	...

00001d98 <mbed::FileBase::FileBase(char const*, mbed::PathType)>:
    1d98:	b538      	push	{r3, r4, r5, lr}
    1d9a:	4b0b      	ldr	r3, [pc, #44]	; (1dc8 <mbed::FileBase::FileBase(char const*, mbed::PathType)+0x30>)
    1d9c:	4604      	mov	r4, r0
    1d9e:	6003      	str	r3, [r0, #0]
    1da0:	2300      	movs	r3, #0
    1da2:	460d      	mov	r5, r1
    1da4:	6043      	str	r3, [r0, #4]
    1da6:	60a1      	str	r1, [r4, #8]
    1da8:	7302      	strb	r2, [r0, #12]
    1daa:	4808      	ldr	r0, [pc, #32]	; (1dcc <mbed::FileBase::FileBase(char const*, mbed::PathType)+0x34>)
    1dac:	f7ff ffed 	bl	1d8a <SingletonPtr<PlatformMutex>::get()>
    1db0:	b145      	cbz	r5, 1dc4 <mbed::FileBase::FileBase(char const*, mbed::PathType)+0x2c>
    1db2:	4b07      	ldr	r3, [pc, #28]	; (1dd0 <mbed::FileBase::FileBase(char const*, mbed::PathType)+0x38>)
    1db4:	681a      	ldr	r2, [r3, #0]
    1db6:	601c      	str	r4, [r3, #0]
    1db8:	6062      	str	r2, [r4, #4]
    1dba:	4804      	ldr	r0, [pc, #16]	; (1dcc <mbed::FileBase::FileBase(char const*, mbed::PathType)+0x34>)
    1dbc:	f7ff ffe5 	bl	1d8a <SingletonPtr<PlatformMutex>::get()>
    1dc0:	4620      	mov	r0, r4
    1dc2:	bd38      	pop	{r3, r4, r5, pc}
    1dc4:	6065      	str	r5, [r4, #4]
    1dc6:	e7f8      	b.n	1dba <mbed::FileBase::FileBase(char const*, mbed::PathType)+0x22>
    1dc8:	00007238 	.word	0x00007238
    1dcc:	1000069c 	.word	0x1000069c
    1dd0:	10000698 	.word	0x10000698

00001dd4 <mbed::FileBase::~FileBase()>:
    1dd4:	b510      	push	{r4, lr}
    1dd6:	4604      	mov	r4, r0
    1dd8:	4b0e      	ldr	r3, [pc, #56]	; (1e14 <mbed::FileBase::~FileBase()+0x40>)
    1dda:	6003      	str	r3, [r0, #0]
    1ddc:	480e      	ldr	r0, [pc, #56]	; (1e18 <mbed::FileBase::~FileBase()+0x44>)
    1dde:	f7ff ffd4 	bl	1d8a <SingletonPtr<PlatformMutex>::get()>
    1de2:	68a3      	ldr	r3, [r4, #8]
    1de4:	b12b      	cbz	r3, 1df2 <mbed::FileBase::~FileBase()+0x1e>
    1de6:	4a0d      	ldr	r2, [pc, #52]	; (1e1c <mbed::FileBase::~FileBase()+0x48>)
    1de8:	6813      	ldr	r3, [r2, #0]
    1dea:	429c      	cmp	r4, r3
    1dec:	d10c      	bne.n	1e08 <mbed::FileBase::~FileBase()+0x34>
    1dee:	6863      	ldr	r3, [r4, #4]
    1df0:	6013      	str	r3, [r2, #0]
    1df2:	4809      	ldr	r0, [pc, #36]	; (1e18 <mbed::FileBase::~FileBase()+0x44>)
    1df4:	f7ff ffc9 	bl	1d8a <SingletonPtr<PlatformMutex>::get()>
    1df8:	7b23      	ldrb	r3, [r4, #12]
    1dfa:	b913      	cbnz	r3, 1e02 <mbed::FileBase::~FileBase()+0x2e>
    1dfc:	4620      	mov	r0, r4
    1dfe:	f000 fb31 	bl	2464 <mbed::remove_filehandle(mbed::FileLike*)>
    1e02:	4620      	mov	r0, r4
    1e04:	bd10      	pop	{r4, pc}
    1e06:	4613      	mov	r3, r2
    1e08:	685a      	ldr	r2, [r3, #4]
    1e0a:	4294      	cmp	r4, r2
    1e0c:	d1fb      	bne.n	1e06 <mbed::FileBase::~FileBase()+0x32>
    1e0e:	6862      	ldr	r2, [r4, #4]
    1e10:	605a      	str	r2, [r3, #4]
    1e12:	e7ee      	b.n	1df2 <mbed::FileBase::~FileBase()+0x1e>
    1e14:	00007238 	.word	0x00007238
    1e18:	1000069c 	.word	0x1000069c
    1e1c:	10000698 	.word	0x10000698

00001e20 <mbed::FileBase::~FileBase()>:
    1e20:	b510      	push	{r4, lr}
    1e22:	4604      	mov	r4, r0
    1e24:	f7ff ffd6 	bl	1dd4 <mbed::FileBase::~FileBase()>
    1e28:	4620      	mov	r0, r4
    1e2a:	f000 fb18 	bl	245e <operator delete(void*)>
    1e2e:	4620      	mov	r0, r4
    1e30:	bd10      	pop	{r4, pc}
	...

00001e34 <mbed::FileBase::lookup(char const*, unsigned int)>:
    1e34:	b5f8      	push	{r3, r4, r5, r6, r7, lr}
    1e36:	4607      	mov	r7, r0
    1e38:	480d      	ldr	r0, [pc, #52]	; (1e70 <mbed::FileBase::lookup(char const*, unsigned int)+0x3c>)
    1e3a:	460e      	mov	r6, r1
    1e3c:	f7ff ffa5 	bl	1d8a <SingletonPtr<PlatformMutex>::get()>
    1e40:	4b0c      	ldr	r3, [pc, #48]	; (1e74 <mbed::FileBase::lookup(char const*, unsigned int)+0x40>)
    1e42:	681c      	ldr	r4, [r3, #0]
    1e44:	b164      	cbz	r4, 1e60 <mbed::FileBase::lookup(char const*, unsigned int)+0x2c>
    1e46:	68a5      	ldr	r5, [r4, #8]
    1e48:	b17d      	cbz	r5, 1e6a <mbed::FileBase::lookup(char const*, unsigned int)+0x36>
    1e4a:	4632      	mov	r2, r6
    1e4c:	4639      	mov	r1, r7
    1e4e:	4628      	mov	r0, r5
    1e50:	f002 ffcf 	bl	4df2 <strncmp>
    1e54:	b948      	cbnz	r0, 1e6a <mbed::FileBase::lookup(char const*, unsigned int)+0x36>
    1e56:	4628      	mov	r0, r5
    1e58:	f002 ffc3 	bl	4de2 <strlen>
    1e5c:	4286      	cmp	r6, r0
    1e5e:	d104      	bne.n	1e6a <mbed::FileBase::lookup(char const*, unsigned int)+0x36>
    1e60:	4803      	ldr	r0, [pc, #12]	; (1e70 <mbed::FileBase::lookup(char const*, unsigned int)+0x3c>)
    1e62:	f7ff ff92 	bl	1d8a <SingletonPtr<PlatformMutex>::get()>
    1e66:	4620      	mov	r0, r4
    1e68:	bdf8      	pop	{r3, r4, r5, r6, r7, pc}
    1e6a:	6864      	ldr	r4, [r4, #4]
    1e6c:	e7ea      	b.n	1e44 <mbed::FileBase::lookup(char const*, unsigned int)+0x10>
    1e6e:	bf00      	nop
    1e70:	1000069c 	.word	0x1000069c
    1e74:	10000698 	.word	0x10000698

00001e78 <mbed::donothing()>:
    1e78:	4770      	bx	lr

00001e7a <mbed::InterruptIn::operator int()>:
    1e7a:	6983      	ldr	r3, [r0, #24]
    1e7c:	681a      	ldr	r2, [r3, #0]
    1e7e:	6883      	ldr	r3, [r0, #8]
    1e80:	421a      	tst	r2, r3
    1e82:	bf14      	ite	ne
    1e84:	2001      	movne	r0, #1
    1e86:	2000      	moveq	r0, #0
    1e88:	4770      	bx	lr
	...

00001e8c <mbed::InterruptIn::~InterruptIn()>:
    1e8c:	b510      	push	{r4, lr}
    1e8e:	4604      	mov	r4, r0
    1e90:	4b07      	ldr	r3, [pc, #28]	; (1eb0 <mbed::InterruptIn::~InterruptIn()+0x24>)
    1e92:	f840 3b1c 	str.w	r3, [r0], #28
    1e96:	f7fe ff4d 	bl	d34 <gpio_irq_free>
    1e9a:	f104 0038 	add.w	r0, r4, #56	; 0x38
    1e9e:	f7fe fb8a 	bl	5b6 <mbed::Callback<void ()>::~Callback()>
    1ea2:	f104 0028 	add.w	r0, r4, #40	; 0x28
    1ea6:	f7fe fb86 	bl	5b6 <mbed::Callback<void ()>::~Callback()>
    1eaa:	4620      	mov	r0, r4
    1eac:	bd10      	pop	{r4, pc}
    1eae:	bf00      	nop
    1eb0:	00007248 	.word	0x00007248

00001eb4 <mbed::InterruptIn::~InterruptIn()>:
    1eb4:	b510      	push	{r4, lr}
    1eb6:	4604      	mov	r4, r0
    1eb8:	f7ff ffe8 	bl	1e8c <mbed::InterruptIn::~InterruptIn()>
    1ebc:	4620      	mov	r0, r4
    1ebe:	f000 face 	bl	245e <operator delete(void*)>
    1ec2:	4620      	mov	r0, r4
    1ec4:	bd10      	pop	{r4, pc}
	...

00001ec8 <mbed::InterruptIn::InterruptIn(PinName)>:
    1ec8:	e92d 41ff 	stmdb	sp!, {r0, r1, r2, r3, r4, r5, r6, r7, r8, lr}
    1ecc:	4605      	mov	r5, r0
    1ece:	4b1c      	ldr	r3, [pc, #112]	; (1f40 <mbed::InterruptIn::InterruptIn(PinName)+0x78>)
    1ed0:	4604      	mov	r4, r0
    1ed2:	f845 3b04 	str.w	r3, [r5], #4
    1ed6:	2218      	movs	r2, #24
    1ed8:	460e      	mov	r6, r1
    1eda:	4628      	mov	r0, r5
    1edc:	2100      	movs	r1, #0
    1ede:	f001 fdf0 	bl	3ac2 <memset>
    1ee2:	2300      	movs	r3, #0
    1ee4:	f8df 8064 	ldr.w	r8, [pc, #100]	; 1f4c <mbed::InterruptIn::InterruptIn(PinName)+0x84>
    1ee8:	4f16      	ldr	r7, [pc, #88]	; (1f44 <mbed::InterruptIn::InterruptIn(PinName)+0x7c>)
    1eea:	61e3      	str	r3, [r4, #28]
    1eec:	6223      	str	r3, [r4, #32]
    1eee:	6263      	str	r3, [r4, #36]	; 0x24
    1ef0:	6363      	str	r3, [r4, #52]	; 0x34
    1ef2:	6463      	str	r3, [r4, #68]	; 0x44
    1ef4:	4669      	mov	r1, sp
    1ef6:	f104 0028 	add.w	r0, r4, #40	; 0x28
    1efa:	f8cd 8000 	str.w	r8, [sp]
    1efe:	9703      	str	r7, [sp, #12]
    1f00:	f7ff ff2f 	bl	1d62 <mbed::Callback<void ()>::operator=(mbed::Callback<void ()> const&)>
    1f04:	4668      	mov	r0, sp
    1f06:	f7fe fb56 	bl	5b6 <mbed::Callback<void ()>::~Callback()>
    1f0a:	4669      	mov	r1, sp
    1f0c:	f104 0038 	add.w	r0, r4, #56	; 0x38
    1f10:	f8cd 8000 	str.w	r8, [sp]
    1f14:	9703      	str	r7, [sp, #12]
    1f16:	f7ff ff24 	bl	1d62 <mbed::Callback<void ()>::operator=(mbed::Callback<void ()> const&)>
    1f1a:	4668      	mov	r0, sp
    1f1c:	f7fe fb4b 	bl	5b6 <mbed::Callback<void ()>::~Callback()>
    1f20:	4623      	mov	r3, r4
    1f22:	4a09      	ldr	r2, [pc, #36]	; (1f48 <mbed::InterruptIn::InterruptIn(PinName)+0x80>)
    1f24:	4631      	mov	r1, r6
    1f26:	f104 001c 	add.w	r0, r4, #28
    1f2a:	f7fe fecd 	bl	cc8 <gpio_irq_init>
    1f2e:	4628      	mov	r0, r5
    1f30:	4631      	mov	r1, r6
    1f32:	f7fe fd18 	bl	966 <gpio_init_in>
    1f36:	4620      	mov	r0, r4
    1f38:	b004      	add	sp, #16
    1f3a:	e8bd 81f0 	ldmia.w	sp!, {r4, r5, r6, r7, r8, pc}
    1f3e:	bf00      	nop
    1f40:	00007248 	.word	0x00007248
    1f44:	00006e58 	.word	0x00006e58
    1f48:	00001fa3 	.word	0x00001fa3
    1f4c:	00001e79 	.word	0x00001e79

00001f50 <mbed::InterruptIn::rise(mbed::Callback<void ()>)>:
    1f50:	b57f      	push	{r0, r1, r2, r3, r4, r5, r6, lr}
    1f52:	460e      	mov	r6, r1
    1f54:	4604      	mov	r4, r0
    1f56:	f7fe fdb7 	bl	ac8 <core_util_critical_section_enter>
    1f5a:	68f5      	ldr	r5, [r6, #12]
    1f5c:	f104 0028 	add.w	r0, r4, #40	; 0x28
    1f60:	341c      	adds	r4, #28
    1f62:	b15d      	cbz	r5, 1f7c <mbed::InterruptIn::rise(mbed::Callback<void ()>)+0x2c>
    1f64:	4631      	mov	r1, r6
    1f66:	f7ff fefc 	bl	1d62 <mbed::Callback<void ()>::operator=(mbed::Callback<void ()> const&)>
    1f6a:	2201      	movs	r2, #1
    1f6c:	2101      	movs	r1, #1
    1f6e:	4620      	mov	r0, r4
    1f70:	f7fe fee8 	bl	d44 <gpio_irq_set>
    1f74:	f7fe fdbe 	bl	af4 <core_util_critical_section_exit>
    1f78:	b004      	add	sp, #16
    1f7a:	bd70      	pop	{r4, r5, r6, pc}
    1f7c:	4b05      	ldr	r3, [pc, #20]	; (1f94 <mbed::InterruptIn::rise(mbed::Callback<void ()>)+0x44>)
    1f7e:	4669      	mov	r1, sp
    1f80:	9300      	str	r3, [sp, #0]
    1f82:	4b05      	ldr	r3, [pc, #20]	; (1f98 <mbed::InterruptIn::rise(mbed::Callback<void ()>)+0x48>)
    1f84:	9303      	str	r3, [sp, #12]
    1f86:	f7ff feec 	bl	1d62 <mbed::Callback<void ()>::operator=(mbed::Callback<void ()> const&)>
    1f8a:	4668      	mov	r0, sp
    1f8c:	f7fe fb13 	bl	5b6 <mbed::Callback<void ()>::~Callback()>
    1f90:	462a      	mov	r2, r5
    1f92:	e7eb      	b.n	1f6c <mbed::InterruptIn::rise(mbed::Callback<void ()>)+0x1c>
    1f94:	00001e79 	.word	0x00001e79
    1f98:	00006e58 	.word	0x00006e58

00001f9c <mbed::Callback<void ()>::call() const>:
    1f9c:	68c3      	ldr	r3, [r0, #12]
    1f9e:	681b      	ldr	r3, [r3, #0]
    1fa0:	4718      	bx	r3

00001fa2 <mbed::InterruptIn::_irq_handler(unsigned long, gpio_irq_event)>:
    1fa2:	2901      	cmp	r1, #1
    1fa4:	b508      	push	{r3, lr}
    1fa6:	d002      	beq.n	1fae <mbed::InterruptIn::_irq_handler(unsigned long, gpio_irq_event)+0xc>
    1fa8:	2902      	cmp	r1, #2
    1faa:	d004      	beq.n	1fb6 <mbed::InterruptIn::_irq_handler(unsigned long, gpio_irq_event)+0x14>
    1fac:	bd08      	pop	{r3, pc}
    1fae:	3028      	adds	r0, #40	; 0x28
    1fb0:	f7ff fff4 	bl	1f9c <mbed::Callback<void ()>::call() const>
    1fb4:	bd08      	pop	{r3, pc}
    1fb6:	3038      	adds	r0, #56	; 0x38
    1fb8:	e7fa      	b.n	1fb0 <mbed::InterruptIn::_irq_handler(unsigned long, gpio_irq_event)+0xe>

00001fba <mbed::donothing()>:
    1fba:	4770      	bx	lr

00001fbc <mbed::SerialBase::lock()>:
    1fbc:	4770      	bx	lr

00001fbe <mbed::SerialBase::unlock()>:
    1fbe:	4770      	bx	lr

00001fc0 <mbed::SerialBase::_irq_handler(unsigned long, SerialIrq)>:
    1fc0:	eb00 1201 	add.w	r2, r0, r1, lsl #4
    1fc4:	6993      	ldr	r3, [r2, #24]
    1fc6:	f102 000c 	add.w	r0, r2, #12
    1fca:	681b      	ldr	r3, [r3, #0]
    1fcc:	4718      	bx	r3

00001fce <mbed::SerialBase::_base_getc()>:
    1fce:	3004      	adds	r0, #4
    1fd0:	f7ff b8ee 	b.w	11b0 <serial_getc>

00001fd4 <mbed::SerialBase::_base_putc(int)>:
    1fd4:	b510      	push	{r4, lr}
    1fd6:	460c      	mov	r4, r1
    1fd8:	3004      	adds	r0, #4
    1fda:	f7ff f929 	bl	1230 <serial_putc>
    1fde:	4620      	mov	r0, r4
    1fe0:	bd10      	pop	{r4, pc}
	...

00001fe4 <mbed::SerialBase::SerialBase(PinName, PinName, int)>:
    1fe4:	e92d 41ff 	stmdb	sp!, {r0, r1, r2, r3, r4, r5, r6, r7, r8, lr}
    1fe8:	460f      	mov	r7, r1
    1fea:	2100      	movs	r1, #0
    1fec:	4604      	mov	r4, r0
    1fee:	4690      	mov	r8, r2
    1ff0:	4a17      	ldr	r2, [pc, #92]	; (2050 <mbed::SerialBase::SerialBase(PinName, PinName, int)+0x6c>)
    1ff2:	4e18      	ldr	r6, [pc, #96]	; (2054 <mbed::SerialBase::SerialBase(PinName, PinName, int)+0x70>)
    1ff4:	4d18      	ldr	r5, [pc, #96]	; (2058 <mbed::SerialBase::SerialBase(PinName, PinName, int)+0x74>)
    1ff6:	62c3      	str	r3, [r0, #44]	; 0x2c
    1ff8:	6002      	str	r2, [r0, #0]
    1ffa:	6041      	str	r1, [r0, #4]
    1ffc:	6081      	str	r1, [r0, #8]
    1ffe:	6181      	str	r1, [r0, #24]
    2000:	6281      	str	r1, [r0, #40]	; 0x28
    2002:	4669      	mov	r1, sp
    2004:	300c      	adds	r0, #12
    2006:	9503      	str	r5, [sp, #12]
    2008:	9600      	str	r6, [sp, #0]
    200a:	f7ff feaa 	bl	1d62 <mbed::Callback<void ()>::operator=(mbed::Callback<void ()> const&)>
    200e:	4668      	mov	r0, sp
    2010:	f7fe fad1 	bl	5b6 <mbed::Callback<void ()>::~Callback()>
    2014:	4669      	mov	r1, sp
    2016:	f104 001c 	add.w	r0, r4, #28
    201a:	9503      	str	r5, [sp, #12]
    201c:	9600      	str	r6, [sp, #0]
    201e:	1d25      	adds	r5, r4, #4
    2020:	f7ff fe9f 	bl	1d62 <mbed::Callback<void ()>::operator=(mbed::Callback<void ()> const&)>
    2024:	4668      	mov	r0, sp
    2026:	f7fe fac6 	bl	5b6 <mbed::Callback<void ()>::~Callback()>
    202a:	4642      	mov	r2, r8
    202c:	4639      	mov	r1, r7
    202e:	4628      	mov	r0, r5
    2030:	f7ff f99a 	bl	1368 <serial_init>
    2034:	6ae1      	ldr	r1, [r4, #44]	; 0x2c
    2036:	4628      	mov	r0, r5
    2038:	f7fe ffda 	bl	ff0 <serial_baud>
    203c:	4628      	mov	r0, r5
    203e:	4622      	mov	r2, r4
    2040:	4906      	ldr	r1, [pc, #24]	; (205c <mbed::SerialBase::SerialBase(PinName, PinName, int)+0x78>)
    2042:	f7ff f8a9 	bl	1198 <serial_irq_handler>
    2046:	4620      	mov	r0, r4
    2048:	b004      	add	sp, #16
    204a:	e8bd 81f0 	ldmia.w	sp!, {r4, r5, r6, r7, r8, pc}
    204e:	bf00      	nop
    2050:	00007258 	.word	0x00007258
    2054:	00001fbb 	.word	0x00001fbb
    2058:	00006e58 	.word	0x00006e58
    205c:	00001fc1 	.word	0x00001fc1

00002060 <mbed::File::close()>:
    2060:	b510      	push	{r4, lr}
    2062:	4604      	mov	r4, r0
    2064:	6900      	ldr	r0, [r0, #16]
    2066:	b130      	cbz	r0, 2076 <mbed::File::close()+0x16>
    2068:	6803      	ldr	r3, [r0, #0]
    206a:	6961      	ldr	r1, [r4, #20]
    206c:	6a5b      	ldr	r3, [r3, #36]	; 0x24
    206e:	4798      	blx	r3
    2070:	2300      	movs	r3, #0
    2072:	6123      	str	r3, [r4, #16]
    2074:	bd10      	pop	{r4, pc}
    2076:	f06f 0015 	mvn.w	r0, #21
    207a:	bd10      	pop	{r4, pc}

0000207c <mbed::File::read(void*, unsigned int)>:
    207c:	b430      	push	{r4, r5}
    207e:	4604      	mov	r4, r0
    2080:	6900      	ldr	r0, [r0, #16]
    2082:	6803      	ldr	r3, [r0, #0]
    2084:	6a9d      	ldr	r5, [r3, #40]	; 0x28
    2086:	4613      	mov	r3, r2
    2088:	46ac      	mov	r12, r5
    208a:	460a      	mov	r2, r1
    208c:	6961      	ldr	r1, [r4, #20]
    208e:	bc30      	pop	{r4, r5}
    2090:	4760      	bx	r12

00002092 <mbed::File::write(void const*, unsigned int)>:
    2092:	b430      	push	{r4, r5}
    2094:	4604      	mov	r4, r0
    2096:	6900      	ldr	r0, [r0, #16]
    2098:	6803      	ldr	r3, [r0, #0]
    209a:	6add      	ldr	r5, [r3, #44]	; 0x2c
    209c:	4613      	mov	r3, r2
    209e:	46ac      	mov	r12, r5
    20a0:	460a      	mov	r2, r1
    20a2:	6961      	ldr	r1, [r4, #20]
    20a4:	bc30      	pop	{r4, r5}
    20a6:	4760      	bx	r12

000020a8 <mbed::File::sync()>:
    20a8:	6903      	ldr	r3, [r0, #16]
    20aa:	6941      	ldr	r1, [r0, #20]
    20ac:	681a      	ldr	r2, [r3, #0]
    20ae:	4618      	mov	r0, r3
    20b0:	6b12      	ldr	r2, [r2, #48]	; 0x30
    20b2:	4710      	bx	r2

000020b4 <mbed::File::isatty()>:
    20b4:	6903      	ldr	r3, [r0, #16]
    20b6:	6941      	ldr	r1, [r0, #20]
    20b8:	681a      	ldr	r2, [r3, #0]
    20ba:	4618      	mov	r0, r3
    20bc:	6b52      	ldr	r2, [r2, #52]	; 0x34
    20be:	4710      	bx	r2

000020c0 <mbed::File::seek(long, int)>:
    20c0:	b430      	push	{r4, r5}
    20c2:	4604      	mov	r4, r0
    20c4:	6900      	ldr	r0, [r0, #16]
    20c6:	6803      	ldr	r3, [r0, #0]
    20c8:	6b9d      	ldr	r5, [r3, #56]	; 0x38
    20ca:	4613      	mov	r3, r2
    20cc:	46ac      	mov	r12, r5
    20ce:	460a      	mov	r2, r1
    20d0:	6961      	ldr	r1, [r4, #20]
    20d2:	bc30      	pop	{r4, r5}
    20d4:	4760      	bx	r12

000020d6 <mbed::File::tell()>:
    20d6:	6903      	ldr	r3, [r0, #16]
    20d8:	6941      	ldr	r1, [r0, #20]
    20da:	681a      	ldr	r2, [r3, #0]
    20dc:	4618      	mov	r0, r3
    20de:	6bd2      	ldr	r2, [r2, #60]	; 0x3c
    20e0:	4710      	bx	r2

000020e2 <mbed::File::rewind()>:
    20e2:	6903      	ldr	r3, [r0, #16]
    20e4:	6941      	ldr	r1, [r0, #20]
    20e6:	681a      	ldr	r2, [r3, #0]
    20e8:	4618      	mov	r0, r3
    20ea:	6c12      	ldr	r2, [r2, #64]	; 0x40
    20ec:	4710      	bx	r2

000020ee <mbed::File::size()>:
    20ee:	6903      	ldr	r3, [r0, #16]
    20f0:	6941      	ldr	r1, [r0, #20]
    20f2:	681a      	ldr	r2, [r3, #0]
    20f4:	4618      	mov	r0, r3
    20f6:	6c52      	ldr	r2, [r2, #68]	; 0x44
    20f8:	4710      	bx	r2

000020fa <mbed::File::open(mbed::FileSystem*, char const*, int)>:
    20fa:	b570      	push	{r4, r5, r6, lr}
    20fc:	460d      	mov	r5, r1
    20fe:	6901      	ldr	r1, [r0, #16]
    2100:	4604      	mov	r4, r0
    2102:	b941      	cbnz	r1, 2116 <mbed::File::open(mbed::FileSystem*, char const*, int)+0x1c>
    2104:	6829      	ldr	r1, [r5, #0]
    2106:	6a0e      	ldr	r6, [r1, #32]
    2108:	f100 0114 	add.w	r1, r0, #20
    210c:	4628      	mov	r0, r5
    210e:	47b0      	blx	r6
    2110:	b918      	cbnz	r0, 211a <mbed::File::open(mbed::FileSystem*, char const*, int)+0x20>
    2112:	6125      	str	r5, [r4, #16]
    2114:	bd70      	pop	{r4, r5, r6, pc}
    2116:	f06f 0015 	mvn.w	r0, #21
    211a:	bd70      	pop	{r4, r5, r6, pc}

0000211c <mbed::File::~File()>:
    211c:	4b07      	ldr	r3, [pc, #28]	; (213c <mbed::File::~File()+0x20>)
    211e:	b510      	push	{r4, lr}
    2120:	6003      	str	r3, [r0, #0]
    2122:	6903      	ldr	r3, [r0, #16]
    2124:	4604      	mov	r4, r0
    2126:	b10b      	cbz	r3, 212c <mbed::File::~File()+0x10>
    2128:	f7ff ff9a 	bl	2060 <mbed::File::close()>
    212c:	4b04      	ldr	r3, [pc, #16]	; (2140 <mbed::File::~File()+0x24>)
    212e:	4620      	mov	r0, r4
    2130:	6023      	str	r3, [r4, #0]
    2132:	f7ff fe4f 	bl	1dd4 <mbed::FileBase::~FileBase()>
    2136:	4620      	mov	r0, r4
    2138:	bd10      	pop	{r4, pc}
    213a:	bf00      	nop
    213c:	00007270 	.word	0x00007270
    2140:	00007198 	.word	0x00007198

00002144 <mbed::File::~File()>:
    2144:	b510      	push	{r4, lr}
    2146:	4604      	mov	r4, r0
    2148:	f7ff ffe8 	bl	211c <mbed::File::~File()>
    214c:	4620      	mov	r0, r4
    214e:	f000 f986 	bl	245e <operator delete(void*)>
    2152:	4620      	mov	r0, r4
    2154:	bd10      	pop	{r4, pc}
	...

00002158 <mbed::File::File()>:
    2158:	2200      	movs	r2, #0
    215a:	b510      	push	{r4, lr}
    215c:	4604      	mov	r4, r0
    215e:	4611      	mov	r1, r2
    2160:	f7ff fe1a 	bl	1d98 <mbed::FileBase::FileBase(char const*, mbed::PathType)>
    2164:	4b03      	ldr	r3, [pc, #12]	; (2174 <mbed::File::File()+0x1c>)
    2166:	4620      	mov	r0, r4
    2168:	6023      	str	r3, [r4, #0]
    216a:	2300      	movs	r3, #0
    216c:	6123      	str	r3, [r4, #16]
    216e:	6163      	str	r3, [r4, #20]
    2170:	bd10      	pop	{r4, pc}
    2172:	bf00      	nop
    2174:	00007270 	.word	0x00007270

00002178 <__wrap__malloc_r>:
    2178:	f001 bd06 	b.w	3b88 <_malloc_r>

0000217c <__wrap__realloc_r>:
    217c:	f001 bd62 	b.w	3c44 <_realloc_r>

00002180 <__wrap__free_r>:
    2180:	f001 bcb6 	b.w	3af0 <_free_r>

00002184 <__wrap__calloc_r>:
    2184:	f001 bca5 	b.w	3ad2 <_calloc_r>

00002188 <ManagedFile::~ManagedFile()>:
    2188:	4b03      	ldr	r3, [pc, #12]	; (2198 <ManagedFile::~ManagedFile()+0x10>)
    218a:	b510      	push	{r4, lr}
    218c:	6003      	str	r3, [r0, #0]
    218e:	4604      	mov	r4, r0
    2190:	f7ff ffc4 	bl	211c <mbed::File::~File()>
    2194:	4620      	mov	r0, r4
    2196:	bd10      	pop	{r4, pc}
    2198:	000072bc 	.word	0x000072bc

0000219c <init_serial()>:
    219c:	b508      	push	{r3, lr}
    219e:	4b08      	ldr	r3, [pc, #32]	; (21c0 <init_serial()+0x24>)
    21a0:	681b      	ldr	r3, [r3, #0]
    21a2:	b95b      	cbnz	r3, 21bc <init_serial()+0x20>
    21a4:	4907      	ldr	r1, [pc, #28]	; (21c4 <init_serial()+0x28>)
    21a6:	4808      	ldr	r0, [pc, #32]	; (21c8 <init_serial()+0x2c>)
    21a8:	4a08      	ldr	r2, [pc, #32]	; (21cc <init_serial()+0x30>)
    21aa:	f7ff f8dd 	bl	1368 <serial_init>
    21ae:	f44f 5116 	mov.w	r1, #9600	; 0x2580
    21b2:	e8bd 4008 	ldmia.w	sp!, {r3, lr}
    21b6:	4804      	ldr	r0, [pc, #16]	; (21c8 <init_serial()+0x2c>)
    21b8:	f7fe bf1a 	b.w	ff0 <serial_baud>
    21bc:	bd08      	pop	{r3, pc}
    21be:	bf00      	nop
    21c0:	100005a4 	.word	0x100005a4
    21c4:	2009c002 	.word	0x2009c002
    21c8:	100007bc 	.word	0x100007bc
    21cc:	2009c003 	.word	0x2009c003

000021d0 <mbed_sdk_init>:
    21d0:	4770      	bx	lr
	...

000021d4 <_close>:
    21d4:	2802      	cmp	r0, #2
    21d6:	b510      	push	{r4, lr}
    21d8:	4604      	mov	r4, r0
    21da:	dc01      	bgt.n	21e0 <_close+0xc>
    21dc:	2000      	movs	r0, #0
    21de:	bd10      	pop	{r4, pc}
    21e0:	f001 f8f4 	bl	33cc <__errno>
    21e4:	2309      	movs	r3, #9
    21e6:	2200      	movs	r2, #0
    21e8:	6003      	str	r3, [r0, #0]
    21ea:	4b09      	ldr	r3, [pc, #36]	; (2210 <_close+0x3c>)
    21ec:	3c03      	subs	r4, #3
    21ee:	f853 0024 	ldr.w	r0, [r3, r4, lsl #2]
    21f2:	f843 2024 	str.w	r2, [r3, r4, lsl #2]
    21f6:	b140      	cbz	r0, 220a <_close+0x36>
    21f8:	6803      	ldr	r3, [r0, #0]
    21fa:	691b      	ldr	r3, [r3, #16]
    21fc:	4798      	blx	r3
    21fe:	1e04      	subs	r4, r0, #0
    2200:	daec      	bge.n	21dc <_close+0x8>
    2202:	f001 f8e3 	bl	33cc <__errno>
    2206:	4264      	negs	r4, r4
    2208:	6004      	str	r4, [r0, #0]
    220a:	f04f 30ff 	mov.w	r0, #4294967295	; 0xffffffff
    220e:	bd10      	pop	{r4, pc}
    2210:	100006a4 	.word	0x100006a4

00002214 <_write>:
    2214:	b5f8      	push	{r3, r4, r5, r6, r7, lr}
    2216:	4605      	mov	r5, r0
    2218:	460e      	mov	r6, r1
    221a:	4614      	mov	r4, r2
    221c:	f001 f8d6 	bl	33cc <__errno>
    2220:	2309      	movs	r3, #9
    2222:	2d02      	cmp	r5, #2
    2224:	6003      	str	r3, [r0, #0]
    2226:	dc0f      	bgt.n	2248 <_write+0x34>
    2228:	4b12      	ldr	r3, [pc, #72]	; (2274 <_write+0x60>)
    222a:	681b      	ldr	r3, [r3, #0]
    222c:	b90b      	cbnz	r3, 2232 <_write+0x1e>
    222e:	f7ff ffb5 	bl	219c <init_serial()>
    2232:	4635      	mov	r5, r6
    2234:	1937      	adds	r7, r6, r4
    2236:	4e10      	ldr	r6, [pc, #64]	; (2278 <_write+0x64>)
    2238:	42bd      	cmp	r5, r7
    223a:	d015      	beq.n	2268 <_write+0x54>
    223c:	f815 1b01 	ldrb.w	r1, [r5], #1
    2240:	4630      	mov	r0, r6
    2242:	f7fe fff5 	bl	1230 <serial_putc>
    2246:	e7f7      	b.n	2238 <_write+0x24>
    2248:	4b0c      	ldr	r3, [pc, #48]	; (227c <_write+0x68>)
    224a:	3d03      	subs	r5, #3
    224c:	f853 0025 	ldr.w	r0, [r3, r5, lsl #2]
    2250:	b160      	cbz	r0, 226c <_write+0x58>
    2252:	6803      	ldr	r3, [r0, #0]
    2254:	4622      	mov	r2, r4
    2256:	68db      	ldr	r3, [r3, #12]
    2258:	4631      	mov	r1, r6
    225a:	4798      	blx	r3
    225c:	1e04      	subs	r4, r0, #0
    225e:	da03      	bge.n	2268 <_write+0x54>
    2260:	f001 f8b4 	bl	33cc <__errno>
    2264:	4263      	negs	r3, r4
    2266:	6003      	str	r3, [r0, #0]
    2268:	4620      	mov	r0, r4
    226a:	bdf8      	pop	{r3, r4, r5, r6, r7, pc}
    226c:	f04f 34ff 	mov.w	r4, #4294967295	; 0xffffffff
    2270:	e7fa      	b.n	2268 <_write+0x54>
    2272:	bf00      	nop
    2274:	100005a4 	.word	0x100005a4
    2278:	100007bc 	.word	0x100007bc
    227c:	100006a4 	.word	0x100006a4

00002280 <_read>:
    2280:	b570      	push	{r4, r5, r6, lr}
    2282:	4604      	mov	r4, r0
    2284:	460d      	mov	r5, r1
    2286:	4616      	mov	r6, r2
    2288:	f001 f8a0 	bl	33cc <__errno>
    228c:	2309      	movs	r3, #9
    228e:	2c02      	cmp	r4, #2
    2290:	6003      	str	r3, [r0, #0]
    2292:	dc0b      	bgt.n	22ac <_read+0x2c>
    2294:	4b0f      	ldr	r3, [pc, #60]	; (22d4 <_read+0x54>)
    2296:	681b      	ldr	r3, [r3, #0]
    2298:	b90b      	cbnz	r3, 229e <_read+0x1e>
    229a:	f7ff ff7f 	bl	219c <init_serial()>
    229e:	480e      	ldr	r0, [pc, #56]	; (22d8 <_read+0x58>)
    22a0:	f7fe ff86 	bl	11b0 <serial_getc>
    22a4:	2401      	movs	r4, #1
    22a6:	7028      	strb	r0, [r5, #0]
    22a8:	4620      	mov	r0, r4
    22aa:	bd70      	pop	{r4, r5, r6, pc}
    22ac:	4b0b      	ldr	r3, [pc, #44]	; (22dc <_read+0x5c>)
    22ae:	3c03      	subs	r4, #3
    22b0:	f853 0024 	ldr.w	r0, [r3, r4, lsl #2]
    22b4:	b158      	cbz	r0, 22ce <_read+0x4e>
    22b6:	6803      	ldr	r3, [r0, #0]
    22b8:	4632      	mov	r2, r6
    22ba:	689b      	ldr	r3, [r3, #8]
    22bc:	4629      	mov	r1, r5
    22be:	4798      	blx	r3
    22c0:	1e04      	subs	r4, r0, #0
    22c2:	daf1      	bge.n	22a8 <_read+0x28>
    22c4:	f001 f882 	bl	33cc <__errno>
    22c8:	4263      	negs	r3, r4
    22ca:	6003      	str	r3, [r0, #0]
    22cc:	e7ec      	b.n	22a8 <_read+0x28>
    22ce:	f04f 34ff 	mov.w	r4, #4294967295	; 0xffffffff
    22d2:	e7e9      	b.n	22a8 <_read+0x28>
    22d4:	100005a4 	.word	0x100005a4
    22d8:	100007bc 	.word	0x100007bc
    22dc:	100006a4 	.word	0x100006a4

000022e0 <_isatty>:
    22e0:	b510      	push	{r4, lr}
    22e2:	4604      	mov	r4, r0
    22e4:	f001 f872 	bl	33cc <__errno>
    22e8:	2309      	movs	r3, #9
    22ea:	2c02      	cmp	r4, #2
    22ec:	6003      	str	r3, [r0, #0]
    22ee:	dd10      	ble.n	2312 <_isatty+0x32>
    22f0:	4b0a      	ldr	r3, [pc, #40]	; (231c <_isatty+0x3c>)
    22f2:	3c03      	subs	r4, #3
    22f4:	f853 0024 	ldr.w	r0, [r3, r4, lsl #2]
    22f8:	b140      	cbz	r0, 230c <_isatty+0x2c>
    22fa:	6803      	ldr	r3, [r0, #0]
    22fc:	699b      	ldr	r3, [r3, #24]
    22fe:	4798      	blx	r3
    2300:	1e04      	subs	r4, r0, #0
    2302:	da08      	bge.n	2316 <_isatty+0x36>
    2304:	f001 f862 	bl	33cc <__errno>
    2308:	4264      	negs	r4, r4
    230a:	6004      	str	r4, [r0, #0]
    230c:	f04f 30ff 	mov.w	r0, #4294967295	; 0xffffffff
    2310:	bd10      	pop	{r4, pc}
    2312:	2001      	movs	r0, #1
    2314:	bd10      	pop	{r4, pc}
    2316:	2000      	movs	r0, #0
    2318:	bd10      	pop	{r4, pc}
    231a:	bf00      	nop
    231c:	100006a4 	.word	0x100006a4

00002320 <_lseek>:
    2320:	b570      	push	{r4, r5, r6, lr}
    2322:	4604      	mov	r4, r0
    2324:	460d      	mov	r5, r1
    2326:	4616      	mov	r6, r2
    2328:	f001 f850 	bl	33cc <__errno>
    232c:	2309      	movs	r3, #9
    232e:	2c02      	cmp	r4, #2
    2330:	6003      	str	r3, [r0, #0]
    2332:	dd0b      	ble.n	234c <_lseek+0x2c>
    2334:	4b08      	ldr	r3, [pc, #32]	; (2358 <_lseek+0x38>)
    2336:	3c03      	subs	r4, #3
    2338:	f853 0024 	ldr.w	r0, [r3, r4, lsl #2]
    233c:	b140      	cbz	r0, 2350 <_lseek+0x30>
    233e:	6803      	ldr	r3, [r0, #0]
    2340:	4632      	mov	r2, r6
    2342:	4629      	mov	r1, r5
    2344:	e8bd 4070 	ldmia.w	sp!, {r4, r5, r6, lr}
    2348:	69db      	ldr	r3, [r3, #28]
    234a:	4718      	bx	r3
    234c:	2000      	movs	r0, #0
    234e:	bd70      	pop	{r4, r5, r6, pc}
    2350:	f04f 30ff 	mov.w	r0, #4294967295	; 0xffffffff
    2354:	bd70      	pop	{r4, r5, r6, pc}
    2356:	bf00      	nop
    2358:	100006a4 	.word	0x100006a4

0000235c <_fstat>:
    235c:	2802      	cmp	r0, #2
    235e:	b508      	push	{r3, lr}
    2360:	dc04      	bgt.n	236c <_fstat+0x10>
    2362:	f44f 5300 	mov.w	r3, #8192	; 0x2000
    2366:	2000      	movs	r0, #0
    2368:	604b      	str	r3, [r1, #4]
    236a:	bd08      	pop	{r3, pc}
    236c:	f001 f82e 	bl	33cc <__errno>
    2370:	2309      	movs	r3, #9
    2372:	6003      	str	r3, [r0, #0]
    2374:	f04f 30ff 	mov.w	r0, #4294967295	; 0xffffffff
    2378:	bd08      	pop	{r3, pc}

0000237a <software_init_hook_rtos>:
    237a:	4770      	bx	lr

0000237c <software_init_hook>:
    237c:	b508      	push	{r3, lr}
    237e:	f7ff ff27 	bl	21d0 <mbed_sdk_init>
    2382:	f7ff fffa 	bl	237a <software_init_hook_rtos>
    2386:	bd08      	pop	{r3, pc}

00002388 <mbed_main>:
    2388:	4770      	bx	lr

0000238a <__wrap_main>:
    238a:	b508      	push	{r3, lr}
    238c:	f7ff fffc 	bl	2388 <mbed_main>
    2390:	e8bd 4008 	ldmia.w	sp!, {r3, lr}
    2394:	f7fe b94c 	b.w	630 <main>

00002398 <_sbrk>:
    2398:	4a0c      	ldr	r2, [pc, #48]	; (23cc <_sbrk+0x34>)
    239a:	b510      	push	{r4, lr}
    239c:	6813      	ldr	r3, [r2, #0]
    239e:	4418      	add	r0, r3
    23a0:	f3ef 8108 	mrs	r1, MSP
    23a4:	4288      	cmp	r0, r1
    23a6:	d305      	bcc.n	23b4 <_sbrk+0x1c>
    23a8:	220c      	movs	r2, #12
    23aa:	4b09      	ldr	r3, [pc, #36]	; (23d0 <_sbrk+0x38>)
    23ac:	f04f 30ff 	mov.w	r0, #4294967295	; 0xffffffff
    23b0:	601a      	str	r2, [r3, #0]
    23b2:	bd10      	pop	{r4, pc}
    23b4:	4907      	ldr	r1, [pc, #28]	; (23d4 <_sbrk+0x3c>)
    23b6:	680c      	ldr	r4, [r1, #0]
    23b8:	b124      	cbz	r4, 23c4 <_sbrk+0x2c>
    23ba:	4907      	ldr	r1, [pc, #28]	; (23d8 <_sbrk+0x40>)
    23bc:	6809      	ldr	r1, [r1, #0]
    23be:	4421      	add	r1, r4
    23c0:	4288      	cmp	r0, r1
    23c2:	d2f1      	bcs.n	23a8 <_sbrk+0x10>
    23c4:	6010      	str	r0, [r2, #0]
    23c6:	4618      	mov	r0, r3
    23c8:	bd10      	pop	{r4, pc}
    23ca:	bf00      	nop
    23cc:	100000d0 	.word	0x100000d0
    23d0:	100007c4 	.word	0x100007c4
    23d4:	100007ac 	.word	0x100007ac
    23d8:	100007b0 	.word	0x100007b0

000023dc <_exit>:
    23dc:	4c09      	ldr	r4, [pc, #36]	; (2404 <_exit+0x28>)
    23de:	b508      	push	{r3, lr}
    23e0:	6823      	ldr	r3, [r4, #0]
    23e2:	4605      	mov	r5, r0
    23e4:	6898      	ldr	r0, [r3, #8]
    23e6:	f001 f903 	bl	35f0 <fflush>
    23ea:	6823      	ldr	r3, [r4, #0]
    23ec:	68d8      	ldr	r0, [r3, #12]
    23ee:	f001 f8ff 	bl	35f0 <fflush>
    23f2:	f7fe fb60 	bl	ab6 <mbed_interface_connected>
    23f6:	b108      	cbz	r0, 23fc <_exit+0x20>
    23f8:	f7fe fb90 	bl	b1c <semihost_exit>
    23fc:	b10d      	cbz	r5, 2402 <_exit+0x26>
    23fe:	f7fe fba7 	bl	b50 <mbed_die>
    2402:	e7fe      	b.n	2402 <_exit+0x26>
    2404:	100000d4 	.word	0x100000d4

00002408 <__aeabi_atexit>:
    2408:	2001      	movs	r0, #1
    240a:	4770      	bx	lr

0000240c <__wrap_exit>:
    240c:	b508      	push	{r3, lr}
    240e:	f7ff ffe5 	bl	23dc <_exit>

00002412 <mbed::mbed_set_unbuffered_stream(__sFILE*)>:
    2412:	2100      	movs	r1, #0
    2414:	f002 bb91 	b.w	4b3a <setbuf>

00002418 <__rtos_malloc_lock>:
    2418:	4770      	bx	lr

0000241a <__rtos_malloc_unlock>:
    241a:	4770      	bx	lr

0000241c <__malloc_lock>:
    241c:	b508      	push	{r3, lr}
    241e:	f7ff fffb 	bl	2418 <__rtos_malloc_lock>
    2422:	bd08      	pop	{r3, pc}

00002424 <__malloc_unlock>:
    2424:	b508      	push	{r3, lr}
    2426:	f7ff fff8 	bl	241a <__rtos_malloc_unlock>
    242a:	bd08      	pop	{r3, pc}

0000242c <operator new(unsigned int)>:
    242c:	b510      	push	{r4, lr}
    242e:	f001 fb1f 	bl	3a70 <malloc>
    2432:	4604      	mov	r4, r0
    2434:	b910      	cbnz	r0, 243c <operator new(unsigned int)+0x10>
    2436:	4802      	ldr	r0, [pc, #8]	; (2440 <operator new(unsigned int)+0x14>)
    2438:	f7fe fb84 	bl	b44 <error>
    243c:	4620      	mov	r0, r4
    243e:	bd10      	pop	{r4, pc}
    2440:	00007300 	.word	0x00007300

00002444 <operator delete[](void*)>:
    2444:	b108      	cbz	r0, 244a <operator delete[](void*)+0x6>
    2446:	f001 bb1b 	b.w	3a80 <free>
    244a:	4770      	bx	lr

0000244c <ManagedFile::~ManagedFile()>:
    244c:	b510      	push	{r4, lr}
    244e:	4604      	mov	r4, r0
    2450:	f7ff fe9a 	bl	2188 <ManagedFile::~ManagedFile()>
    2454:	4620      	mov	r0, r4
    2456:	f7ff fff5 	bl	2444 <operator delete[](void*)>
    245a:	4620      	mov	r0, r4
    245c:	bd10      	pop	{r4, pc}

0000245e <operator delete(void*)>:
    245e:	f7ff bff1 	b.w	2444 <operator delete[](void*)>
	...

00002464 <mbed::remove_filehandle(mbed::FileLike*)>:
    2464:	b510      	push	{r4, lr}
    2466:	4604      	mov	r4, r0
    2468:	4809      	ldr	r0, [pc, #36]	; (2490 <mbed::remove_filehandle(mbed::FileLike*)+0x2c>)
    246a:	f7ff fc8e 	bl	1d8a <SingletonPtr<PlatformMutex>::get()>
    246e:	2300      	movs	r3, #0
    2470:	4619      	mov	r1, r3
    2472:	4a08      	ldr	r2, [pc, #32]	; (2494 <mbed::remove_filehandle(mbed::FileLike*)+0x30>)
    2474:	f852 0023 	ldr.w	r0, [r2, r3, lsl #2]
    2478:	42a0      	cmp	r0, r4
    247a:	bf08      	it	eq
    247c:	f842 1023 	streq.w	r1, [r2, r3, lsl #2]
    2480:	3301      	adds	r3, #1
    2482:	2b40      	cmp	r3, #64	; 0x40
    2484:	d1f6      	bne.n	2474 <mbed::remove_filehandle(mbed::FileLike*)+0x10>
    2486:	4802      	ldr	r0, [pc, #8]	; (2490 <mbed::remove_filehandle(mbed::FileLike*)+0x2c>)
    2488:	f7ff fc7f 	bl	1d8a <SingletonPtr<PlatformMutex>::get()>
    248c:	bd10      	pop	{r4, pc}
    248e:	bf00      	nop
    2490:	100007a4 	.word	0x100007a4
    2494:	100006a4 	.word	0x100006a4

00002498 <_open>:
    2498:	e92d 47f3 	stmdb	sp!, {r0, r1, r4, r5, r6, r7, r8, r9, r10, lr}
    249c:	4689      	mov	r9, r1
    249e:	494a      	ldr	r1, [pc, #296]	; (25c8 <_open+0x130>)
    24a0:	4606      	mov	r6, r0
    24a2:	f002 fc94 	bl	4dce <strcmp>
    24a6:	4604      	mov	r4, r0
    24a8:	b928      	cbnz	r0, 24b6 <_open+0x1e>
    24aa:	f7ff fe77 	bl	219c <init_serial()>
    24ae:	4620      	mov	r0, r4
    24b0:	b002      	add	sp, #8
    24b2:	e8bd 87f0 	ldmia.w	sp!, {r4, r5, r6, r7, r8, r9, r10, pc}
    24b6:	4945      	ldr	r1, [pc, #276]	; (25cc <_open+0x134>)
    24b8:	4630      	mov	r0, r6
    24ba:	f002 fc88 	bl	4dce <strcmp>
    24be:	b918      	cbnz	r0, 24c8 <_open+0x30>
    24c0:	f7ff fe6c 	bl	219c <init_serial()>
    24c4:	2401      	movs	r4, #1
    24c6:	e7f2      	b.n	24ae <_open+0x16>
    24c8:	4941      	ldr	r1, [pc, #260]	; (25d0 <_open+0x138>)
    24ca:	4630      	mov	r0, r6
    24cc:	f002 fc7f 	bl	4dce <strcmp>
    24d0:	b918      	cbnz	r0, 24da <_open+0x42>
    24d2:	f7ff fe63 	bl	219c <init_serial()>
    24d6:	2402      	movs	r4, #2
    24d8:	e7e9      	b.n	24ae <_open+0x16>
    24da:	f000 ff77 	bl	33cc <__errno>
    24de:	2309      	movs	r3, #9
    24e0:	4f3c      	ldr	r7, [pc, #240]	; (25d4 <_open+0x13c>)
    24e2:	6003      	str	r3, [r0, #0]
    24e4:	483c      	ldr	r0, [pc, #240]	; (25d8 <_open+0x140>)
    24e6:	f7ff fc50 	bl	1d8a <SingletonPtr<PlatformMutex>::get()>
    24ea:	2400      	movs	r4, #0
    24ec:	46b8      	mov	r8, r7
    24ee:	f857 5024 	ldr.w	r5, [r7, r4, lsl #2]
    24f2:	2d00      	cmp	r5, #0
    24f4:	d052      	beq.n	259c <_open+0x104>
    24f6:	3401      	adds	r4, #1
    24f8:	2c40      	cmp	r4, #64	; 0x40
    24fa:	d1f8      	bne.n	24ee <_open+0x56>
    24fc:	f000 ff66 	bl	33cc <__errno>
    2500:	2318      	movs	r3, #24
    2502:	6003      	str	r3, [r0, #0]
    2504:	4834      	ldr	r0, [pc, #208]	; (25d8 <_open+0x140>)
    2506:	f7ff fc40 	bl	1d8a <SingletonPtr<PlatformMutex>::get()>
    250a:	e00d      	b.n	2528 <_open+0x90>
    250c:	4631      	mov	r1, r6
    250e:	4668      	mov	r0, sp
    2510:	f7ff fb5a 	bl	1bc8 <mbed::FilePath::FilePath(char const*)>
    2514:	4668      	mov	r0, sp
    2516:	f7ff fb97 	bl	1c48 <mbed::FilePath::exists()>
    251a:	b940      	cbnz	r0, 252e <_open+0x96>
    251c:	f847 0024 	str.w	r0, [r7, r4, lsl #2]
    2520:	f000 ff54 	bl	33cc <__errno>
    2524:	2302      	movs	r3, #2
    2526:	6003      	str	r3, [r0, #0]
    2528:	f04f 34ff 	mov.w	r4, #4294967295	; 0xffffffff
    252c:	e7bf      	b.n	24ae <_open+0x16>
    252e:	4668      	mov	r0, sp
    2530:	f7ff fb7a 	bl	1c28 <mbed::FilePath::isFile()>
    2534:	b120      	cbz	r0, 2540 <_open+0xa8>
    2536:	4668      	mov	r0, sp
    2538:	f7ff fb7f 	bl	1c3a <mbed::FilePath::file()>
    253c:	4605      	mov	r5, r0
    253e:	e03d      	b.n	25bc <_open+0x124>
    2540:	4668      	mov	r0, sp
    2542:	f7ff fb6a 	bl	1c1a <mbed::FilePath::fileSystem()>
    2546:	4682      	mov	r10, r0
    2548:	b930      	cbnz	r0, 2558 <_open+0xc0>
    254a:	f000 ff3f 	bl	33cc <__errno>
    254e:	2302      	movs	r3, #2
    2550:	6003      	str	r3, [r0, #0]
    2552:	f847 a024 	str.w	r10, [r7, r4, lsl #2]
    2556:	e7e7      	b.n	2528 <_open+0x90>
    2558:	2018      	movs	r0, #24
    255a:	f7ff ff67 	bl	242c <operator new(unsigned int)>
    255e:	4606      	mov	r6, r0
    2560:	f7ff fdfa 	bl	2158 <mbed::File::File()>
    2564:	4b1d      	ldr	r3, [pc, #116]	; (25dc <_open+0x144>)
    2566:	4668      	mov	r0, sp
    2568:	6033      	str	r3, [r6, #0]
    256a:	f7ff fb4b 	bl	1c04 <mbed::FilePath::fileName()>
    256e:	f429 3380 	bic.w	r3, r9, #65536	; 0x10000
    2572:	4602      	mov	r2, r0
    2574:	4651      	mov	r1, r10
    2576:	4630      	mov	r0, r6
    2578:	f7ff fdbf 	bl	20fa <mbed::File::open(mbed::FileSystem*, char const*, int)>
    257c:	1e07      	subs	r7, r0, #0
    257e:	da0b      	bge.n	2598 <_open+0x100>
    2580:	f000 ff24 	bl	33cc <__errno>
    2584:	427f      	negs	r7, r7
    2586:	6007      	str	r7, [r0, #0]
    2588:	b11e      	cbz	r6, 2592 <_open+0xfa>
    258a:	6833      	ldr	r3, [r6, #0]
    258c:	4630      	mov	r0, r6
    258e:	685b      	ldr	r3, [r3, #4]
    2590:	4798      	blx	r3
    2592:	f848 5024 	str.w	r5, [r8, r4, lsl #2]
    2596:	e7c7      	b.n	2528 <_open+0x90>
    2598:	4635      	mov	r5, r6
    259a:	e00f      	b.n	25bc <_open+0x124>
    259c:	f04f 33ff 	mov.w	r3, #4294967295	; 0xffffffff
    25a0:	480d      	ldr	r0, [pc, #52]	; (25d8 <_open+0x140>)
    25a2:	f847 3024 	str.w	r3, [r7, r4, lsl #2]
    25a6:	f7ff fbf0 	bl	1d8a <SingletonPtr<PlatformMutex>::get()>
    25aa:	7833      	ldrb	r3, [r6, #0]
    25ac:	2b3a      	cmp	r3, #58	; 0x3a
    25ae:	d1ad      	bne.n	250c <_open+0x74>
    25b0:	466a      	mov	r2, sp
    25b2:	490b      	ldr	r1, [pc, #44]	; (25e0 <_open+0x148>)
    25b4:	4630      	mov	r0, r6
    25b6:	f002 fb9b 	bl	4cf0 <siscanf>
    25ba:	9d00      	ldr	r5, [sp, #0]
    25bc:	2d00      	cmp	r5, #0
    25be:	d0e8      	beq.n	2592 <_open+0xfa>
    25c0:	f848 5024 	str.w	r5, [r8, r4, lsl #2]
    25c4:	3403      	adds	r4, #3
    25c6:	e772      	b.n	24ae <_open+0x16>
    25c8:	00007325 	.word	0x00007325
    25cc:	0000732c 	.word	0x0000732c
    25d0:	0000731d 	.word	0x0000731d
    25d4:	100006a4 	.word	0x100006a4
    25d8:	100007a4 	.word	0x100007a4
    25dc:	000072bc 	.word	0x000072bc
    25e0:	000071d8 	.word	0x000071d8

000025e4 <ManagedFile::close()>:
    25e4:	b538      	push	{r3, r4, r5, lr}
    25e6:	4604      	mov	r4, r0
    25e8:	f7ff fd3a 	bl	2060 <mbed::File::close()>
    25ec:	4605      	mov	r5, r0
    25ee:	b11c      	cbz	r4, 25f8 <ManagedFile::close()+0x14>
    25f0:	6823      	ldr	r3, [r4, #0]
    25f2:	4620      	mov	r0, r4
    25f4:	685b      	ldr	r3, [r3, #4]
    25f6:	4798      	blx	r3
    25f8:	4628      	mov	r0, r5
    25fa:	bd38      	pop	{r3, r4, r5, pc}

000025fc <Reset_Handler>:
    25fc:	4906      	ldr	r1, [pc, #24]	; (2618 <Reset_Handler+0x1c>)
    25fe:	4a07      	ldr	r2, [pc, #28]	; (261c <Reset_Handler+0x20>)
    2600:	4b07      	ldr	r3, [pc, #28]	; (2620 <Reset_Handler+0x24>)
    2602:	429a      	cmp	r2, r3
    2604:	bfbe      	ittt	lt
    2606:	f851 0b04 	ldrlt.w	r0, [r1], #4
    260a:	f842 0b04 	strlt.w	r0, [r2], #4
    260e:	e7f8      	blt.n	2602 <Reset_Handler+0x6>
    2610:	4804      	ldr	r0, [pc, #16]	; (2624 <Reset_Handler+0x28>)
    2612:	4780      	blx	r0
    2614:	4804      	ldr	r0, [pc, #16]	; (2628 <Reset_Handler+0x2c>)
    2616:	4700      	bx	r0
    2618:	00007624 	.word	0x00007624
    261c:	100000c8 	.word	0x100000c8
    2620:	100002b0 	.word	0x100002b0
    2624:	0000188d 	.word	0x0000188d
    2628:	000008d9 	.word	0x000008d9

0000262c <NMI_Handler>:
    262c:	e7fe      	b.n	262c <NMI_Handler>

0000262e <HardFault_Handler>:
    262e:	e7fe      	b.n	262e <HardFault_Handler>

00002630 <MemManage_Handler>:
    2630:	e7fe      	b.n	2630 <MemManage_Handler>

00002632 <BusFault_Handler>:
    2632:	e7fe      	b.n	2632 <BusFault_Handler>

00002634 <UsageFault_Handler>:
    2634:	e7fe      	b.n	2634 <UsageFault_Handler>

00002636 <SVC_Handler>:
    2636:	e7fe      	b.n	2636 <SVC_Handler>

00002638 <DebugMon_Handler>:
    2638:	e7fe      	b.n	2638 <DebugMon_Handler>

0000263a <PendSV_Handler>:
    263a:	e7fe      	b.n	263a <PendSV_Handler>

0000263c <SysTick_Handler>:
    263c:	e7fe      	b.n	263c <SysTick_Handler>

0000263e <ADC_IRQHandler>:
    263e:	e7fe      	b.n	263e <ADC_IRQHandler>

00002640 <__aeabi_drsub>:
    2640:	f081 4100 	eor.w	r1, r1, #2147483648	; 0x80000000
    2644:	e002      	b.n	264c <__adddf3>
    2646:	bf00      	nop

00002648 <__aeabi_dsub>:
    2648:	f083 4300 	eor.w	r3, r3, #2147483648	; 0x80000000

0000264c <__adddf3>:
    264c:	b530      	push	{r4, r5, lr}
    264e:	ea4f 0441 	mov.w	r4, r1, lsl #1
    2652:	ea4f 0543 	mov.w	r5, r3, lsl #1
    2656:	ea94 0f05 	teq	r4, r5
    265a:	bf08      	it	eq
    265c:	ea90 0f02 	teqeq	r0, r2
    2660:	bf1f      	itttt	ne
    2662:	ea54 0c00 	orrsne.w	r12, r4, r0
    2666:	ea55 0c02 	orrsne.w	r12, r5, r2
    266a:	ea7f 5c64 	mvnsne.w	r12, r4, asr #21
    266e:	ea7f 5c65 	mvnsne.w	r12, r5, asr #21
    2672:	f000 80e2 	beq.w	283a <__adddf3+0x1ee>
    2676:	ea4f 5454 	mov.w	r4, r4, lsr #21
    267a:	ebd4 5555 	rsbs	r5, r4, r5, lsr #21
    267e:	bfb8      	it	lt
    2680:	426d      	neglt	r5, r5
    2682:	dd0c      	ble.n	269e <__adddf3+0x52>
    2684:	442c      	add	r4, r5
    2686:	ea80 0202 	eor.w	r2, r0, r2
    268a:	ea81 0303 	eor.w	r3, r1, r3
    268e:	ea82 0000 	eor.w	r0, r2, r0
    2692:	ea83 0101 	eor.w	r1, r3, r1
    2696:	ea80 0202 	eor.w	r2, r0, r2
    269a:	ea81 0303 	eor.w	r3, r1, r3
    269e:	2d36      	cmp	r5, #54	; 0x36
    26a0:	bf88      	it	hi
    26a2:	bd30      	pophi	{r4, r5, pc}
    26a4:	f011 4f00 	tst.w	r1, #2147483648	; 0x80000000
    26a8:	ea4f 3101 	mov.w	r1, r1, lsl #12
    26ac:	f44f 1c80 	mov.w	r12, #1048576	; 0x100000
    26b0:	ea4c 3111 	orr.w	r1, r12, r1, lsr #12
    26b4:	d002      	beq.n	26bc <__adddf3+0x70>
    26b6:	4240      	negs	r0, r0
    26b8:	eb61 0141 	sbc.w	r1, r1, r1, lsl #1
    26bc:	f013 4f00 	tst.w	r3, #2147483648	; 0x80000000
    26c0:	ea4f 3303 	mov.w	r3, r3, lsl #12
    26c4:	ea4c 3313 	orr.w	r3, r12, r3, lsr #12
    26c8:	d002      	beq.n	26d0 <__adddf3+0x84>
    26ca:	4252      	negs	r2, r2
    26cc:	eb63 0343 	sbc.w	r3, r3, r3, lsl #1
    26d0:	ea94 0f05 	teq	r4, r5
    26d4:	f000 80a7 	beq.w	2826 <__adddf3+0x1da>
    26d8:	f1a4 0401 	sub.w	r4, r4, #1
    26dc:	f1d5 0e20 	rsbs	lr, r5, #32
    26e0:	db0d      	blt.n	26fe <__adddf3+0xb2>
    26e2:	fa02 fc0e 	lsl.w	r12, r2, lr
    26e6:	fa22 f205 	lsr.w	r2, r2, r5
    26ea:	1880      	adds	r0, r0, r2
    26ec:	f141 0100 	adc.w	r1, r1, #0
    26f0:	fa03 f20e 	lsl.w	r2, r3, lr
    26f4:	1880      	adds	r0, r0, r2
    26f6:	fa43 f305 	asr.w	r3, r3, r5
    26fa:	4159      	adcs	r1, r3
    26fc:	e00e      	b.n	271c <__adddf3+0xd0>
    26fe:	f1a5 0520 	sub.w	r5, r5, #32
    2702:	f10e 0e20 	add.w	lr, lr, #32
    2706:	2a01      	cmp	r2, #1
    2708:	fa03 fc0e 	lsl.w	r12, r3, lr
    270c:	bf28      	it	cs
    270e:	f04c 0c02 	orrcs.w	r12, r12, #2
    2712:	fa43 f305 	asr.w	r3, r3, r5
    2716:	18c0      	adds	r0, r0, r3
    2718:	eb51 71e3 	adcs.w	r1, r1, r3, asr #31
    271c:	f001 4500 	and.w	r5, r1, #2147483648	; 0x80000000
    2720:	d507      	bpl.n	2732 <__adddf3+0xe6>
    2722:	f04f 0e00 	mov.w	lr, #0
    2726:	f1dc 0c00 	rsbs	r12, r12, #0
    272a:	eb7e 0000 	sbcs.w	r0, lr, r0
    272e:	eb6e 0101 	sbc.w	r1, lr, r1
    2732:	f5b1 1f80 	cmp.w	r1, #1048576	; 0x100000
    2736:	d31b      	bcc.n	2770 <__adddf3+0x124>
    2738:	f5b1 1f00 	cmp.w	r1, #2097152	; 0x200000
    273c:	d30c      	bcc.n	2758 <__adddf3+0x10c>
    273e:	0849      	lsrs	r1, r1, #1
    2740:	ea5f 0030 	movs.w	r0, r0, rrx
    2744:	ea4f 0c3c 	mov.w	r12, r12, rrx
    2748:	f104 0401 	add.w	r4, r4, #1
    274c:	ea4f 5244 	mov.w	r2, r4, lsl #21
    2750:	f512 0f80 	cmn.w	r2, #4194304	; 0x400000
    2754:	f080 809a 	bcs.w	288c <__adddf3+0x240>
    2758:	f1bc 4f00 	cmp.w	r12, #2147483648	; 0x80000000
    275c:	bf08      	it	eq
    275e:	ea5f 0c50 	movseq.w	r12, r0, lsr #1
    2762:	f150 0000 	adcs.w	r0, r0, #0
    2766:	eb41 5104 	adc.w	r1, r1, r4, lsl #20
    276a:	ea41 0105 	orr.w	r1, r1, r5
    276e:	bd30      	pop	{r4, r5, pc}
    2770:	ea5f 0c4c 	movs.w	r12, r12, lsl #1
    2774:	4140      	adcs	r0, r0
    2776:	eb41 0101 	adc.w	r1, r1, r1
    277a:	f411 1f80 	tst.w	r1, #1048576	; 0x100000
    277e:	f1a4 0401 	sub.w	r4, r4, #1
    2782:	d1e9      	bne.n	2758 <__adddf3+0x10c>
    2784:	f091 0f00 	teq	r1, #0
    2788:	bf04      	itt	eq
    278a:	4601      	moveq	r1, r0
    278c:	2000      	moveq	r0, #0
    278e:	fab1 f381 	clz	r3, r1
    2792:	bf08      	it	eq
    2794:	3320      	addeq	r3, #32
    2796:	f1a3 030b 	sub.w	r3, r3, #11
    279a:	f1b3 0220 	subs.w	r2, r3, #32
    279e:	da0c      	bge.n	27ba <__adddf3+0x16e>
    27a0:	320c      	adds	r2, #12
    27a2:	dd08      	ble.n	27b6 <__adddf3+0x16a>
    27a4:	f102 0c14 	add.w	r12, r2, #20
    27a8:	f1c2 020c 	rsb	r2, r2, #12
    27ac:	fa01 f00c 	lsl.w	r0, r1, r12
    27b0:	fa21 f102 	lsr.w	r1, r1, r2
    27b4:	e00c      	b.n	27d0 <__adddf3+0x184>
    27b6:	f102 0214 	add.w	r2, r2, #20
    27ba:	bfd8      	it	le
    27bc:	f1c2 0c20 	rsble	r12, r2, #32
    27c0:	fa01 f102 	lsl.w	r1, r1, r2
    27c4:	fa20 fc0c 	lsr.w	r12, r0, r12
    27c8:	bfdc      	itt	le
    27ca:	ea41 010c 	orrle.w	r1, r1, r12
    27ce:	4090      	lslle	r0, r2
    27d0:	1ae4      	subs	r4, r4, r3
    27d2:	bfa2      	ittt	ge
    27d4:	eb01 5104 	addge.w	r1, r1, r4, lsl #20
    27d8:	4329      	orrge	r1, r5
    27da:	bd30      	popge	{r4, r5, pc}
    27dc:	ea6f 0404 	mvn.w	r4, r4
    27e0:	3c1f      	subs	r4, #31
    27e2:	da1c      	bge.n	281e <__adddf3+0x1d2>
    27e4:	340c      	adds	r4, #12
    27e6:	dc0e      	bgt.n	2806 <__adddf3+0x1ba>
    27e8:	f104 0414 	add.w	r4, r4, #20
    27ec:	f1c4 0220 	rsb	r2, r4, #32
    27f0:	fa20 f004 	lsr.w	r0, r0, r4
    27f4:	fa01 f302 	lsl.w	r3, r1, r2
    27f8:	ea40 0003 	orr.w	r0, r0, r3
    27fc:	fa21 f304 	lsr.w	r3, r1, r4
    2800:	ea45 0103 	orr.w	r1, r5, r3
    2804:	bd30      	pop	{r4, r5, pc}
    2806:	f1c4 040c 	rsb	r4, r4, #12
    280a:	f1c4 0220 	rsb	r2, r4, #32
    280e:	fa20 f002 	lsr.w	r0, r0, r2
    2812:	fa01 f304 	lsl.w	r3, r1, r4
    2816:	ea40 0003 	orr.w	r0, r0, r3
    281a:	4629      	mov	r1, r5
    281c:	bd30      	pop	{r4, r5, pc}
    281e:	fa21 f004 	lsr.w	r0, r1, r4
    2822:	4629      	mov	r1, r5
    2824:	bd30      	pop	{r4, r5, pc}
    2826:	f094 0f00 	teq	r4, #0
    282a:	f483 1380 	eor.w	r3, r3, #1048576	; 0x100000
    282e:	bf06      	itte	eq
    2830:	f481 1180 	eoreq.w	r1, r1, #1048576	; 0x100000
    2834:	3401      	addeq	r4, #1
    2836:	3d01      	subne	r5, #1
    2838:	e74e      	b.n	26d8 <__adddf3+0x8c>
    283a:	ea7f 5c64 	mvns.w	r12, r4, asr #21
    283e:	bf18      	it	ne
    2840:	ea7f 5c65 	mvnsne.w	r12, r5, asr #21
    2844:	d029      	beq.n	289a <__adddf3+0x24e>
    2846:	ea94 0f05 	teq	r4, r5
    284a:	bf08      	it	eq
    284c:	ea90 0f02 	teqeq	r0, r2
    2850:	d005      	beq.n	285e <__adddf3+0x212>
    2852:	ea54 0c00 	orrs.w	r12, r4, r0
    2856:	bf04      	itt	eq
    2858:	4619      	moveq	r1, r3
    285a:	4610      	moveq	r0, r2
    285c:	bd30      	pop	{r4, r5, pc}
    285e:	ea91 0f03 	teq	r1, r3
    2862:	bf1e      	ittt	ne
    2864:	2100      	movne	r1, #0
    2866:	2000      	movne	r0, #0
    2868:	bd30      	popne	{r4, r5, pc}
    286a:	ea5f 5c54 	movs.w	r12, r4, lsr #21
    286e:	d105      	bne.n	287c <__adddf3+0x230>
    2870:	0040      	lsls	r0, r0, #1
    2872:	4149      	adcs	r1, r1
    2874:	bf28      	it	cs
    2876:	f041 4100 	orrcs.w	r1, r1, #2147483648	; 0x80000000
    287a:	bd30      	pop	{r4, r5, pc}
    287c:	f514 0480 	adds.w	r4, r4, #4194304	; 0x400000
    2880:	bf3c      	itt	cc
    2882:	f501 1180 	addcc.w	r1, r1, #1048576	; 0x100000
    2886:	bd30      	popcc	{r4, r5, pc}
    2888:	f001 4500 	and.w	r5, r1, #2147483648	; 0x80000000
    288c:	f045 41fe 	orr.w	r1, r5, #2130706432	; 0x7f000000
    2890:	f441 0170 	orr.w	r1, r1, #15728640	; 0xf00000
    2894:	f04f 0000 	mov.w	r0, #0
    2898:	bd30      	pop	{r4, r5, pc}
    289a:	ea7f 5c64 	mvns.w	r12, r4, asr #21
    289e:	bf1a      	itte	ne
    28a0:	4619      	movne	r1, r3
    28a2:	4610      	movne	r0, r2
    28a4:	ea7f 5c65 	mvnseq.w	r12, r5, asr #21
    28a8:	bf1c      	itt	ne
    28aa:	460b      	movne	r3, r1
    28ac:	4602      	movne	r2, r0
    28ae:	ea50 3401 	orrs.w	r4, r0, r1, lsl #12
    28b2:	bf06      	itte	eq
    28b4:	ea52 3503 	orrseq.w	r5, r2, r3, lsl #12
    28b8:	ea91 0f03 	teqeq	r1, r3
    28bc:	f441 2100 	orrne.w	r1, r1, #524288	; 0x80000
    28c0:	bd30      	pop	{r4, r5, pc}
    28c2:	bf00      	nop

000028c4 <__aeabi_ui2d>:
    28c4:	f090 0f00 	teq	r0, #0
    28c8:	bf04      	itt	eq
    28ca:	2100      	moveq	r1, #0
    28cc:	4770      	bxeq	lr
    28ce:	b530      	push	{r4, r5, lr}
    28d0:	f44f 6480 	mov.w	r4, #1024	; 0x400
    28d4:	f104 0432 	add.w	r4, r4, #50	; 0x32
    28d8:	f04f 0500 	mov.w	r5, #0
    28dc:	f04f 0100 	mov.w	r1, #0
    28e0:	e750      	b.n	2784 <__adddf3+0x138>
    28e2:	bf00      	nop

000028e4 <__aeabi_i2d>:
    28e4:	f090 0f00 	teq	r0, #0
    28e8:	bf04      	itt	eq
    28ea:	2100      	moveq	r1, #0
    28ec:	4770      	bxeq	lr
    28ee:	b530      	push	{r4, r5, lr}
    28f0:	f44f 6480 	mov.w	r4, #1024	; 0x400
    28f4:	f104 0432 	add.w	r4, r4, #50	; 0x32
    28f8:	f010 4500 	ands.w	r5, r0, #2147483648	; 0x80000000
    28fc:	bf48      	it	mi
    28fe:	4240      	negmi	r0, r0
    2900:	f04f 0100 	mov.w	r1, #0
    2904:	e73e      	b.n	2784 <__adddf3+0x138>
    2906:	bf00      	nop

00002908 <__aeabi_f2d>:
    2908:	0042      	lsls	r2, r0, #1
    290a:	ea4f 01e2 	mov.w	r1, r2, asr #3
    290e:	ea4f 0131 	mov.w	r1, r1, rrx
    2912:	ea4f 7002 	mov.w	r0, r2, lsl #28
    2916:	bf1f      	itttt	ne
    2918:	f012 437f 	andsne.w	r3, r2, #4278190080	; 0xff000000
    291c:	f093 4f7f 	teqne	r3, #4278190080	; 0xff000000
    2920:	f081 5160 	eorne.w	r1, r1, #939524096	; 0x38000000
    2924:	4770      	bxne	lr
    2926:	f092 0f00 	teq	r2, #0
    292a:	bf14      	ite	ne
    292c:	f093 4f7f 	teqne	r3, #4278190080	; 0xff000000
    2930:	4770      	bxeq	lr
    2932:	b530      	push	{r4, r5, lr}
    2934:	f44f 7460 	mov.w	r4, #896	; 0x380
    2938:	f001 4500 	and.w	r5, r1, #2147483648	; 0x80000000
    293c:	f021 4100 	bic.w	r1, r1, #2147483648	; 0x80000000
    2940:	e720      	b.n	2784 <__adddf3+0x138>
    2942:	bf00      	nop

00002944 <__aeabi_ul2d>:
    2944:	ea50 0201 	orrs.w	r2, r0, r1
    2948:	bf08      	it	eq
    294a:	4770      	bxeq	lr
    294c:	b530      	push	{r4, r5, lr}
    294e:	f04f 0500 	mov.w	r5, #0
    2952:	e00a      	b.n	296a <__aeabi_l2d+0x16>

00002954 <__aeabi_l2d>:
    2954:	ea50 0201 	orrs.w	r2, r0, r1
    2958:	bf08      	it	eq
    295a:	4770      	bxeq	lr
    295c:	b530      	push	{r4, r5, lr}
    295e:	f011 4500 	ands.w	r5, r1, #2147483648	; 0x80000000
    2962:	d502      	bpl.n	296a <__aeabi_l2d+0x16>
    2964:	4240      	negs	r0, r0
    2966:	eb61 0141 	sbc.w	r1, r1, r1, lsl #1
    296a:	f44f 6480 	mov.w	r4, #1024	; 0x400
    296e:	f104 0432 	add.w	r4, r4, #50	; 0x32
    2972:	ea5f 5c91 	movs.w	r12, r1, lsr #22
    2976:	f43f aedc 	beq.w	2732 <__adddf3+0xe6>
    297a:	f04f 0203 	mov.w	r2, #3
    297e:	ea5f 0cdc 	movs.w	r12, r12, lsr #3
    2982:	bf18      	it	ne
    2984:	3203      	addne	r2, #3
    2986:	ea5f 0cdc 	movs.w	r12, r12, lsr #3
    298a:	bf18      	it	ne
    298c:	3203      	addne	r2, #3
    298e:	eb02 02dc 	add.w	r2, r2, r12, lsr #3
    2992:	f1c2 0320 	rsb	r3, r2, #32
    2996:	fa00 fc03 	lsl.w	r12, r0, r3
    299a:	fa20 f002 	lsr.w	r0, r0, r2
    299e:	fa01 fe03 	lsl.w	lr, r1, r3
    29a2:	ea40 000e 	orr.w	r0, r0, lr
    29a6:	fa21 f102 	lsr.w	r1, r1, r2
    29aa:	4414      	add	r4, r2
    29ac:	e6c1      	b.n	2732 <__adddf3+0xe6>
    29ae:	bf00      	nop

000029b0 <__aeabi_dmul>:
    29b0:	b570      	push	{r4, r5, r6, lr}
    29b2:	f04f 0cff 	mov.w	r12, #255	; 0xff
    29b6:	f44c 6ce0 	orr.w	r12, r12, #1792	; 0x700
    29ba:	ea1c 5411 	ands.w	r4, r12, r1, lsr #20
    29be:	bf1d      	ittte	ne
    29c0:	ea1c 5513 	andsne.w	r5, r12, r3, lsr #20
    29c4:	ea94 0f0c 	teqne	r4, r12
    29c8:	ea95 0f0c 	teqne	r5, r12
    29cc:	f000 f8de 	bleq	2b8c <__aeabi_dmul+0x1dc>
    29d0:	442c      	add	r4, r5
    29d2:	ea81 0603 	eor.w	r6, r1, r3
    29d6:	ea21 514c 	bic.w	r1, r1, r12, lsl #21
    29da:	ea23 534c 	bic.w	r3, r3, r12, lsl #21
    29de:	ea50 3501 	orrs.w	r5, r0, r1, lsl #12
    29e2:	bf18      	it	ne
    29e4:	ea52 3503 	orrsne.w	r5, r2, r3, lsl #12
    29e8:	f441 1180 	orr.w	r1, r1, #1048576	; 0x100000
    29ec:	f443 1380 	orr.w	r3, r3, #1048576	; 0x100000
    29f0:	d038      	beq.n	2a64 <__aeabi_dmul+0xb4>
    29f2:	fba0 ce02 	umull	r12, lr, r0, r2
    29f6:	f04f 0500 	mov.w	r5, #0
    29fa:	fbe1 e502 	umlal	lr, r5, r1, r2
    29fe:	f006 4200 	and.w	r2, r6, #2147483648	; 0x80000000
    2a02:	fbe0 e503 	umlal	lr, r5, r0, r3
    2a06:	f04f 0600 	mov.w	r6, #0
    2a0a:	fbe1 5603 	umlal	r5, r6, r1, r3
    2a0e:	f09c 0f00 	teq	r12, #0
    2a12:	bf18      	it	ne
    2a14:	f04e 0e01 	orrne.w	lr, lr, #1
    2a18:	f1a4 04ff 	sub.w	r4, r4, #255	; 0xff
    2a1c:	f5b6 7f00 	cmp.w	r6, #512	; 0x200
    2a20:	f564 7440 	sbc.w	r4, r4, #768	; 0x300
    2a24:	d204      	bcs.n	2a30 <__aeabi_dmul+0x80>
    2a26:	ea5f 0e4e 	movs.w	lr, lr, lsl #1
    2a2a:	416d      	adcs	r5, r5
    2a2c:	eb46 0606 	adc.w	r6, r6, r6
    2a30:	ea42 21c6 	orr.w	r1, r2, r6, lsl #11
    2a34:	ea41 5155 	orr.w	r1, r1, r5, lsr #21
    2a38:	ea4f 20c5 	mov.w	r0, r5, lsl #11
    2a3c:	ea40 505e 	orr.w	r0, r0, lr, lsr #21
    2a40:	ea4f 2ece 	mov.w	lr, lr, lsl #11
    2a44:	f1b4 0cfd 	subs.w	r12, r4, #253	; 0xfd
    2a48:	bf88      	it	hi
    2a4a:	f5bc 6fe0 	cmphi.w	r12, #1792	; 0x700
    2a4e:	d81e      	bhi.n	2a8e <__aeabi_dmul+0xde>
    2a50:	f1be 4f00 	cmp.w	lr, #2147483648	; 0x80000000
    2a54:	bf08      	it	eq
    2a56:	ea5f 0e50 	movseq.w	lr, r0, lsr #1
    2a5a:	f150 0000 	adcs.w	r0, r0, #0
    2a5e:	eb41 5104 	adc.w	r1, r1, r4, lsl #20
    2a62:	bd70      	pop	{r4, r5, r6, pc}
    2a64:	f006 4600 	and.w	r6, r6, #2147483648	; 0x80000000
    2a68:	ea46 0101 	orr.w	r1, r6, r1
    2a6c:	ea40 0002 	orr.w	r0, r0, r2
    2a70:	ea81 0103 	eor.w	r1, r1, r3
    2a74:	ebb4 045c 	subs.w	r4, r4, r12, lsr #1
    2a78:	bfc2      	ittt	gt
    2a7a:	ebd4 050c 	rsbsgt	r5, r4, r12
    2a7e:	ea41 5104 	orrgt.w	r1, r1, r4, lsl #20
    2a82:	bd70      	popgt	{r4, r5, r6, pc}
    2a84:	f441 1180 	orr.w	r1, r1, #1048576	; 0x100000
    2a88:	f04f 0e00 	mov.w	lr, #0
    2a8c:	3c01      	subs	r4, #1
    2a8e:	f300 80ab 	bgt.w	2be8 <__aeabi_dmul+0x238>
    2a92:	f114 0f36 	cmn.w	r4, #54	; 0x36
    2a96:	bfde      	ittt	le
    2a98:	2000      	movle	r0, #0
    2a9a:	f001 4100 	andle.w	r1, r1, #2147483648	; 0x80000000
    2a9e:	bd70      	pople	{r4, r5, r6, pc}
    2aa0:	f1c4 0400 	rsb	r4, r4, #0
    2aa4:	3c20      	subs	r4, #32
    2aa6:	da35      	bge.n	2b14 <__aeabi_dmul+0x164>
    2aa8:	340c      	adds	r4, #12
    2aaa:	dc1b      	bgt.n	2ae4 <__aeabi_dmul+0x134>
    2aac:	f104 0414 	add.w	r4, r4, #20
    2ab0:	f1c4 0520 	rsb	r5, r4, #32
    2ab4:	fa00 f305 	lsl.w	r3, r0, r5
    2ab8:	fa20 f004 	lsr.w	r0, r0, r4
    2abc:	fa01 f205 	lsl.w	r2, r1, r5
    2ac0:	ea40 0002 	orr.w	r0, r0, r2
    2ac4:	f001 4200 	and.w	r2, r1, #2147483648	; 0x80000000
    2ac8:	f021 4100 	bic.w	r1, r1, #2147483648	; 0x80000000
    2acc:	eb10 70d3 	adds.w	r0, r0, r3, lsr #31
    2ad0:	fa21 f604 	lsr.w	r6, r1, r4
    2ad4:	eb42 0106 	adc.w	r1, r2, r6
    2ad8:	ea5e 0e43 	orrs.w	lr, lr, r3, lsl #1
    2adc:	bf08      	it	eq
    2ade:	ea20 70d3 	biceq.w	r0, r0, r3, lsr #31
    2ae2:	bd70      	pop	{r4, r5, r6, pc}
    2ae4:	f1c4 040c 	rsb	r4, r4, #12
    2ae8:	f1c4 0520 	rsb	r5, r4, #32
    2aec:	fa00 f304 	lsl.w	r3, r0, r4
    2af0:	fa20 f005 	lsr.w	r0, r0, r5
    2af4:	fa01 f204 	lsl.w	r2, r1, r4
    2af8:	ea40 0002 	orr.w	r0, r0, r2
    2afc:	f001 4100 	and.w	r1, r1, #2147483648	; 0x80000000
    2b00:	eb10 70d3 	adds.w	r0, r0, r3, lsr #31
    2b04:	f141 0100 	adc.w	r1, r1, #0
    2b08:	ea5e 0e43 	orrs.w	lr, lr, r3, lsl #1
    2b0c:	bf08      	it	eq
    2b0e:	ea20 70d3 	biceq.w	r0, r0, r3, lsr #31
    2b12:	bd70      	pop	{r4, r5, r6, pc}
    2b14:	f1c4 0520 	rsb	r5, r4, #32
    2b18:	fa00 f205 	lsl.w	r2, r0, r5
    2b1c:	ea4e 0e02 	orr.w	lr, lr, r2
    2b20:	fa20 f304 	lsr.w	r3, r0, r4
    2b24:	fa01 f205 	lsl.w	r2, r1, r5
    2b28:	ea43 0302 	orr.w	r3, r3, r2
    2b2c:	fa21 f004 	lsr.w	r0, r1, r4
    2b30:	f001 4100 	and.w	r1, r1, #2147483648	; 0x80000000
    2b34:	fa21 f204 	lsr.w	r2, r1, r4
    2b38:	ea20 0002 	bic.w	r0, r0, r2
    2b3c:	eb00 70d3 	add.w	r0, r0, r3, lsr #31
    2b40:	ea5e 0e43 	orrs.w	lr, lr, r3, lsl #1
    2b44:	bf08      	it	eq
    2b46:	ea20 70d3 	biceq.w	r0, r0, r3, lsr #31
    2b4a:	bd70      	pop	{r4, r5, r6, pc}
    2b4c:	f094 0f00 	teq	r4, #0
    2b50:	d10f      	bne.n	2b72 <__aeabi_dmul+0x1c2>
    2b52:	f001 4600 	and.w	r6, r1, #2147483648	; 0x80000000
    2b56:	0040      	lsls	r0, r0, #1
    2b58:	eb41 0101 	adc.w	r1, r1, r1
    2b5c:	f411 1f80 	tst.w	r1, #1048576	; 0x100000
    2b60:	bf08      	it	eq
    2b62:	3c01      	subeq	r4, #1
    2b64:	d0f7      	beq.n	2b56 <__aeabi_dmul+0x1a6>
    2b66:	ea41 0106 	orr.w	r1, r1, r6
    2b6a:	f095 0f00 	teq	r5, #0
    2b6e:	bf18      	it	ne
    2b70:	4770      	bxne	lr
    2b72:	f003 4600 	and.w	r6, r3, #2147483648	; 0x80000000
    2b76:	0052      	lsls	r2, r2, #1
    2b78:	eb43 0303 	adc.w	r3, r3, r3
    2b7c:	f413 1f80 	tst.w	r3, #1048576	; 0x100000
    2b80:	bf08      	it	eq
    2b82:	3d01      	subeq	r5, #1
    2b84:	d0f7      	beq.n	2b76 <__aeabi_dmul+0x1c6>
    2b86:	ea43 0306 	orr.w	r3, r3, r6
    2b8a:	4770      	bx	lr
    2b8c:	ea94 0f0c 	teq	r4, r12
    2b90:	ea0c 5513 	and.w	r5, r12, r3, lsr #20
    2b94:	bf18      	it	ne
    2b96:	ea95 0f0c 	teqne	r5, r12
    2b9a:	d00c      	beq.n	2bb6 <__aeabi_dmul+0x206>
    2b9c:	ea50 0641 	orrs.w	r6, r0, r1, lsl #1
    2ba0:	bf18      	it	ne
    2ba2:	ea52 0643 	orrsne.w	r6, r2, r3, lsl #1
    2ba6:	d1d1      	bne.n	2b4c <__aeabi_dmul+0x19c>
    2ba8:	ea81 0103 	eor.w	r1, r1, r3
    2bac:	f001 4100 	and.w	r1, r1, #2147483648	; 0x80000000
    2bb0:	f04f 0000 	mov.w	r0, #0
    2bb4:	bd70      	pop	{r4, r5, r6, pc}
    2bb6:	ea50 0641 	orrs.w	r6, r0, r1, lsl #1
    2bba:	bf06      	itte	eq
    2bbc:	4610      	moveq	r0, r2
    2bbe:	4619      	moveq	r1, r3
    2bc0:	ea52 0643 	orrsne.w	r6, r2, r3, lsl #1
    2bc4:	d019      	beq.n	2bfa <__aeabi_dmul+0x24a>
    2bc6:	ea94 0f0c 	teq	r4, r12
    2bca:	d102      	bne.n	2bd2 <__aeabi_dmul+0x222>
    2bcc:	ea50 3601 	orrs.w	r6, r0, r1, lsl #12
    2bd0:	d113      	bne.n	2bfa <__aeabi_dmul+0x24a>
    2bd2:	ea95 0f0c 	teq	r5, r12
    2bd6:	d105      	bne.n	2be4 <__aeabi_dmul+0x234>
    2bd8:	ea52 3603 	orrs.w	r6, r2, r3, lsl #12
    2bdc:	bf1c      	itt	ne
    2bde:	4610      	movne	r0, r2
    2be0:	4619      	movne	r1, r3
    2be2:	d10a      	bne.n	2bfa <__aeabi_dmul+0x24a>
    2be4:	ea81 0103 	eor.w	r1, r1, r3
    2be8:	f001 4100 	and.w	r1, r1, #2147483648	; 0x80000000
    2bec:	f041 41fe 	orr.w	r1, r1, #2130706432	; 0x7f000000
    2bf0:	f441 0170 	orr.w	r1, r1, #15728640	; 0xf00000
    2bf4:	f04f 0000 	mov.w	r0, #0
    2bf8:	bd70      	pop	{r4, r5, r6, pc}
    2bfa:	f041 41fe 	orr.w	r1, r1, #2130706432	; 0x7f000000
    2bfe:	f441 0178 	orr.w	r1, r1, #16252928	; 0xf80000
    2c02:	bd70      	pop	{r4, r5, r6, pc}

00002c04 <__aeabi_ddiv>:
    2c04:	b570      	push	{r4, r5, r6, lr}
    2c06:	f04f 0cff 	mov.w	r12, #255	; 0xff
    2c0a:	f44c 6ce0 	orr.w	r12, r12, #1792	; 0x700
    2c0e:	ea1c 5411 	ands.w	r4, r12, r1, lsr #20
    2c12:	bf1d      	ittte	ne
    2c14:	ea1c 5513 	andsne.w	r5, r12, r3, lsr #20
    2c18:	ea94 0f0c 	teqne	r4, r12
    2c1c:	ea95 0f0c 	teqne	r5, r12
    2c20:	f000 f8a7 	bleq	2d72 <__aeabi_ddiv+0x16e>
    2c24:	eba4 0405 	sub.w	r4, r4, r5
    2c28:	ea81 0e03 	eor.w	lr, r1, r3
    2c2c:	ea52 3503 	orrs.w	r5, r2, r3, lsl #12
    2c30:	ea4f 3101 	mov.w	r1, r1, lsl #12
    2c34:	f000 8088 	beq.w	2d48 <__aeabi_ddiv+0x144>
    2c38:	ea4f 3303 	mov.w	r3, r3, lsl #12
    2c3c:	f04f 5580 	mov.w	r5, #268435456	; 0x10000000
    2c40:	ea45 1313 	orr.w	r3, r5, r3, lsr #4
    2c44:	ea43 6312 	orr.w	r3, r3, r2, lsr #24
    2c48:	ea4f 2202 	mov.w	r2, r2, lsl #8
    2c4c:	ea45 1511 	orr.w	r5, r5, r1, lsr #4
    2c50:	ea45 6510 	orr.w	r5, r5, r0, lsr #24
    2c54:	ea4f 2600 	mov.w	r6, r0, lsl #8
    2c58:	f00e 4100 	and.w	r1, lr, #2147483648	; 0x80000000
    2c5c:	429d      	cmp	r5, r3
    2c5e:	bf08      	it	eq
    2c60:	4296      	cmpeq	r6, r2
    2c62:	f144 04fd 	adc.w	r4, r4, #253	; 0xfd
    2c66:	f504 7440 	add.w	r4, r4, #768	; 0x300
    2c6a:	d202      	bcs.n	2c72 <__aeabi_ddiv+0x6e>
    2c6c:	085b      	lsrs	r3, r3, #1
    2c6e:	ea4f 0232 	mov.w	r2, r2, rrx
    2c72:	1ab6      	subs	r6, r6, r2
    2c74:	eb65 0503 	sbc.w	r5, r5, r3
    2c78:	085b      	lsrs	r3, r3, #1
    2c7a:	ea4f 0232 	mov.w	r2, r2, rrx
    2c7e:	f44f 1080 	mov.w	r0, #1048576	; 0x100000
    2c82:	f44f 2c00 	mov.w	r12, #524288	; 0x80000
    2c86:	ebb6 0e02 	subs.w	lr, r6, r2
    2c8a:	eb75 0e03 	sbcs.w	lr, r5, r3
    2c8e:	bf22      	ittt	cs
    2c90:	1ab6      	subcs	r6, r6, r2
    2c92:	4675      	movcs	r5, lr
    2c94:	ea40 000c 	orrcs.w	r0, r0, r12
    2c98:	085b      	lsrs	r3, r3, #1
    2c9a:	ea4f 0232 	mov.w	r2, r2, rrx
    2c9e:	ebb6 0e02 	subs.w	lr, r6, r2
    2ca2:	eb75 0e03 	sbcs.w	lr, r5, r3
    2ca6:	bf22      	ittt	cs
    2ca8:	1ab6      	subcs	r6, r6, r2
    2caa:	4675      	movcs	r5, lr
    2cac:	ea40 005c 	orrcs.w	r0, r0, r12, lsr #1
    2cb0:	085b      	lsrs	r3, r3, #1
    2cb2:	ea4f 0232 	mov.w	r2, r2, rrx
    2cb6:	ebb6 0e02 	subs.w	lr, r6, r2
    2cba:	eb75 0e03 	sbcs.w	lr, r5, r3
    2cbe:	bf22      	ittt	cs
    2cc0:	1ab6      	subcs	r6, r6, r2
    2cc2:	4675      	movcs	r5, lr
    2cc4:	ea40 009c 	orrcs.w	r0, r0, r12, lsr #2
    2cc8:	085b      	lsrs	r3, r3, #1
    2cca:	ea4f 0232 	mov.w	r2, r2, rrx
    2cce:	ebb6 0e02 	subs.w	lr, r6, r2
    2cd2:	eb75 0e03 	sbcs.w	lr, r5, r3
    2cd6:	bf22      	ittt	cs
    2cd8:	1ab6      	subcs	r6, r6, r2
    2cda:	4675      	movcs	r5, lr
    2cdc:	ea40 00dc 	orrcs.w	r0, r0, r12, lsr #3
    2ce0:	ea55 0e06 	orrs.w	lr, r5, r6
    2ce4:	d018      	beq.n	2d18 <__aeabi_ddiv+0x114>
    2ce6:	ea4f 1505 	mov.w	r5, r5, lsl #4
    2cea:	ea45 7516 	orr.w	r5, r5, r6, lsr #28
    2cee:	ea4f 1606 	mov.w	r6, r6, lsl #4
    2cf2:	ea4f 03c3 	mov.w	r3, r3, lsl #3
    2cf6:	ea43 7352 	orr.w	r3, r3, r2, lsr #29
    2cfa:	ea4f 02c2 	mov.w	r2, r2, lsl #3
    2cfe:	ea5f 1c1c 	movs.w	r12, r12, lsr #4
    2d02:	d1c0      	bne.n	2c86 <__aeabi_ddiv+0x82>
    2d04:	f411 1f80 	tst.w	r1, #1048576	; 0x100000
    2d08:	d10b      	bne.n	2d22 <__aeabi_ddiv+0x11e>
    2d0a:	ea41 0100 	orr.w	r1, r1, r0
    2d0e:	f04f 0000 	mov.w	r0, #0
    2d12:	f04f 4c00 	mov.w	r12, #2147483648	; 0x80000000
    2d16:	e7b6      	b.n	2c86 <__aeabi_ddiv+0x82>
    2d18:	f411 1f80 	tst.w	r1, #1048576	; 0x100000
    2d1c:	bf04      	itt	eq
    2d1e:	4301      	orreq	r1, r0
    2d20:	2000      	moveq	r0, #0
    2d22:	f1b4 0cfd 	subs.w	r12, r4, #253	; 0xfd
    2d26:	bf88      	it	hi
    2d28:	f5bc 6fe0 	cmphi.w	r12, #1792	; 0x700
    2d2c:	f63f aeaf 	bhi.w	2a8e <__aeabi_dmul+0xde>
    2d30:	ebb5 0c03 	subs.w	r12, r5, r3
    2d34:	bf04      	itt	eq
    2d36:	ebb6 0c02 	subseq.w	r12, r6, r2
    2d3a:	ea5f 0c50 	movseq.w	r12, r0, lsr #1
    2d3e:	f150 0000 	adcs.w	r0, r0, #0
    2d42:	eb41 5104 	adc.w	r1, r1, r4, lsl #20
    2d46:	bd70      	pop	{r4, r5, r6, pc}
    2d48:	f00e 4e00 	and.w	lr, lr, #2147483648	; 0x80000000
    2d4c:	ea4e 3111 	orr.w	r1, lr, r1, lsr #12
    2d50:	eb14 045c 	adds.w	r4, r4, r12, lsr #1
    2d54:	bfc2      	ittt	gt
    2d56:	ebd4 050c 	rsbsgt	r5, r4, r12
    2d5a:	ea41 5104 	orrgt.w	r1, r1, r4, lsl #20
    2d5e:	bd70      	popgt	{r4, r5, r6, pc}
    2d60:	f441 1180 	orr.w	r1, r1, #1048576	; 0x100000
    2d64:	f04f 0e00 	mov.w	lr, #0
    2d68:	3c01      	subs	r4, #1
    2d6a:	e690      	b.n	2a8e <__aeabi_dmul+0xde>
    2d6c:	ea45 0e06 	orr.w	lr, r5, r6
    2d70:	e68d      	b.n	2a8e <__aeabi_dmul+0xde>
    2d72:	ea0c 5513 	and.w	r5, r12, r3, lsr #20
    2d76:	ea94 0f0c 	teq	r4, r12
    2d7a:	bf08      	it	eq
    2d7c:	ea95 0f0c 	teqeq	r5, r12
    2d80:	f43f af3b 	beq.w	2bfa <__aeabi_dmul+0x24a>
    2d84:	ea94 0f0c 	teq	r4, r12
    2d88:	d10a      	bne.n	2da0 <__aeabi_ddiv+0x19c>
    2d8a:	ea50 3401 	orrs.w	r4, r0, r1, lsl #12
    2d8e:	f47f af34 	bne.w	2bfa <__aeabi_dmul+0x24a>
    2d92:	ea95 0f0c 	teq	r5, r12
    2d96:	f47f af25 	bne.w	2be4 <__aeabi_dmul+0x234>
    2d9a:	4610      	mov	r0, r2
    2d9c:	4619      	mov	r1, r3
    2d9e:	e72c      	b.n	2bfa <__aeabi_dmul+0x24a>
    2da0:	ea95 0f0c 	teq	r5, r12
    2da4:	d106      	bne.n	2db4 <__aeabi_ddiv+0x1b0>
    2da6:	ea52 3503 	orrs.w	r5, r2, r3, lsl #12
    2daa:	f43f aefd 	beq.w	2ba8 <__aeabi_dmul+0x1f8>
    2dae:	4610      	mov	r0, r2
    2db0:	4619      	mov	r1, r3
    2db2:	e722      	b.n	2bfa <__aeabi_dmul+0x24a>
    2db4:	ea50 0641 	orrs.w	r6, r0, r1, lsl #1
    2db8:	bf18      	it	ne
    2dba:	ea52 0643 	orrsne.w	r6, r2, r3, lsl #1
    2dbe:	f47f aec5 	bne.w	2b4c <__aeabi_dmul+0x19c>
    2dc2:	ea50 0441 	orrs.w	r4, r0, r1, lsl #1
    2dc6:	f47f af0d 	bne.w	2be4 <__aeabi_dmul+0x234>
    2dca:	ea52 0543 	orrs.w	r5, r2, r3, lsl #1
    2dce:	f47f aeeb 	bne.w	2ba8 <__aeabi_dmul+0x1f8>
    2dd2:	e712      	b.n	2bfa <__aeabi_dmul+0x24a>

00002dd4 <__aeabi_d2iz>:
    2dd4:	ea4f 0241 	mov.w	r2, r1, lsl #1
    2dd8:	f512 1200 	adds.w	r2, r2, #2097152	; 0x200000
    2ddc:	d215      	bcs.n	2e0a <__aeabi_d2iz+0x36>
    2dde:	d511      	bpl.n	2e04 <__aeabi_d2iz+0x30>
    2de0:	f46f 7378 	mvn.w	r3, #992	; 0x3e0
    2de4:	ebb3 5262 	subs.w	r2, r3, r2, asr #21
    2de8:	d912      	bls.n	2e10 <__aeabi_d2iz+0x3c>
    2dea:	ea4f 23c1 	mov.w	r3, r1, lsl #11
    2dee:	f043 4300 	orr.w	r3, r3, #2147483648	; 0x80000000
    2df2:	ea43 5350 	orr.w	r3, r3, r0, lsr #21
    2df6:	f011 4f00 	tst.w	r1, #2147483648	; 0x80000000
    2dfa:	fa23 f002 	lsr.w	r0, r3, r2
    2dfe:	bf18      	it	ne
    2e00:	4240      	negne	r0, r0
    2e02:	4770      	bx	lr
    2e04:	f04f 0000 	mov.w	r0, #0
    2e08:	4770      	bx	lr
    2e0a:	ea50 3001 	orrs.w	r0, r0, r1, lsl #12
    2e0e:	d105      	bne.n	2e1c <__aeabi_d2iz+0x48>
    2e10:	f011 4000 	ands.w	r0, r1, #2147483648	; 0x80000000
    2e14:	bf08      	it	eq
    2e16:	f06f 4000 	mvneq.w	r0, #2147483648	; 0x80000000
    2e1a:	4770      	bx	lr
    2e1c:	f04f 0000 	mov.w	r0, #0
    2e20:	4770      	bx	lr
    2e22:	bf00      	nop

00002e24 <__aeabi_d2f>:
    2e24:	ea4f 0241 	mov.w	r2, r1, lsl #1
    2e28:	f1b2 43e0 	subs.w	r3, r2, #1879048192	; 0x70000000
    2e2c:	bf24      	itt	cs
    2e2e:	f5b3 1c00 	subscs.w	r12, r3, #2097152	; 0x200000
    2e32:	f1dc 5cfe 	rsbscs	r12, r12, #532676608	; 0x1fc00000
    2e36:	d90d      	bls.n	2e54 <__aeabi_d2f+0x30>
    2e38:	f001 4c00 	and.w	r12, r1, #2147483648	; 0x80000000
    2e3c:	ea4f 02c0 	mov.w	r2, r0, lsl #3
    2e40:	ea4c 7050 	orr.w	r0, r12, r0, lsr #29
    2e44:	f1b2 4f00 	cmp.w	r2, #2147483648	; 0x80000000
    2e48:	eb40 0083 	adc.w	r0, r0, r3, lsl #2
    2e4c:	bf08      	it	eq
    2e4e:	f020 0001 	biceq.w	r0, r0, #1
    2e52:	4770      	bx	lr
    2e54:	f011 4f80 	tst.w	r1, #1073741824	; 0x40000000
    2e58:	d121      	bne.n	2e9e <__aeabi_d2f+0x7a>
    2e5a:	f113 7238 	adds.w	r2, r3, #48234496	; 0x2e00000
    2e5e:	bfbc      	itt	lt
    2e60:	f001 4000 	andlt.w	r0, r1, #2147483648	; 0x80000000
    2e64:	4770      	bxlt	lr
    2e66:	f441 1180 	orr.w	r1, r1, #1048576	; 0x100000
    2e6a:	ea4f 5252 	mov.w	r2, r2, lsr #21
    2e6e:	f1c2 0218 	rsb	r2, r2, #24
    2e72:	f1c2 0c20 	rsb	r12, r2, #32
    2e76:	fa10 f30c 	lsls.w	r3, r0, r12
    2e7a:	fa20 f002 	lsr.w	r0, r0, r2
    2e7e:	bf18      	it	ne
    2e80:	f040 0001 	orrne.w	r0, r0, #1
    2e84:	ea4f 23c1 	mov.w	r3, r1, lsl #11
    2e88:	ea4f 23d3 	mov.w	r3, r3, lsr #11
    2e8c:	fa03 fc0c 	lsl.w	r12, r3, r12
    2e90:	ea40 000c 	orr.w	r0, r0, r12
    2e94:	fa23 f302 	lsr.w	r3, r3, r2
    2e98:	ea4f 0343 	mov.w	r3, r3, lsl #1
    2e9c:	e7cc      	b.n	2e38 <__aeabi_d2f+0x14>
    2e9e:	ea7f 5362 	mvns.w	r3, r2, asr #21
    2ea2:	d107      	bne.n	2eb4 <__aeabi_d2f+0x90>
    2ea4:	ea50 3301 	orrs.w	r3, r0, r1, lsl #12
    2ea8:	bf1e      	ittt	ne
    2eaa:	f04f 40fe 	movne.w	r0, #2130706432	; 0x7f000000
    2eae:	f440 0040 	orrne.w	r0, r0, #12582912	; 0xc00000
    2eb2:	4770      	bxne	lr
    2eb4:	f001 4000 	and.w	r0, r1, #2147483648	; 0x80000000
    2eb8:	f040 40fe 	orr.w	r0, r0, #2130706432	; 0x7f000000
    2ebc:	f440 0000 	orr.w	r0, r0, #8388608	; 0x800000
    2ec0:	4770      	bx	lr
    2ec2:	bf00      	nop

00002ec4 <__aeabi_frsub>:
    2ec4:	f080 4000 	eor.w	r0, r0, #2147483648	; 0x80000000
    2ec8:	e002      	b.n	2ed0 <__addsf3>
    2eca:	bf00      	nop

00002ecc <__aeabi_fsub>:
    2ecc:	f081 4100 	eor.w	r1, r1, #2147483648	; 0x80000000

00002ed0 <__addsf3>:
    2ed0:	0042      	lsls	r2, r0, #1
    2ed2:	bf1f      	itttt	ne
    2ed4:	ea5f 0341 	movsne.w	r3, r1, lsl #1
    2ed8:	ea92 0f03 	teqne	r2, r3
    2edc:	ea7f 6c22 	mvnsne.w	r12, r2, asr #24
    2ee0:	ea7f 6c23 	mvnsne.w	r12, r3, asr #24
    2ee4:	d06a      	beq.n	2fbc <__addsf3+0xec>
    2ee6:	ea4f 6212 	mov.w	r2, r2, lsr #24
    2eea:	ebd2 6313 	rsbs	r3, r2, r3, lsr #24
    2eee:	bfc1      	itttt	gt
    2ef0:	18d2      	addgt	r2, r2, r3
    2ef2:	4041      	eorgt	r1, r0
    2ef4:	4048      	eorgt	r0, r1
    2ef6:	4041      	eorgt	r1, r0
    2ef8:	bfb8      	it	lt
    2efa:	425b      	neglt	r3, r3
    2efc:	2b19      	cmp	r3, #25
    2efe:	bf88      	it	hi
    2f00:	4770      	bxhi	lr
    2f02:	f010 4f00 	tst.w	r0, #2147483648	; 0x80000000
    2f06:	f440 0000 	orr.w	r0, r0, #8388608	; 0x800000
    2f0a:	f020 407f 	bic.w	r0, r0, #4278190080	; 0xff000000
    2f0e:	bf18      	it	ne
    2f10:	4240      	negne	r0, r0
    2f12:	f011 4f00 	tst.w	r1, #2147483648	; 0x80000000
    2f16:	f441 0100 	orr.w	r1, r1, #8388608	; 0x800000
    2f1a:	f021 417f 	bic.w	r1, r1, #4278190080	; 0xff000000
    2f1e:	bf18      	it	ne
    2f20:	4249      	negne	r1, r1
    2f22:	ea92 0f03 	teq	r2, r3
    2f26:	d03f      	beq.n	2fa8 <__addsf3+0xd8>
    2f28:	f1a2 0201 	sub.w	r2, r2, #1
    2f2c:	fa41 fc03 	asr.w	r12, r1, r3
    2f30:	eb10 000c 	adds.w	r0, r0, r12
    2f34:	f1c3 0320 	rsb	r3, r3, #32
    2f38:	fa01 f103 	lsl.w	r1, r1, r3
    2f3c:	f000 4300 	and.w	r3, r0, #2147483648	; 0x80000000
    2f40:	d502      	bpl.n	2f48 <__addsf3+0x78>
    2f42:	4249      	negs	r1, r1
    2f44:	eb60 0040 	sbc.w	r0, r0, r0, lsl #1
    2f48:	f5b0 0f00 	cmp.w	r0, #8388608	; 0x800000
    2f4c:	d313      	bcc.n	2f76 <__addsf3+0xa6>
    2f4e:	f1b0 7f80 	cmp.w	r0, #16777216	; 0x1000000
    2f52:	d306      	bcc.n	2f62 <__addsf3+0x92>
    2f54:	0840      	lsrs	r0, r0, #1
    2f56:	ea4f 0131 	mov.w	r1, r1, rrx
    2f5a:	f102 0201 	add.w	r2, r2, #1
    2f5e:	2afe      	cmp	r2, #254	; 0xfe
    2f60:	d251      	bcs.n	3006 <__addsf3+0x136>
    2f62:	f1b1 4f00 	cmp.w	r1, #2147483648	; 0x80000000
    2f66:	eb40 50c2 	adc.w	r0, r0, r2, lsl #23
    2f6a:	bf08      	it	eq
    2f6c:	f020 0001 	biceq.w	r0, r0, #1
    2f70:	ea40 0003 	orr.w	r0, r0, r3
    2f74:	4770      	bx	lr
    2f76:	0049      	lsls	r1, r1, #1
    2f78:	eb40 0000 	adc.w	r0, r0, r0
    2f7c:	f410 0f00 	tst.w	r0, #8388608	; 0x800000
    2f80:	f1a2 0201 	sub.w	r2, r2, #1
    2f84:	d1ed      	bne.n	2f62 <__addsf3+0x92>
    2f86:	fab0 fc80 	clz	r12, r0
    2f8a:	f1ac 0c08 	sub.w	r12, r12, #8
    2f8e:	ebb2 020c 	subs.w	r2, r2, r12
    2f92:	fa00 f00c 	lsl.w	r0, r0, r12
    2f96:	bfaa      	itet	ge
    2f98:	eb00 50c2 	addge.w	r0, r0, r2, lsl #23
    2f9c:	4252      	neglt	r2, r2
    2f9e:	4318      	orrge	r0, r3
    2fa0:	bfbc      	itt	lt
    2fa2:	40d0      	lsrlt	r0, r2
    2fa4:	4318      	orrlt	r0, r3
    2fa6:	4770      	bx	lr
    2fa8:	f092 0f00 	teq	r2, #0
    2fac:	f481 0100 	eor.w	r1, r1, #8388608	; 0x800000
    2fb0:	bf06      	itte	eq
    2fb2:	f480 0000 	eoreq.w	r0, r0, #8388608	; 0x800000
    2fb6:	3201      	addeq	r2, #1
    2fb8:	3b01      	subne	r3, #1
    2fba:	e7b5      	b.n	2f28 <__addsf3+0x58>
    2fbc:	ea4f 0341 	mov.w	r3, r1, lsl #1
    2fc0:	ea7f 6c22 	mvns.w	r12, r2, asr #24
    2fc4:	bf18      	it	ne
    2fc6:	ea7f 6c23 	mvnsne.w	r12, r3, asr #24
    2fca:	d021      	beq.n	3010 <__addsf3+0x140>
    2fcc:	ea92 0f03 	teq	r2, r3
    2fd0:	d004      	beq.n	2fdc <__addsf3+0x10c>
    2fd2:	f092 0f00 	teq	r2, #0
    2fd6:	bf08      	it	eq
    2fd8:	4608      	moveq	r0, r1
    2fda:	4770      	bx	lr
    2fdc:	ea90 0f01 	teq	r0, r1
    2fe0:	bf1c      	itt	ne
    2fe2:	2000      	movne	r0, #0
    2fe4:	4770      	bxne	lr
    2fe6:	f012 4f7f 	tst.w	r2, #4278190080	; 0xff000000
    2fea:	d104      	bne.n	2ff6 <__addsf3+0x126>
    2fec:	0040      	lsls	r0, r0, #1
    2fee:	bf28      	it	cs
    2ff0:	f040 4000 	orrcs.w	r0, r0, #2147483648	; 0x80000000
    2ff4:	4770      	bx	lr
    2ff6:	f112 7200 	adds.w	r2, r2, #33554432	; 0x2000000
    2ffa:	bf3c      	itt	cc
    2ffc:	f500 0000 	addcc.w	r0, r0, #8388608	; 0x800000
    3000:	4770      	bxcc	lr
    3002:	f000 4300 	and.w	r3, r0, #2147483648	; 0x80000000
    3006:	f043 40fe 	orr.w	r0, r3, #2130706432	; 0x7f000000
    300a:	f440 0000 	orr.w	r0, r0, #8388608	; 0x800000
    300e:	4770      	bx	lr
    3010:	ea7f 6222 	mvns.w	r2, r2, asr #24
    3014:	bf16      	itet	ne
    3016:	4608      	movne	r0, r1
    3018:	ea7f 6323 	mvnseq.w	r3, r3, asr #24
    301c:	4601      	movne	r1, r0
    301e:	0242      	lsls	r2, r0, #9
    3020:	bf06      	itte	eq
    3022:	ea5f 2341 	movseq.w	r3, r1, lsl #9
    3026:	ea90 0f01 	teqeq	r0, r1
    302a:	f440 0080 	orrne.w	r0, r0, #4194304	; 0x400000
    302e:	4770      	bx	lr

00003030 <__aeabi_ui2f>:
    3030:	f04f 0300 	mov.w	r3, #0
    3034:	e004      	b.n	3040 <__aeabi_i2f+0x8>
    3036:	bf00      	nop

00003038 <__aeabi_i2f>:
    3038:	f010 4300 	ands.w	r3, r0, #2147483648	; 0x80000000
    303c:	bf48      	it	mi
    303e:	4240      	negmi	r0, r0
    3040:	ea5f 0c00 	movs.w	r12, r0
    3044:	bf08      	it	eq
    3046:	4770      	bxeq	lr
    3048:	f043 4396 	orr.w	r3, r3, #1258291200	; 0x4b000000
    304c:	4601      	mov	r1, r0
    304e:	f04f 0000 	mov.w	r0, #0
    3052:	e01c      	b.n	308e <__aeabi_l2f+0x2a>

00003054 <__aeabi_ul2f>:
    3054:	ea50 0201 	orrs.w	r2, r0, r1
    3058:	bf08      	it	eq
    305a:	4770      	bxeq	lr
    305c:	f04f 0300 	mov.w	r3, #0
    3060:	e00a      	b.n	3078 <__aeabi_l2f+0x14>
    3062:	bf00      	nop

00003064 <__aeabi_l2f>:
    3064:	ea50 0201 	orrs.w	r2, r0, r1
    3068:	bf08      	it	eq
    306a:	4770      	bxeq	lr
    306c:	f011 4300 	ands.w	r3, r1, #2147483648	; 0x80000000
    3070:	d502      	bpl.n	3078 <__aeabi_l2f+0x14>
    3072:	4240      	negs	r0, r0
    3074:	eb61 0141 	sbc.w	r1, r1, r1, lsl #1
    3078:	ea5f 0c01 	movs.w	r12, r1
    307c:	bf02      	ittt	eq
    307e:	4684      	moveq	r12, r0
    3080:	4601      	moveq	r1, r0
    3082:	2000      	moveq	r0, #0
    3084:	f043 43b6 	orr.w	r3, r3, #1526726656	; 0x5b000000
    3088:	bf08      	it	eq
    308a:	f1a3 5380 	subeq.w	r3, r3, #268435456	; 0x10000000
    308e:	f5a3 0300 	sub.w	r3, r3, #8388608	; 0x800000
    3092:	fabc f28c 	clz	r2, r12
    3096:	3a08      	subs	r2, #8
    3098:	eba3 53c2 	sub.w	r3, r3, r2, lsl #23
    309c:	db10      	blt.n	30c0 <__aeabi_l2f+0x5c>
    309e:	fa01 fc02 	lsl.w	r12, r1, r2
    30a2:	4463      	add	r3, r12
    30a4:	fa00 fc02 	lsl.w	r12, r0, r2
    30a8:	f1c2 0220 	rsb	r2, r2, #32
    30ac:	f1bc 4f00 	cmp.w	r12, #2147483648	; 0x80000000
    30b0:	fa20 f202 	lsr.w	r2, r0, r2
    30b4:	eb43 0002 	adc.w	r0, r3, r2
    30b8:	bf08      	it	eq
    30ba:	f020 0001 	biceq.w	r0, r0, #1
    30be:	4770      	bx	lr
    30c0:	f102 0220 	add.w	r2, r2, #32
    30c4:	fa01 fc02 	lsl.w	r12, r1, r2
    30c8:	f1c2 0220 	rsb	r2, r2, #32
    30cc:	ea50 004c 	orrs.w	r0, r0, r12, lsl #1
    30d0:	fa21 f202 	lsr.w	r2, r1, r2
    30d4:	eb43 0002 	adc.w	r0, r3, r2
    30d8:	bf08      	it	eq
    30da:	ea20 70dc 	biceq.w	r0, r0, r12, lsr #31
    30de:	4770      	bx	lr

000030e0 <__aeabi_fmul>:
    30e0:	f04f 0cff 	mov.w	r12, #255	; 0xff
    30e4:	ea1c 52d0 	ands.w	r2, r12, r0, lsr #23
    30e8:	bf1e      	ittt	ne
    30ea:	ea1c 53d1 	andsne.w	r3, r12, r1, lsr #23
    30ee:	ea92 0f0c 	teqne	r2, r12
    30f2:	ea93 0f0c 	teqne	r3, r12
    30f6:	d06f      	beq.n	31d8 <__aeabi_fmul+0xf8>
    30f8:	441a      	add	r2, r3
    30fa:	ea80 0c01 	eor.w	r12, r0, r1
    30fe:	0240      	lsls	r0, r0, #9
    3100:	bf18      	it	ne
    3102:	ea5f 2141 	movsne.w	r1, r1, lsl #9
    3106:	d01e      	beq.n	3146 <__aeabi_fmul+0x66>
    3108:	f04f 6300 	mov.w	r3, #134217728	; 0x8000000
    310c:	ea43 1050 	orr.w	r0, r3, r0, lsr #5
    3110:	ea43 1151 	orr.w	r1, r3, r1, lsr #5
    3114:	fba0 3101 	umull	r3, r1, r0, r1
    3118:	f00c 4000 	and.w	r0, r12, #2147483648	; 0x80000000
    311c:	f5b1 0f00 	cmp.w	r1, #8388608	; 0x800000
    3120:	bf3e      	ittt	cc
    3122:	0049      	lslcc	r1, r1, #1
    3124:	ea41 71d3 	orrcc.w	r1, r1, r3, lsr #31
    3128:	005b      	lslcc	r3, r3, #1
    312a:	ea40 0001 	orr.w	r0, r0, r1
    312e:	f162 027f 	sbc.w	r2, r2, #127	; 0x7f
    3132:	2afd      	cmp	r2, #253	; 0xfd
    3134:	d81d      	bhi.n	3172 <__aeabi_fmul+0x92>
    3136:	f1b3 4f00 	cmp.w	r3, #2147483648	; 0x80000000
    313a:	eb40 50c2 	adc.w	r0, r0, r2, lsl #23
    313e:	bf08      	it	eq
    3140:	f020 0001 	biceq.w	r0, r0, #1
    3144:	4770      	bx	lr
    3146:	f090 0f00 	teq	r0, #0
    314a:	f00c 4c00 	and.w	r12, r12, #2147483648	; 0x80000000
    314e:	bf08      	it	eq
    3150:	0249      	lsleq	r1, r1, #9
    3152:	ea4c 2050 	orr.w	r0, r12, r0, lsr #9
    3156:	ea40 2051 	orr.w	r0, r0, r1, lsr #9
    315a:	3a7f      	subs	r2, #127	; 0x7f
    315c:	bfc2      	ittt	gt
    315e:	f1d2 03ff 	rsbsgt	r3, r2, #255	; 0xff
    3162:	ea40 50c2 	orrgt.w	r0, r0, r2, lsl #23
    3166:	4770      	bxgt	lr
    3168:	f440 0000 	orr.w	r0, r0, #8388608	; 0x800000
    316c:	f04f 0300 	mov.w	r3, #0
    3170:	3a01      	subs	r2, #1
    3172:	dc5d      	bgt.n	3230 <__aeabi_fmul+0x150>
    3174:	f112 0f19 	cmn.w	r2, #25
    3178:	bfdc      	itt	le
    317a:	f000 4000 	andle.w	r0, r0, #2147483648	; 0x80000000
    317e:	4770      	bxle	lr
    3180:	f1c2 0200 	rsb	r2, r2, #0
    3184:	0041      	lsls	r1, r0, #1
    3186:	fa21 f102 	lsr.w	r1, r1, r2
    318a:	f1c2 0220 	rsb	r2, r2, #32
    318e:	fa00 fc02 	lsl.w	r12, r0, r2
    3192:	ea5f 0031 	movs.w	r0, r1, rrx
    3196:	f140 0000 	adc.w	r0, r0, #0
    319a:	ea53 034c 	orrs.w	r3, r3, r12, lsl #1
    319e:	bf08      	it	eq
    31a0:	ea20 70dc 	biceq.w	r0, r0, r12, lsr #31
    31a4:	4770      	bx	lr
    31a6:	f092 0f00 	teq	r2, #0
    31aa:	f000 4c00 	and.w	r12, r0, #2147483648	; 0x80000000
    31ae:	bf02      	ittt	eq
    31b0:	0040      	lsleq	r0, r0, #1
    31b2:	f410 0f00 	tsteq.w	r0, #8388608	; 0x800000
    31b6:	3a01      	subeq	r2, #1
    31b8:	d0f9      	beq.n	31ae <__aeabi_fmul+0xce>
    31ba:	ea40 000c 	orr.w	r0, r0, r12
    31be:	f093 0f00 	teq	r3, #0
    31c2:	f001 4c00 	and.w	r12, r1, #2147483648	; 0x80000000
    31c6:	bf02      	ittt	eq
    31c8:	0049      	lsleq	r1, r1, #1
    31ca:	f411 0f00 	tsteq.w	r1, #8388608	; 0x800000
    31ce:	3b01      	subeq	r3, #1
    31d0:	d0f9      	beq.n	31c6 <__aeabi_fmul+0xe6>
    31d2:	ea41 010c 	orr.w	r1, r1, r12
    31d6:	e78f      	b.n	30f8 <__aeabi_fmul+0x18>
    31d8:	ea0c 53d1 	and.w	r3, r12, r1, lsr #23
    31dc:	ea92 0f0c 	teq	r2, r12
    31e0:	bf18      	it	ne
    31e2:	ea93 0f0c 	teqne	r3, r12
    31e6:	d00a      	beq.n	31fe <__aeabi_fmul+0x11e>
    31e8:	f030 4c00 	bics.w	r12, r0, #2147483648	; 0x80000000
    31ec:	bf18      	it	ne
    31ee:	f031 4c00 	bicsne.w	r12, r1, #2147483648	; 0x80000000
    31f2:	d1d8      	bne.n	31a6 <__aeabi_fmul+0xc6>
    31f4:	ea80 0001 	eor.w	r0, r0, r1
    31f8:	f000 4000 	and.w	r0, r0, #2147483648	; 0x80000000
    31fc:	4770      	bx	lr
    31fe:	f090 0f00 	teq	r0, #0
    3202:	bf17      	itett	ne
    3204:	f090 4f00 	teqne	r0, #2147483648	; 0x80000000
    3208:	4608      	moveq	r0, r1
    320a:	f091 0f00 	teqne	r1, #0
    320e:	f091 4f00 	teqne	r1, #2147483648	; 0x80000000
    3212:	d014      	beq.n	323e <__aeabi_fmul+0x15e>
    3214:	ea92 0f0c 	teq	r2, r12
    3218:	d101      	bne.n	321e <__aeabi_fmul+0x13e>
    321a:	0242      	lsls	r2, r0, #9
    321c:	d10f      	bne.n	323e <__aeabi_fmul+0x15e>
    321e:	ea93 0f0c 	teq	r3, r12
    3222:	d103      	bne.n	322c <__aeabi_fmul+0x14c>
    3224:	024b      	lsls	r3, r1, #9
    3226:	bf18      	it	ne
    3228:	4608      	movne	r0, r1
    322a:	d108      	bne.n	323e <__aeabi_fmul+0x15e>
    322c:	ea80 0001 	eor.w	r0, r0, r1
    3230:	f000 4000 	and.w	r0, r0, #2147483648	; 0x80000000
    3234:	f040 40fe 	orr.w	r0, r0, #2130706432	; 0x7f000000
    3238:	f440 0000 	orr.w	r0, r0, #8388608	; 0x800000
    323c:	4770      	bx	lr
    323e:	f040 40fe 	orr.w	r0, r0, #2130706432	; 0x7f000000
    3242:	f440 0040 	orr.w	r0, r0, #12582912	; 0xc00000
    3246:	4770      	bx	lr

00003248 <__aeabi_fdiv>:
    3248:	f04f 0cff 	mov.w	r12, #255	; 0xff
    324c:	ea1c 52d0 	ands.w	r2, r12, r0, lsr #23
    3250:	bf1e      	ittt	ne
    3252:	ea1c 53d1 	andsne.w	r3, r12, r1, lsr #23
    3256:	ea92 0f0c 	teqne	r2, r12
    325a:	ea93 0f0c 	teqne	r3, r12
    325e:	d069      	beq.n	3334 <__aeabi_fdiv+0xec>
    3260:	eba2 0203 	sub.w	r2, r2, r3
    3264:	ea80 0c01 	eor.w	r12, r0, r1
    3268:	0249      	lsls	r1, r1, #9
    326a:	ea4f 2040 	mov.w	r0, r0, lsl #9
    326e:	d037      	beq.n	32e0 <__aeabi_fdiv+0x98>
    3270:	f04f 5380 	mov.w	r3, #268435456	; 0x10000000
    3274:	ea43 1111 	orr.w	r1, r3, r1, lsr #4
    3278:	ea43 1310 	orr.w	r3, r3, r0, lsr #4
    327c:	f00c 4000 	and.w	r0, r12, #2147483648	; 0x80000000
    3280:	428b      	cmp	r3, r1
    3282:	bf38      	it	cc
    3284:	005b      	lslcc	r3, r3, #1
    3286:	f142 027d 	adc.w	r2, r2, #125	; 0x7d
    328a:	f44f 0c00 	mov.w	r12, #8388608	; 0x800000
    328e:	428b      	cmp	r3, r1
    3290:	bf24      	itt	cs
    3292:	1a5b      	subcs	r3, r3, r1
    3294:	ea40 000c 	orrcs.w	r0, r0, r12
    3298:	ebb3 0f51 	cmp.w	r3, r1, lsr #1
    329c:	bf24      	itt	cs
    329e:	eba3 0351 	subcs.w	r3, r3, r1, lsr #1
    32a2:	ea40 005c 	orrcs.w	r0, r0, r12, lsr #1
    32a6:	ebb3 0f91 	cmp.w	r3, r1, lsr #2
    32aa:	bf24      	itt	cs
    32ac:	eba3 0391 	subcs.w	r3, r3, r1, lsr #2
    32b0:	ea40 009c 	orrcs.w	r0, r0, r12, lsr #2
    32b4:	ebb3 0fd1 	cmp.w	r3, r1, lsr #3
    32b8:	bf24      	itt	cs
    32ba:	eba3 03d1 	subcs.w	r3, r3, r1, lsr #3
    32be:	ea40 00dc 	orrcs.w	r0, r0, r12, lsr #3
    32c2:	011b      	lsls	r3, r3, #4
    32c4:	bf18      	it	ne
    32c6:	ea5f 1c1c 	movsne.w	r12, r12, lsr #4
    32ca:	d1e0      	bne.n	328e <__aeabi_fdiv+0x46>
    32cc:	2afd      	cmp	r2, #253	; 0xfd
    32ce:	f63f af50 	bhi.w	3172 <__aeabi_fmul+0x92>
    32d2:	428b      	cmp	r3, r1
    32d4:	eb40 50c2 	adc.w	r0, r0, r2, lsl #23
    32d8:	bf08      	it	eq
    32da:	f020 0001 	biceq.w	r0, r0, #1
    32de:	4770      	bx	lr
    32e0:	f00c 4c00 	and.w	r12, r12, #2147483648	; 0x80000000
    32e4:	ea4c 2050 	orr.w	r0, r12, r0, lsr #9
    32e8:	327f      	adds	r2, #127	; 0x7f
    32ea:	bfc2      	ittt	gt
    32ec:	f1d2 03ff 	rsbsgt	r3, r2, #255	; 0xff
    32f0:	ea40 50c2 	orrgt.w	r0, r0, r2, lsl #23
    32f4:	4770      	bxgt	lr
    32f6:	f440 0000 	orr.w	r0, r0, #8388608	; 0x800000
    32fa:	f04f 0300 	mov.w	r3, #0
    32fe:	3a01      	subs	r2, #1
    3300:	e737      	b.n	3172 <__aeabi_fmul+0x92>
    3302:	f092 0f00 	teq	r2, #0
    3306:	f000 4c00 	and.w	r12, r0, #2147483648	; 0x80000000
    330a:	bf02      	ittt	eq
    330c:	0040      	lsleq	r0, r0, #1
    330e:	f410 0f00 	tsteq.w	r0, #8388608	; 0x800000
    3312:	3a01      	subeq	r2, #1
    3314:	d0f9      	beq.n	330a <__aeabi_fdiv+0xc2>
    3316:	ea40 000c 	orr.w	r0, r0, r12
    331a:	f093 0f00 	teq	r3, #0
    331e:	f001 4c00 	and.w	r12, r1, #2147483648	; 0x80000000
    3322:	bf02      	ittt	eq
    3324:	0049      	lsleq	r1, r1, #1
    3326:	f411 0f00 	tsteq.w	r1, #8388608	; 0x800000
    332a:	3b01      	subeq	r3, #1
    332c:	d0f9      	beq.n	3322 <__aeabi_fdiv+0xda>
    332e:	ea41 010c 	orr.w	r1, r1, r12
    3332:	e795      	b.n	3260 <__aeabi_fdiv+0x18>
    3334:	ea0c 53d1 	and.w	r3, r12, r1, lsr #23
    3338:	ea92 0f0c 	teq	r2, r12
    333c:	d108      	bne.n	3350 <__aeabi_fdiv+0x108>
    333e:	0242      	lsls	r2, r0, #9
    3340:	f47f af7d 	bne.w	323e <__aeabi_fmul+0x15e>
    3344:	ea93 0f0c 	teq	r3, r12
    3348:	f47f af70 	bne.w	322c <__aeabi_fmul+0x14c>
    334c:	4608      	mov	r0, r1
    334e:	e776      	b.n	323e <__aeabi_fmul+0x15e>
    3350:	ea93 0f0c 	teq	r3, r12
    3354:	d104      	bne.n	3360 <__aeabi_fdiv+0x118>
    3356:	024b      	lsls	r3, r1, #9
    3358:	f43f af4c 	beq.w	31f4 <__aeabi_fmul+0x114>
    335c:	4608      	mov	r0, r1
    335e:	e76e      	b.n	323e <__aeabi_fmul+0x15e>
    3360:	f030 4c00 	bics.w	r12, r0, #2147483648	; 0x80000000
    3364:	bf18      	it	ne
    3366:	f031 4c00 	bicsne.w	r12, r1, #2147483648	; 0x80000000
    336a:	d1ca      	bne.n	3302 <__aeabi_fdiv+0xba>
    336c:	f030 4200 	bics.w	r2, r0, #2147483648	; 0x80000000
    3370:	f47f af5c 	bne.w	322c <__aeabi_fmul+0x14c>
    3374:	f031 4300 	bics.w	r3, r1, #2147483648	; 0x80000000
    3378:	f47f af3c 	bne.w	31f4 <__aeabi_fmul+0x114>
    337c:	e75f      	b.n	323e <__aeabi_fmul+0x15e>
    337e:	bf00      	nop

00003380 <__aeabi_f2iz>:
    3380:	ea4f 0240 	mov.w	r2, r0, lsl #1
    3384:	f1b2 4ffe 	cmp.w	r2, #2130706432	; 0x7f000000
    3388:	d30f      	bcc.n	33aa <__aeabi_f2iz+0x2a>
    338a:	f04f 039e 	mov.w	r3, #158	; 0x9e
    338e:	ebb3 6212 	subs.w	r2, r3, r2, lsr #24
    3392:	d90d      	bls.n	33b0 <__aeabi_f2iz+0x30>
    3394:	ea4f 2300 	mov.w	r3, r0, lsl #8
    3398:	f043 4300 	orr.w	r3, r3, #2147483648	; 0x80000000
    339c:	f010 4f00 	tst.w	r0, #2147483648	; 0x80000000
    33a0:	fa23 f002 	lsr.w	r0, r3, r2
    33a4:	bf18      	it	ne
    33a6:	4240      	negne	r0, r0
    33a8:	4770      	bx	lr
    33aa:	f04f 0000 	mov.w	r0, #0
    33ae:	4770      	bx	lr
    33b0:	f112 0f61 	cmn.w	r2, #97	; 0x61
    33b4:	d101      	bne.n	33ba <__aeabi_f2iz+0x3a>
    33b6:	0242      	lsls	r2, r0, #9
    33b8:	d105      	bne.n	33c6 <__aeabi_f2iz+0x46>
    33ba:	f010 4000 	ands.w	r0, r0, #2147483648	; 0x80000000
    33be:	bf08      	it	eq
    33c0:	f06f 4000 	mvneq.w	r0, #2147483648	; 0x80000000
    33c4:	4770      	bx	lr
    33c6:	f04f 0000 	mov.w	r0, #0
    33ca:	4770      	bx	lr

000033cc <__errno>:
    33cc:	4b01      	ldr	r3, [pc, #4]	; (33d4 <__errno+0x8>)
    33ce:	6818      	ldr	r0, [r3, #0]
    33d0:	4770      	bx	lr
    33d2:	bf00      	nop
    33d4:	100000d4 	.word	0x100000d4

000033d8 <_fclose_r>:
    33d8:	b570      	push	{r4, r5, r6, lr}
    33da:	4605      	mov	r5, r0
    33dc:	460c      	mov	r4, r1
    33de:	b911      	cbnz	r1, 33e6 <_fclose_r+0xe>
    33e0:	2600      	movs	r6, #0
    33e2:	4630      	mov	r0, r6
    33e4:	bd70      	pop	{r4, r5, r6, pc}
    33e6:	b118      	cbz	r0, 33f0 <_fclose_r+0x18>
    33e8:	6983      	ldr	r3, [r0, #24]
    33ea:	b90b      	cbnz	r3, 33f0 <_fclose_r+0x18>
    33ec:	f000 f952 	bl	3694 <__sinit>
    33f0:	4b1f      	ldr	r3, [pc, #124]	; (3470 <_fclose_r+0x98>)
    33f2:	429c      	cmp	r4, r3
    33f4:	d132      	bne.n	345c <_fclose_r+0x84>
    33f6:	686c      	ldr	r4, [r5, #4]
    33f8:	f9b4 300c 	ldrsh.w	r3, [r4, #12]
    33fc:	2b00      	cmp	r3, #0
    33fe:	d0ef      	beq.n	33e0 <_fclose_r+0x8>
    3400:	4621      	mov	r1, r4
    3402:	4628      	mov	r0, r5
    3404:	f000 f842 	bl	348c <__sflush_r>
    3408:	6b23      	ldr	r3, [r4, #48]	; 0x30
    340a:	4606      	mov	r6, r0
    340c:	b133      	cbz	r3, 341c <_fclose_r+0x44>
    340e:	6a21      	ldr	r1, [r4, #32]
    3410:	4628      	mov	r0, r5
    3412:	4798      	blx	r3
    3414:	2800      	cmp	r0, #0
    3416:	bfb8      	it	lt
    3418:	f04f 36ff 	movlt.w	r6, #4294967295	; 0xffffffff
    341c:	89a3      	ldrh	r3, [r4, #12]
    341e:	061b      	lsls	r3, r3, #24
    3420:	d503      	bpl.n	342a <_fclose_r+0x52>
    3422:	6921      	ldr	r1, [r4, #16]
    3424:	4628      	mov	r0, r5
    3426:	f7fe feab 	bl	2180 <__wrap__free_r>
    342a:	6b61      	ldr	r1, [r4, #52]	; 0x34
    342c:	b141      	cbz	r1, 3440 <_fclose_r+0x68>
    342e:	f104 0344 	add.w	r3, r4, #68	; 0x44
    3432:	4299      	cmp	r1, r3
    3434:	d002      	beq.n	343c <_fclose_r+0x64>
    3436:	4628      	mov	r0, r5
    3438:	f7fe fea2 	bl	2180 <__wrap__free_r>
    343c:	2300      	movs	r3, #0
    343e:	6363      	str	r3, [r4, #52]	; 0x34
    3440:	6ca1      	ldr	r1, [r4, #72]	; 0x48
    3442:	b121      	cbz	r1, 344e <_fclose_r+0x76>
    3444:	4628      	mov	r0, r5
    3446:	f7fe fe9b 	bl	2180 <__wrap__free_r>
    344a:	2300      	movs	r3, #0
    344c:	64a3      	str	r3, [r4, #72]	; 0x48
    344e:	f000 f98d 	bl	376c <__sfp_lock_acquire>
    3452:	2300      	movs	r3, #0
    3454:	81a3      	strh	r3, [r4, #12]
    3456:	f000 f98a 	bl	376e <__sfp_lock_release>
    345a:	e7c2      	b.n	33e2 <_fclose_r+0xa>
    345c:	4b05      	ldr	r3, [pc, #20]	; (3474 <_fclose_r+0x9c>)
    345e:	429c      	cmp	r4, r3
    3460:	d101      	bne.n	3466 <_fclose_r+0x8e>
    3462:	68ac      	ldr	r4, [r5, #8]
    3464:	e7c8      	b.n	33f8 <_fclose_r+0x20>
    3466:	4b04      	ldr	r3, [pc, #16]	; (3478 <_fclose_r+0xa0>)
    3468:	429c      	cmp	r4, r3
    346a:	bf08      	it	eq
    346c:	68ec      	ldreq	r4, [r5, #12]
    346e:	e7c3      	b.n	33f8 <_fclose_r+0x20>
    3470:	00007354 	.word	0x00007354
    3474:	00007374 	.word	0x00007374
    3478:	00007334 	.word	0x00007334

0000347c <fclose>:
    347c:	4b02      	ldr	r3, [pc, #8]	; (3488 <fclose+0xc>)
    347e:	4601      	mov	r1, r0
    3480:	6818      	ldr	r0, [r3, #0]
    3482:	f7ff bfa9 	b.w	33d8 <_fclose_r>
    3486:	bf00      	nop
    3488:	100000d4 	.word	0x100000d4

0000348c <__sflush_r>:
    348c:	898a      	ldrh	r2, [r1, #12]
    348e:	e92d 41f0 	stmdb	sp!, {r4, r5, r6, r7, r8, lr}
    3492:	4605      	mov	r5, r0
    3494:	0710      	lsls	r0, r2, #28
    3496:	460c      	mov	r4, r1
    3498:	d45a      	bmi.n	3550 <__sflush_r+0xc4>
    349a:	684b      	ldr	r3, [r1, #4]
    349c:	2b00      	cmp	r3, #0
    349e:	dc05      	bgt.n	34ac <__sflush_r+0x20>
    34a0:	6c0b      	ldr	r3, [r1, #64]	; 0x40
    34a2:	2b00      	cmp	r3, #0
    34a4:	dc02      	bgt.n	34ac <__sflush_r+0x20>
    34a6:	2000      	movs	r0, #0
    34a8:	e8bd 81f0 	ldmia.w	sp!, {r4, r5, r6, r7, r8, pc}
    34ac:	6ae6      	ldr	r6, [r4, #44]	; 0x2c
    34ae:	2e00      	cmp	r6, #0
    34b0:	d0f9      	beq.n	34a6 <__sflush_r+0x1a>
    34b2:	2300      	movs	r3, #0
    34b4:	f412 5280 	ands.w	r2, r2, #4096	; 0x1000
    34b8:	682f      	ldr	r7, [r5, #0]
    34ba:	602b      	str	r3, [r5, #0]
    34bc:	d033      	beq.n	3526 <__sflush_r+0x9a>
    34be:	6d60      	ldr	r0, [r4, #84]	; 0x54
    34c0:	89a3      	ldrh	r3, [r4, #12]
    34c2:	075a      	lsls	r2, r3, #29
    34c4:	d505      	bpl.n	34d2 <__sflush_r+0x46>
    34c6:	6863      	ldr	r3, [r4, #4]
    34c8:	1ac0      	subs	r0, r0, r3
    34ca:	6b63      	ldr	r3, [r4, #52]	; 0x34
    34cc:	b10b      	cbz	r3, 34d2 <__sflush_r+0x46>
    34ce:	6c23      	ldr	r3, [r4, #64]	; 0x40
    34d0:	1ac0      	subs	r0, r0, r3
    34d2:	2300      	movs	r3, #0
    34d4:	4602      	mov	r2, r0
    34d6:	6ae6      	ldr	r6, [r4, #44]	; 0x2c
    34d8:	6a21      	ldr	r1, [r4, #32]
    34da:	4628      	mov	r0, r5
    34dc:	47b0      	blx	r6
    34de:	1c43      	adds	r3, r0, #1
    34e0:	89a3      	ldrh	r3, [r4, #12]
    34e2:	d106      	bne.n	34f2 <__sflush_r+0x66>
    34e4:	6829      	ldr	r1, [r5, #0]
    34e6:	291d      	cmp	r1, #29
    34e8:	d84b      	bhi.n	3582 <__sflush_r+0xf6>
    34ea:	4a2b      	ldr	r2, [pc, #172]	; (3598 <__sflush_r+0x10c>)
    34ec:	40ca      	lsrs	r2, r1
    34ee:	07d6      	lsls	r6, r2, #31
    34f0:	d547      	bpl.n	3582 <__sflush_r+0xf6>
    34f2:	2200      	movs	r2, #0
    34f4:	6062      	str	r2, [r4, #4]
    34f6:	6922      	ldr	r2, [r4, #16]
    34f8:	04d9      	lsls	r1, r3, #19
    34fa:	6022      	str	r2, [r4, #0]
    34fc:	d504      	bpl.n	3508 <__sflush_r+0x7c>
    34fe:	1c42      	adds	r2, r0, #1
    3500:	d101      	bne.n	3506 <__sflush_r+0x7a>
    3502:	682b      	ldr	r3, [r5, #0]
    3504:	b903      	cbnz	r3, 3508 <__sflush_r+0x7c>
    3506:	6560      	str	r0, [r4, #84]	; 0x54
    3508:	6b61      	ldr	r1, [r4, #52]	; 0x34
    350a:	602f      	str	r7, [r5, #0]
    350c:	2900      	cmp	r1, #0
    350e:	d0ca      	beq.n	34a6 <__sflush_r+0x1a>
    3510:	f104 0344 	add.w	r3, r4, #68	; 0x44
    3514:	4299      	cmp	r1, r3
    3516:	d002      	beq.n	351e <__sflush_r+0x92>
    3518:	4628      	mov	r0, r5
    351a:	f7fe fe31 	bl	2180 <__wrap__free_r>
    351e:	2000      	movs	r0, #0
    3520:	6360      	str	r0, [r4, #52]	; 0x34
    3522:	e8bd 81f0 	ldmia.w	sp!, {r4, r5, r6, r7, r8, pc}
    3526:	6a21      	ldr	r1, [r4, #32]
    3528:	2301      	movs	r3, #1
    352a:	4628      	mov	r0, r5
    352c:	47b0      	blx	r6
    352e:	1c41      	adds	r1, r0, #1
    3530:	d1c6      	bne.n	34c0 <__sflush_r+0x34>
    3532:	682b      	ldr	r3, [r5, #0]
    3534:	2b00      	cmp	r3, #0
    3536:	d0c3      	beq.n	34c0 <__sflush_r+0x34>
    3538:	2b1d      	cmp	r3, #29
    353a:	d001      	beq.n	3540 <__sflush_r+0xb4>
    353c:	2b16      	cmp	r3, #22
    353e:	d101      	bne.n	3544 <__sflush_r+0xb8>
    3540:	602f      	str	r7, [r5, #0]
    3542:	e7b0      	b.n	34a6 <__sflush_r+0x1a>
    3544:	89a3      	ldrh	r3, [r4, #12]
    3546:	f043 0340 	orr.w	r3, r3, #64	; 0x40
    354a:	81a3      	strh	r3, [r4, #12]
    354c:	e8bd 81f0 	ldmia.w	sp!, {r4, r5, r6, r7, r8, pc}
    3550:	690f      	ldr	r7, [r1, #16]
    3552:	2f00      	cmp	r7, #0
    3554:	d0a7      	beq.n	34a6 <__sflush_r+0x1a>
    3556:	0793      	lsls	r3, r2, #30
    3558:	bf18      	it	ne
    355a:	2300      	movne	r3, #0
    355c:	680e      	ldr	r6, [r1, #0]
    355e:	bf08      	it	eq
    3560:	694b      	ldreq	r3, [r1, #20]
    3562:	eba6 0807 	sub.w	r8, r6, r7
    3566:	600f      	str	r7, [r1, #0]
    3568:	608b      	str	r3, [r1, #8]
    356a:	f1b8 0f00 	cmp.w	r8, #0
    356e:	dd9a      	ble.n	34a6 <__sflush_r+0x1a>
    3570:	4643      	mov	r3, r8
    3572:	463a      	mov	r2, r7
    3574:	6a21      	ldr	r1, [r4, #32]
    3576:	4628      	mov	r0, r5
    3578:	6aa6      	ldr	r6, [r4, #40]	; 0x28
    357a:	47b0      	blx	r6
    357c:	2800      	cmp	r0, #0
    357e:	dc07      	bgt.n	3590 <__sflush_r+0x104>
    3580:	89a3      	ldrh	r3, [r4, #12]
    3582:	f043 0340 	orr.w	r3, r3, #64	; 0x40
    3586:	81a3      	strh	r3, [r4, #12]
    3588:	f04f 30ff 	mov.w	r0, #4294967295	; 0xffffffff
    358c:	e8bd 81f0 	ldmia.w	sp!, {r4, r5, r6, r7, r8, pc}
    3590:	4407      	add	r7, r0
    3592:	eba8 0800 	sub.w	r8, r8, r0
    3596:	e7e8      	b.n	356a <__sflush_r+0xde>
    3598:	20400001 	.word	0x20400001

0000359c <_fflush_r>:
    359c:	b538      	push	{r3, r4, r5, lr}
    359e:	690b      	ldr	r3, [r1, #16]
    35a0:	4605      	mov	r5, r0
    35a2:	460c      	mov	r4, r1
    35a4:	b1db      	cbz	r3, 35de <_fflush_r+0x42>
    35a6:	b118      	cbz	r0, 35b0 <_fflush_r+0x14>
    35a8:	6983      	ldr	r3, [r0, #24]
    35aa:	b90b      	cbnz	r3, 35b0 <_fflush_r+0x14>
    35ac:	f000 f872 	bl	3694 <__sinit>
    35b0:	4b0c      	ldr	r3, [pc, #48]	; (35e4 <_fflush_r+0x48>)
    35b2:	429c      	cmp	r4, r3
    35b4:	d109      	bne.n	35ca <_fflush_r+0x2e>
    35b6:	686c      	ldr	r4, [r5, #4]
    35b8:	f9b4 300c 	ldrsh.w	r3, [r4, #12]
    35bc:	b17b      	cbz	r3, 35de <_fflush_r+0x42>
    35be:	4621      	mov	r1, r4
    35c0:	4628      	mov	r0, r5
    35c2:	e8bd 4038 	ldmia.w	sp!, {r3, r4, r5, lr}
    35c6:	f7ff bf61 	b.w	348c <__sflush_r>
    35ca:	4b07      	ldr	r3, [pc, #28]	; (35e8 <_fflush_r+0x4c>)
    35cc:	429c      	cmp	r4, r3
    35ce:	d101      	bne.n	35d4 <_fflush_r+0x38>
    35d0:	68ac      	ldr	r4, [r5, #8]
    35d2:	e7f1      	b.n	35b8 <_fflush_r+0x1c>
    35d4:	4b05      	ldr	r3, [pc, #20]	; (35ec <_fflush_r+0x50>)
    35d6:	429c      	cmp	r4, r3
    35d8:	bf08      	it	eq
    35da:	68ec      	ldreq	r4, [r5, #12]
    35dc:	e7ec      	b.n	35b8 <_fflush_r+0x1c>
    35de:	2000      	movs	r0, #0
    35e0:	bd38      	pop	{r3, r4, r5, pc}
    35e2:	bf00      	nop
    35e4:	00007354 	.word	0x00007354
    35e8:	00007374 	.word	0x00007374
    35ec:	00007334 	.word	0x00007334

000035f0 <fflush>:
    35f0:	4601      	mov	r1, r0
    35f2:	b920      	cbnz	r0, 35fe <fflush+0xe>
    35f4:	4b04      	ldr	r3, [pc, #16]	; (3608 <fflush+0x18>)
    35f6:	4905      	ldr	r1, [pc, #20]	; (360c <fflush+0x1c>)
    35f8:	6818      	ldr	r0, [r3, #0]
    35fa:	f000 b993 	b.w	3924 <_fwalk_reent>
    35fe:	4b04      	ldr	r3, [pc, #16]	; (3610 <fflush+0x20>)
    3600:	6818      	ldr	r0, [r3, #0]
    3602:	f7ff bfcb 	b.w	359c <_fflush_r>
    3606:	bf00      	nop
    3608:	00007394 	.word	0x00007394
    360c:	0000359d 	.word	0x0000359d
    3610:	100000d4 	.word	0x100000d4

00003614 <_cleanup_r>:
    3614:	4901      	ldr	r1, [pc, #4]	; (361c <_cleanup_r+0x8>)
    3616:	f000 b985 	b.w	3924 <_fwalk_reent>
    361a:	bf00      	nop
    361c:	0000359d 	.word	0x0000359d

00003620 <std.isra.0>:
    3620:	2300      	movs	r3, #0
    3622:	b510      	push	{r4, lr}
    3624:	4604      	mov	r4, r0
    3626:	6003      	str	r3, [r0, #0]
    3628:	6043      	str	r3, [r0, #4]
    362a:	6083      	str	r3, [r0, #8]
    362c:	8181      	strh	r1, [r0, #12]
    362e:	6643      	str	r3, [r0, #100]	; 0x64
    3630:	81c2      	strh	r2, [r0, #14]
    3632:	6103      	str	r3, [r0, #16]
    3634:	6143      	str	r3, [r0, #20]
    3636:	6183      	str	r3, [r0, #24]
    3638:	4619      	mov	r1, r3
    363a:	2208      	movs	r2, #8
    363c:	305c      	adds	r0, #92	; 0x5c
    363e:	f000 fa40 	bl	3ac2 <memset>
    3642:	4b05      	ldr	r3, [pc, #20]	; (3658 <std.isra.0+0x38>)
    3644:	6224      	str	r4, [r4, #32]
    3646:	6263      	str	r3, [r4, #36]	; 0x24
    3648:	4b04      	ldr	r3, [pc, #16]	; (365c <std.isra.0+0x3c>)
    364a:	62a3      	str	r3, [r4, #40]	; 0x28
    364c:	4b04      	ldr	r3, [pc, #16]	; (3660 <std.isra.0+0x40>)
    364e:	62e3      	str	r3, [r4, #44]	; 0x2c
    3650:	4b04      	ldr	r3, [pc, #16]	; (3664 <std.isra.0+0x44>)
    3652:	6323      	str	r3, [r4, #48]	; 0x30
    3654:	bd10      	pop	{r4, pc}
    3656:	bf00      	nop
    3658:	00004d45 	.word	0x00004d45
    365c:	00004d6b 	.word	0x00004d6b
    3660:	00004da3 	.word	0x00004da3
    3664:	00004dc7 	.word	0x00004dc7

00003668 <__sfmoreglue>:
    3668:	b570      	push	{r4, r5, r6, lr}
    366a:	2568      	movs	r5, #104	; 0x68
    366c:	1e4a      	subs	r2, r1, #1
    366e:	4355      	muls	r5, r2
    3670:	460e      	mov	r6, r1
    3672:	f105 0174 	add.w	r1, r5, #116	; 0x74
    3676:	f7fe fd7f 	bl	2178 <__wrap__malloc_r>
    367a:	4604      	mov	r4, r0
    367c:	b140      	cbz	r0, 3690 <__sfmoreglue+0x28>
    367e:	2100      	movs	r1, #0
    3680:	e880 0042 	stmia.w	r0, {r1, r6}
    3684:	300c      	adds	r0, #12
    3686:	60a0      	str	r0, [r4, #8]
    3688:	f105 0268 	add.w	r2, r5, #104	; 0x68
    368c:	f000 fa19 	bl	3ac2 <memset>
    3690:	4620      	mov	r0, r4
    3692:	bd70      	pop	{r4, r5, r6, pc}

00003694 <__sinit>:
    3694:	6983      	ldr	r3, [r0, #24]
    3696:	b510      	push	{r4, lr}
    3698:	4604      	mov	r4, r0
    369a:	bb33      	cbnz	r3, 36ea <__sinit+0x56>
    369c:	6483      	str	r3, [r0, #72]	; 0x48
    369e:	64c3      	str	r3, [r0, #76]	; 0x4c
    36a0:	6503      	str	r3, [r0, #80]	; 0x50
    36a2:	4b12      	ldr	r3, [pc, #72]	; (36ec <__sinit+0x58>)
    36a4:	4a12      	ldr	r2, [pc, #72]	; (36f0 <__sinit+0x5c>)
    36a6:	681b      	ldr	r3, [r3, #0]
    36a8:	6282      	str	r2, [r0, #40]	; 0x28
    36aa:	4298      	cmp	r0, r3
    36ac:	bf04      	itt	eq
    36ae:	2301      	moveq	r3, #1
    36b0:	6183      	streq	r3, [r0, #24]
    36b2:	f000 f81f 	bl	36f4 <__sfp>
    36b6:	6060      	str	r0, [r4, #4]
    36b8:	4620      	mov	r0, r4
    36ba:	f000 f81b 	bl	36f4 <__sfp>
    36be:	60a0      	str	r0, [r4, #8]
    36c0:	4620      	mov	r0, r4
    36c2:	f000 f817 	bl	36f4 <__sfp>
    36c6:	2200      	movs	r2, #0
    36c8:	60e0      	str	r0, [r4, #12]
    36ca:	2104      	movs	r1, #4
    36cc:	6860      	ldr	r0, [r4, #4]
    36ce:	f7ff ffa7 	bl	3620 <std.isra.0>
    36d2:	2201      	movs	r2, #1
    36d4:	2109      	movs	r1, #9
    36d6:	68a0      	ldr	r0, [r4, #8]
    36d8:	f7ff ffa2 	bl	3620 <std.isra.0>
    36dc:	2202      	movs	r2, #2
    36de:	2112      	movs	r1, #18
    36e0:	68e0      	ldr	r0, [r4, #12]
    36e2:	f7ff ff9d 	bl	3620 <std.isra.0>
    36e6:	2301      	movs	r3, #1
    36e8:	61a3      	str	r3, [r4, #24]
    36ea:	bd10      	pop	{r4, pc}
    36ec:	00007394 	.word	0x00007394
    36f0:	00003615 	.word	0x00003615

000036f4 <__sfp>:
    36f4:	b5f8      	push	{r3, r4, r5, r6, r7, lr}
    36f6:	4b1c      	ldr	r3, [pc, #112]	; (3768 <__sfp+0x74>)
    36f8:	4607      	mov	r7, r0
    36fa:	681e      	ldr	r6, [r3, #0]
    36fc:	69b3      	ldr	r3, [r6, #24]
    36fe:	b913      	cbnz	r3, 3706 <__sfp+0x12>
    3700:	4630      	mov	r0, r6
    3702:	f7ff ffc7 	bl	3694 <__sinit>
    3706:	3648      	adds	r6, #72	; 0x48
    3708:	68b4      	ldr	r4, [r6, #8]
    370a:	6873      	ldr	r3, [r6, #4]
    370c:	3b01      	subs	r3, #1
    370e:	d503      	bpl.n	3718 <__sfp+0x24>
    3710:	6833      	ldr	r3, [r6, #0]
    3712:	b133      	cbz	r3, 3722 <__sfp+0x2e>
    3714:	6836      	ldr	r6, [r6, #0]
    3716:	e7f7      	b.n	3708 <__sfp+0x14>
    3718:	f9b4 500c 	ldrsh.w	r5, [r4, #12]
    371c:	b16d      	cbz	r5, 373a <__sfp+0x46>
    371e:	3468      	adds	r4, #104	; 0x68
    3720:	e7f4      	b.n	370c <__sfp+0x18>
    3722:	2104      	movs	r1, #4
    3724:	4638      	mov	r0, r7
    3726:	f7ff ff9f 	bl	3668 <__sfmoreglue>
    372a:	6030      	str	r0, [r6, #0]
    372c:	2800      	cmp	r0, #0
    372e:	d1f1      	bne.n	3714 <__sfp+0x20>
    3730:	230c      	movs	r3, #12
    3732:	4604      	mov	r4, r0
    3734:	603b      	str	r3, [r7, #0]
    3736:	4620      	mov	r0, r4
    3738:	bdf8      	pop	{r3, r4, r5, r6, r7, pc}
    373a:	f64f 73ff 	movw	r3, #65535	; 0xffff
    373e:	81e3      	strh	r3, [r4, #14]
    3740:	2301      	movs	r3, #1
    3742:	6665      	str	r5, [r4, #100]	; 0x64
    3744:	81a3      	strh	r3, [r4, #12]
    3746:	6025      	str	r5, [r4, #0]
    3748:	60a5      	str	r5, [r4, #8]
    374a:	6065      	str	r5, [r4, #4]
    374c:	6125      	str	r5, [r4, #16]
    374e:	6165      	str	r5, [r4, #20]
    3750:	61a5      	str	r5, [r4, #24]
    3752:	2208      	movs	r2, #8
    3754:	4629      	mov	r1, r5
    3756:	f104 005c 	add.w	r0, r4, #92	; 0x5c
    375a:	f000 f9b2 	bl	3ac2 <memset>
    375e:	6365      	str	r5, [r4, #52]	; 0x34
    3760:	63a5      	str	r5, [r4, #56]	; 0x38
    3762:	64a5      	str	r5, [r4, #72]	; 0x48
    3764:	64e5      	str	r5, [r4, #76]	; 0x4c
    3766:	e7e6      	b.n	3736 <__sfp+0x42>
    3768:	00007394 	.word	0x00007394

0000376c <__sfp_lock_acquire>:
    376c:	4770      	bx	lr

0000376e <__sfp_lock_release>:
    376e:	4770      	bx	lr

00003770 <_fopen_r>:
    3770:	b5f7      	push	{r0, r1, r2, r4, r5, r6, r7, lr}
    3772:	460f      	mov	r7, r1
    3774:	4611      	mov	r1, r2
    3776:	aa01      	add	r2, sp, #4
    3778:	4605      	mov	r5, r0
    377a:	f002 fbed 	bl	5f58 <__sflags>
    377e:	4606      	mov	r6, r0
    3780:	b918      	cbnz	r0, 378a <_fopen_r+0x1a>
    3782:	2400      	movs	r4, #0
    3784:	4620      	mov	r0, r4
    3786:	b003      	add	sp, #12
    3788:	bdf0      	pop	{r4, r5, r6, r7, pc}
    378a:	4628      	mov	r0, r5
    378c:	f7ff ffb2 	bl	36f4 <__sfp>
    3790:	4604      	mov	r4, r0
    3792:	2800      	cmp	r0, #0
    3794:	d0f5      	beq.n	3782 <_fopen_r+0x12>
    3796:	f44f 73db 	mov.w	r3, #438	; 0x1b6
    379a:	9a01      	ldr	r2, [sp, #4]
    379c:	4639      	mov	r1, r7
    379e:	4628      	mov	r0, r5
    37a0:	f001 f97a 	bl	4a98 <_open_r>
    37a4:	2800      	cmp	r0, #0
    37a6:	da06      	bge.n	37b6 <_fopen_r+0x46>
    37a8:	2500      	movs	r5, #0
    37aa:	f7ff ffdf 	bl	376c <__sfp_lock_acquire>
    37ae:	81a5      	strh	r5, [r4, #12]
    37b0:	f7ff ffdd 	bl	376e <__sfp_lock_release>
    37b4:	e7e5      	b.n	3782 <_fopen_r+0x12>
    37b6:	4b0a      	ldr	r3, [pc, #40]	; (37e0 <_fopen_r+0x70>)
    37b8:	81e0      	strh	r0, [r4, #14]
    37ba:	6263      	str	r3, [r4, #36]	; 0x24
    37bc:	4b09      	ldr	r3, [pc, #36]	; (37e4 <_fopen_r+0x74>)
    37be:	81a6      	strh	r6, [r4, #12]
    37c0:	62a3      	str	r3, [r4, #40]	; 0x28
    37c2:	4b09      	ldr	r3, [pc, #36]	; (37e8 <_fopen_r+0x78>)
    37c4:	6224      	str	r4, [r4, #32]
    37c6:	62e3      	str	r3, [r4, #44]	; 0x2c
    37c8:	4b08      	ldr	r3, [pc, #32]	; (37ec <_fopen_r+0x7c>)
    37ca:	6323      	str	r3, [r4, #48]	; 0x30
    37cc:	05f3      	lsls	r3, r6, #23
    37ce:	d5d9      	bpl.n	3784 <_fopen_r+0x14>
    37d0:	2302      	movs	r3, #2
    37d2:	2200      	movs	r2, #0
    37d4:	4621      	mov	r1, r4
    37d6:	4628      	mov	r0, r5
    37d8:	f000 f812 	bl	3800 <_fseek_r>
    37dc:	e7d2      	b.n	3784 <_fopen_r+0x14>
    37de:	bf00      	nop
    37e0:	00004d45 	.word	0x00004d45
    37e4:	00004d6b 	.word	0x00004d6b
    37e8:	00004da3 	.word	0x00004da3
    37ec:	00004dc7 	.word	0x00004dc7

000037f0 <fopen>:
    37f0:	4b02      	ldr	r3, [pc, #8]	; (37fc <fopen+0xc>)
    37f2:	460a      	mov	r2, r1
    37f4:	4601      	mov	r1, r0
    37f6:	6818      	ldr	r0, [r3, #0]
    37f8:	f7ff bfba 	b.w	3770 <_fopen_r>
    37fc:	100000d4 	.word	0x100000d4

00003800 <_fseek_r>:
    3800:	f000 b800 	b.w	3804 <_fseeko_r>

00003804 <_fseeko_r>:
    3804:	e92d 43f8 	stmdb	sp!, {r3, r4, r5, r6, r7, r8, r9, lr}
    3808:	460c      	mov	r4, r1
    380a:	4691      	mov	r9, r2
    380c:	461e      	mov	r6, r3
    380e:	4605      	mov	r5, r0
    3810:	b118      	cbz	r0, 381a <_fseeko_r+0x16>
    3812:	6983      	ldr	r3, [r0, #24]
    3814:	b90b      	cbnz	r3, 381a <_fseeko_r+0x16>
    3816:	f7ff ff3d 	bl	3694 <__sinit>
    381a:	4b3f      	ldr	r3, [pc, #252]	; (3918 <_fseeko_r+0x114>)
    381c:	429c      	cmp	r4, r3
    381e:	d112      	bne.n	3846 <_fseeko_r+0x42>
    3820:	686c      	ldr	r4, [r5, #4]
    3822:	89a3      	ldrh	r3, [r4, #12]
    3824:	f403 7384 	and.w	r3, r3, #264	; 0x108
    3828:	f5b3 7f84 	cmp.w	r3, #264	; 0x108
    382c:	d103      	bne.n	3836 <_fseeko_r+0x32>
    382e:	4621      	mov	r1, r4
    3830:	4628      	mov	r0, r5
    3832:	f7ff feb3 	bl	359c <_fflush_r>
    3836:	f8d4 802c 	ldr.w	r8, [r4, #44]	; 0x2c
    383a:	f1b8 0f00 	cmp.w	r8, #0
    383e:	d10c      	bne.n	385a <_fseeko_r+0x56>
    3840:	231d      	movs	r3, #29
    3842:	602b      	str	r3, [r5, #0]
    3844:	e057      	b.n	38f6 <_fseeko_r+0xf2>
    3846:	4b35      	ldr	r3, [pc, #212]	; (391c <_fseeko_r+0x118>)
    3848:	429c      	cmp	r4, r3
    384a:	d101      	bne.n	3850 <_fseeko_r+0x4c>
    384c:	68ac      	ldr	r4, [r5, #8]
    384e:	e7e8      	b.n	3822 <_fseeko_r+0x1e>
    3850:	4b33      	ldr	r3, [pc, #204]	; (3920 <_fseeko_r+0x11c>)
    3852:	429c      	cmp	r4, r3
    3854:	bf08      	it	eq
    3856:	68ec      	ldreq	r4, [r5, #12]
    3858:	e7e3      	b.n	3822 <_fseeko_r+0x1e>
    385a:	2e01      	cmp	r6, #1
    385c:	d030      	beq.n	38c0 <_fseeko_r+0xbc>
    385e:	2e02      	cmp	r6, #2
    3860:	d001      	beq.n	3866 <_fseeko_r+0x62>
    3862:	2e00      	cmp	r6, #0
    3864:	d155      	bne.n	3912 <_fseeko_r+0x10e>
    3866:	6923      	ldr	r3, [r4, #16]
    3868:	b91b      	cbnz	r3, 3872 <_fseeko_r+0x6e>
    386a:	4621      	mov	r1, r4
    386c:	4628      	mov	r0, r5
    386e:	f000 f8bf 	bl	39f0 <__smakebuf_r>
    3872:	4621      	mov	r1, r4
    3874:	4628      	mov	r0, r5
    3876:	f7ff fe91 	bl	359c <_fflush_r>
    387a:	4607      	mov	r7, r0
    387c:	2800      	cmp	r0, #0
    387e:	d13a      	bne.n	38f6 <_fseeko_r+0xf2>
    3880:	4633      	mov	r3, r6
    3882:	464a      	mov	r2, r9
    3884:	6a21      	ldr	r1, [r4, #32]
    3886:	4628      	mov	r0, r5
    3888:	47c0      	blx	r8
    388a:	3001      	adds	r0, #1
    388c:	d033      	beq.n	38f6 <_fseeko_r+0xf2>
    388e:	6b61      	ldr	r1, [r4, #52]	; 0x34
    3890:	b141      	cbz	r1, 38a4 <_fseeko_r+0xa0>
    3892:	f104 0344 	add.w	r3, r4, #68	; 0x44
    3896:	4299      	cmp	r1, r3
    3898:	d002      	beq.n	38a0 <_fseeko_r+0x9c>
    389a:	4628      	mov	r0, r5
    389c:	f7fe fc70 	bl	2180 <__wrap__free_r>
    38a0:	2300      	movs	r3, #0
    38a2:	6363      	str	r3, [r4, #52]	; 0x34
    38a4:	2100      	movs	r1, #0
    38a6:	6923      	ldr	r3, [r4, #16]
    38a8:	6061      	str	r1, [r4, #4]
    38aa:	6023      	str	r3, [r4, #0]
    38ac:	89a3      	ldrh	r3, [r4, #12]
    38ae:	2208      	movs	r2, #8
    38b0:	f423 6302 	bic.w	r3, r3, #2080	; 0x820
    38b4:	81a3      	strh	r3, [r4, #12]
    38b6:	f104 005c 	add.w	r0, r4, #92	; 0x5c
    38ba:	f000 f902 	bl	3ac2 <memset>
    38be:	e01c      	b.n	38fa <_fseeko_r+0xf6>
    38c0:	4621      	mov	r1, r4
    38c2:	4628      	mov	r0, r5
    38c4:	f7ff fe6a 	bl	359c <_fflush_r>
    38c8:	89a2      	ldrh	r2, [r4, #12]
    38ca:	f412 5280 	ands.w	r2, r2, #4096	; 0x1000
    38ce:	d00c      	beq.n	38ea <_fseeko_r+0xe6>
    38d0:	6d60      	ldr	r0, [r4, #84]	; 0x54
    38d2:	89a3      	ldrh	r3, [r4, #12]
    38d4:	075a      	lsls	r2, r3, #29
    38d6:	d513      	bpl.n	3900 <_fseeko_r+0xfc>
    38d8:	6863      	ldr	r3, [r4, #4]
    38da:	1ac0      	subs	r0, r0, r3
    38dc:	6b63      	ldr	r3, [r4, #52]	; 0x34
    38de:	b10b      	cbz	r3, 38e4 <_fseeko_r+0xe0>
    38e0:	6c23      	ldr	r3, [r4, #64]	; 0x40
    38e2:	1ac0      	subs	r0, r0, r3
    38e4:	4481      	add	r9, r0
    38e6:	2600      	movs	r6, #0
    38e8:	e7bd      	b.n	3866 <_fseeko_r+0x62>
    38ea:	6a21      	ldr	r1, [r4, #32]
    38ec:	4633      	mov	r3, r6
    38ee:	4628      	mov	r0, r5
    38f0:	47c0      	blx	r8
    38f2:	1c41      	adds	r1, r0, #1
    38f4:	d1ed      	bne.n	38d2 <_fseeko_r+0xce>
    38f6:	f04f 37ff 	mov.w	r7, #4294967295	; 0xffffffff
    38fa:	4638      	mov	r0, r7
    38fc:	e8bd 83f8 	ldmia.w	sp!, {r3, r4, r5, r6, r7, r8, r9, pc}
    3900:	071b      	lsls	r3, r3, #28
    3902:	d5ef      	bpl.n	38e4 <_fseeko_r+0xe0>
    3904:	6823      	ldr	r3, [r4, #0]
    3906:	2b00      	cmp	r3, #0
    3908:	d0ec      	beq.n	38e4 <_fseeko_r+0xe0>
    390a:	6922      	ldr	r2, [r4, #16]
    390c:	1a9b      	subs	r3, r3, r2
    390e:	4418      	add	r0, r3
    3910:	e7e8      	b.n	38e4 <_fseeko_r+0xe0>
    3912:	2316      	movs	r3, #22
    3914:	e795      	b.n	3842 <_fseeko_r+0x3e>
    3916:	bf00      	nop
    3918:	00007354 	.word	0x00007354
    391c:	00007374 	.word	0x00007374
    3920:	00007334 	.word	0x00007334

00003924 <_fwalk_reent>:
    3924:	e92d 43f8 	stmdb	sp!, {r3, r4, r5, r6, r7, r8, r9, lr}
    3928:	4680      	mov	r8, r0
    392a:	4689      	mov	r9, r1
    392c:	2600      	movs	r6, #0
    392e:	f100 0448 	add.w	r4, r0, #72	; 0x48
    3932:	b914      	cbnz	r4, 393a <_fwalk_reent+0x16>
    3934:	4630      	mov	r0, r6
    3936:	e8bd 83f8 	ldmia.w	sp!, {r3, r4, r5, r6, r7, r8, r9, pc}
    393a:	68a5      	ldr	r5, [r4, #8]
    393c:	6867      	ldr	r7, [r4, #4]
    393e:	3f01      	subs	r7, #1
    3940:	d501      	bpl.n	3946 <_fwalk_reent+0x22>
    3942:	6824      	ldr	r4, [r4, #0]
    3944:	e7f5      	b.n	3932 <_fwalk_reent+0xe>
    3946:	89ab      	ldrh	r3, [r5, #12]
    3948:	2b01      	cmp	r3, #1
    394a:	d907      	bls.n	395c <_fwalk_reent+0x38>
    394c:	f9b5 300e 	ldrsh.w	r3, [r5, #14]
    3950:	3301      	adds	r3, #1
    3952:	d003      	beq.n	395c <_fwalk_reent+0x38>
    3954:	4629      	mov	r1, r5
    3956:	4640      	mov	r0, r8
    3958:	47c8      	blx	r9
    395a:	4306      	orrs	r6, r0
    395c:	3568      	adds	r5, #104	; 0x68
    395e:	e7ee      	b.n	393e <_fwalk_reent+0x1a>

00003960 <__libc_init_array>:
    3960:	b570      	push	{r4, r5, r6, lr}
    3962:	2500      	movs	r5, #0
    3964:	4e0c      	ldr	r6, [pc, #48]	; (3998 <__libc_init_array+0x38>)
    3966:	4c0d      	ldr	r4, [pc, #52]	; (399c <__libc_init_array+0x3c>)
    3968:	1ba4      	subs	r4, r4, r6
    396a:	10a4      	asrs	r4, r4, #2
    396c:	42a5      	cmp	r5, r4
    396e:	d109      	bne.n	3984 <__libc_init_array+0x24>
    3970:	f003 fa3e 	bl	6df0 <_init>
    3974:	2500      	movs	r5, #0
    3976:	4e0a      	ldr	r6, [pc, #40]	; (39a0 <__libc_init_array+0x40>)
    3978:	4c0a      	ldr	r4, [pc, #40]	; (39a4 <__libc_init_array+0x44>)
    397a:	1ba4      	subs	r4, r4, r6
    397c:	10a4      	asrs	r4, r4, #2
    397e:	42a5      	cmp	r5, r4
    3980:	d105      	bne.n	398e <__libc_init_array+0x2e>
    3982:	bd70      	pop	{r4, r5, r6, pc}
    3984:	f856 3025 	ldr.w	r3, [r6, r5, lsl #2]
    3988:	4798      	blx	r3
    398a:	3501      	adds	r5, #1
    398c:	e7ee      	b.n	396c <__libc_init_array+0xc>
    398e:	f856 3025 	ldr.w	r3, [r6, r5, lsl #2]
    3992:	4798      	blx	r3
    3994:	3501      	adds	r5, #1
    3996:	e7f2      	b.n	397e <__libc_init_array+0x1e>
    3998:	100002a4 	.word	0x100002a4
    399c:	100002a4 	.word	0x100002a4
    39a0:	100002a4 	.word	0x100002a4
    39a4:	100002ac 	.word	0x100002ac

000039a8 <__swhatbuf_r>:
    39a8:	b570      	push	{r4, r5, r6, lr}
    39aa:	460e      	mov	r6, r1
    39ac:	f9b1 100e 	ldrsh.w	r1, [r1, #14]
    39b0:	b090      	sub	sp, #64	; 0x40
    39b2:	2900      	cmp	r1, #0
    39b4:	4614      	mov	r4, r2
    39b6:	461d      	mov	r5, r3
    39b8:	da07      	bge.n	39ca <__swhatbuf_r+0x22>
    39ba:	2300      	movs	r3, #0
    39bc:	602b      	str	r3, [r5, #0]
    39be:	89b3      	ldrh	r3, [r6, #12]
    39c0:	061a      	lsls	r2, r3, #24
    39c2:	d410      	bmi.n	39e6 <__swhatbuf_r+0x3e>
    39c4:	f44f 6380 	mov.w	r3, #1024	; 0x400
    39c8:	e00e      	b.n	39e8 <__swhatbuf_r+0x40>
    39ca:	aa01      	add	r2, sp, #4
    39cc:	f002 fafa 	bl	5fc4 <_fstat_r>
    39d0:	2800      	cmp	r0, #0
    39d2:	dbf2      	blt.n	39ba <__swhatbuf_r+0x12>
    39d4:	9a02      	ldr	r2, [sp, #8]
    39d6:	f402 4270 	and.w	r2, r2, #61440	; 0xf000
    39da:	f5a2 5300 	sub.w	r3, r2, #8192	; 0x2000
    39de:	425a      	negs	r2, r3
    39e0:	415a      	adcs	r2, r3
    39e2:	602a      	str	r2, [r5, #0]
    39e4:	e7ee      	b.n	39c4 <__swhatbuf_r+0x1c>
    39e6:	2340      	movs	r3, #64	; 0x40
    39e8:	2000      	movs	r0, #0
    39ea:	6023      	str	r3, [r4, #0]
    39ec:	b010      	add	sp, #64	; 0x40
    39ee:	bd70      	pop	{r4, r5, r6, pc}

000039f0 <__smakebuf_r>:
    39f0:	898b      	ldrh	r3, [r1, #12]
    39f2:	b573      	push	{r0, r1, r4, r5, r6, lr}
    39f4:	079d      	lsls	r5, r3, #30
    39f6:	4606      	mov	r6, r0
    39f8:	460c      	mov	r4, r1
    39fa:	d507      	bpl.n	3a0c <__smakebuf_r+0x1c>
    39fc:	f104 0347 	add.w	r3, r4, #71	; 0x47
    3a00:	6023      	str	r3, [r4, #0]
    3a02:	6123      	str	r3, [r4, #16]
    3a04:	2301      	movs	r3, #1
    3a06:	6163      	str	r3, [r4, #20]
    3a08:	b002      	add	sp, #8
    3a0a:	bd70      	pop	{r4, r5, r6, pc}
    3a0c:	ab01      	add	r3, sp, #4
    3a0e:	466a      	mov	r2, sp
    3a10:	f7ff ffca 	bl	39a8 <__swhatbuf_r>
    3a14:	9900      	ldr	r1, [sp, #0]
    3a16:	4605      	mov	r5, r0
    3a18:	4630      	mov	r0, r6
    3a1a:	f7fe fbad 	bl	2178 <__wrap__malloc_r>
    3a1e:	b948      	cbnz	r0, 3a34 <__smakebuf_r+0x44>
    3a20:	f9b4 300c 	ldrsh.w	r3, [r4, #12]
    3a24:	059a      	lsls	r2, r3, #22
    3a26:	d4ef      	bmi.n	3a08 <__smakebuf_r+0x18>
    3a28:	f023 0303 	bic.w	r3, r3, #3
    3a2c:	f043 0302 	orr.w	r3, r3, #2
    3a30:	81a3      	strh	r3, [r4, #12]
    3a32:	e7e3      	b.n	39fc <__smakebuf_r+0xc>
    3a34:	4b0d      	ldr	r3, [pc, #52]	; (3a6c <__smakebuf_r+0x7c>)
    3a36:	62b3      	str	r3, [r6, #40]	; 0x28
    3a38:	89a3      	ldrh	r3, [r4, #12]
    3a3a:	6020      	str	r0, [r4, #0]
    3a3c:	f043 0380 	orr.w	r3, r3, #128	; 0x80
    3a40:	81a3      	strh	r3, [r4, #12]
    3a42:	9b00      	ldr	r3, [sp, #0]
    3a44:	6120      	str	r0, [r4, #16]
    3a46:	6163      	str	r3, [r4, #20]
    3a48:	9b01      	ldr	r3, [sp, #4]
    3a4a:	b15b      	cbz	r3, 3a64 <__smakebuf_r+0x74>
    3a4c:	f9b4 100e 	ldrsh.w	r1, [r4, #14]
    3a50:	4630      	mov	r0, r6
    3a52:	f002 fac9 	bl	5fe8 <_isatty_r>
    3a56:	b128      	cbz	r0, 3a64 <__smakebuf_r+0x74>
    3a58:	89a3      	ldrh	r3, [r4, #12]
    3a5a:	f023 0303 	bic.w	r3, r3, #3
    3a5e:	f043 0301 	orr.w	r3, r3, #1
    3a62:	81a3      	strh	r3, [r4, #12]
    3a64:	89a3      	ldrh	r3, [r4, #12]
    3a66:	431d      	orrs	r5, r3
    3a68:	81a5      	strh	r5, [r4, #12]
    3a6a:	e7cd      	b.n	3a08 <__smakebuf_r+0x18>
    3a6c:	00003615 	.word	0x00003615

00003a70 <malloc>:
    3a70:	4b02      	ldr	r3, [pc, #8]	; (3a7c <malloc+0xc>)
    3a72:	4601      	mov	r1, r0
    3a74:	6818      	ldr	r0, [r3, #0]
    3a76:	f7fe bb7f 	b.w	2178 <__wrap__malloc_r>
    3a7a:	bf00      	nop
    3a7c:	100000d4 	.word	0x100000d4

00003a80 <free>:
    3a80:	4b02      	ldr	r3, [pc, #8]	; (3a8c <free+0xc>)
    3a82:	4601      	mov	r1, r0
    3a84:	6818      	ldr	r0, [r3, #0]
    3a86:	f7fe bb7b 	b.w	2180 <__wrap__free_r>
    3a8a:	bf00      	nop
    3a8c:	100000d4 	.word	0x100000d4

00003a90 <memchr>:
    3a90:	b510      	push	{r4, lr}
    3a92:	b2c9      	uxtb	r1, r1
    3a94:	4402      	add	r2, r0
    3a96:	4290      	cmp	r0, r2
    3a98:	4603      	mov	r3, r0
    3a9a:	d101      	bne.n	3aa0 <memchr+0x10>
    3a9c:	2000      	movs	r0, #0
    3a9e:	bd10      	pop	{r4, pc}
    3aa0:	781c      	ldrb	r4, [r3, #0]
    3aa2:	3001      	adds	r0, #1
    3aa4:	428c      	cmp	r4, r1
    3aa6:	d1f6      	bne.n	3a96 <memchr+0x6>
    3aa8:	4618      	mov	r0, r3
    3aaa:	bd10      	pop	{r4, pc}

00003aac <memcpy>:
    3aac:	b510      	push	{r4, lr}
    3aae:	1e43      	subs	r3, r0, #1
    3ab0:	440a      	add	r2, r1
    3ab2:	4291      	cmp	r1, r2
    3ab4:	d100      	bne.n	3ab8 <memcpy+0xc>
    3ab6:	bd10      	pop	{r4, pc}
    3ab8:	f811 4b01 	ldrb.w	r4, [r1], #1
    3abc:	f803 4f01 	strb.w	r4, [r3, #1]!
    3ac0:	e7f7      	b.n	3ab2 <memcpy+0x6>

00003ac2 <memset>:
    3ac2:	4603      	mov	r3, r0
    3ac4:	4402      	add	r2, r0
    3ac6:	4293      	cmp	r3, r2
    3ac8:	d100      	bne.n	3acc <memset+0xa>
    3aca:	4770      	bx	lr
    3acc:	f803 1b01 	strb.w	r1, [r3], #1
    3ad0:	e7f9      	b.n	3ac6 <memset+0x4>

00003ad2 <_calloc_r>:
    3ad2:	b538      	push	{r3, r4, r5, lr}
    3ad4:	fb02 f401 	mul.w	r4, r2, r1
    3ad8:	4621      	mov	r1, r4
    3ada:	f7fe fb4d 	bl	2178 <__wrap__malloc_r>
    3ade:	4605      	mov	r5, r0
    3ae0:	b118      	cbz	r0, 3aea <_calloc_r+0x18>
    3ae2:	4622      	mov	r2, r4
    3ae4:	2100      	movs	r1, #0
    3ae6:	f7ff ffec 	bl	3ac2 <memset>
    3aea:	4628      	mov	r0, r5
    3aec:	bd38      	pop	{r3, r4, r5, pc}
	...

00003af0 <_free_r>:
    3af0:	b538      	push	{r3, r4, r5, lr}
    3af2:	4605      	mov	r5, r0
    3af4:	2900      	cmp	r1, #0
    3af6:	d043      	beq.n	3b80 <_free_r+0x90>
    3af8:	f851 3c04 	ldr.w	r3, [r1, #-4]
    3afc:	1f0c      	subs	r4, r1, #4
    3afe:	2b00      	cmp	r3, #0
    3b00:	bfb8      	it	lt
    3b02:	18e4      	addlt	r4, r4, r3
    3b04:	f7fe fc8a 	bl	241c <__malloc_lock>
    3b08:	4a1e      	ldr	r2, [pc, #120]	; (3b84 <_free_r+0x94>)
    3b0a:	6813      	ldr	r3, [r2, #0]
    3b0c:	4610      	mov	r0, r2
    3b0e:	b933      	cbnz	r3, 3b1e <_free_r+0x2e>
    3b10:	6063      	str	r3, [r4, #4]
    3b12:	6014      	str	r4, [r2, #0]
    3b14:	4628      	mov	r0, r5
    3b16:	e8bd 4038 	ldmia.w	sp!, {r3, r4, r5, lr}
    3b1a:	f7fe bc83 	b.w	2424 <__malloc_unlock>
    3b1e:	42a3      	cmp	r3, r4
    3b20:	d90b      	bls.n	3b3a <_free_r+0x4a>
    3b22:	6821      	ldr	r1, [r4, #0]
    3b24:	1862      	adds	r2, r4, r1
    3b26:	4293      	cmp	r3, r2
    3b28:	bf01      	itttt	eq
    3b2a:	681a      	ldreq	r2, [r3, #0]
    3b2c:	685b      	ldreq	r3, [r3, #4]
    3b2e:	1852      	addeq	r2, r2, r1
    3b30:	6022      	streq	r2, [r4, #0]
    3b32:	6063      	str	r3, [r4, #4]
    3b34:	6004      	str	r4, [r0, #0]
    3b36:	e7ed      	b.n	3b14 <_free_r+0x24>
    3b38:	4613      	mov	r3, r2
    3b3a:	685a      	ldr	r2, [r3, #4]
    3b3c:	b10a      	cbz	r2, 3b42 <_free_r+0x52>
    3b3e:	42a2      	cmp	r2, r4
    3b40:	d9fa      	bls.n	3b38 <_free_r+0x48>
    3b42:	6819      	ldr	r1, [r3, #0]
    3b44:	1858      	adds	r0, r3, r1
    3b46:	42a0      	cmp	r0, r4
    3b48:	d10b      	bne.n	3b62 <_free_r+0x72>
    3b4a:	6820      	ldr	r0, [r4, #0]
    3b4c:	4401      	add	r1, r0
    3b4e:	1858      	adds	r0, r3, r1
    3b50:	4282      	cmp	r2, r0
    3b52:	6019      	str	r1, [r3, #0]
    3b54:	d1de      	bne.n	3b14 <_free_r+0x24>
    3b56:	6810      	ldr	r0, [r2, #0]
    3b58:	6852      	ldr	r2, [r2, #4]
    3b5a:	4401      	add	r1, r0
    3b5c:	6019      	str	r1, [r3, #0]
    3b5e:	605a      	str	r2, [r3, #4]
    3b60:	e7d8      	b.n	3b14 <_free_r+0x24>
    3b62:	d902      	bls.n	3b6a <_free_r+0x7a>
    3b64:	230c      	movs	r3, #12
    3b66:	602b      	str	r3, [r5, #0]
    3b68:	e7d4      	b.n	3b14 <_free_r+0x24>
    3b6a:	6820      	ldr	r0, [r4, #0]
    3b6c:	1821      	adds	r1, r4, r0
    3b6e:	428a      	cmp	r2, r1
    3b70:	bf01      	itttt	eq
    3b72:	6811      	ldreq	r1, [r2, #0]
    3b74:	6852      	ldreq	r2, [r2, #4]
    3b76:	1809      	addeq	r1, r1, r0
    3b78:	6021      	streq	r1, [r4, #0]
    3b7a:	6062      	str	r2, [r4, #4]
    3b7c:	605c      	str	r4, [r3, #4]
    3b7e:	e7c9      	b.n	3b14 <_free_r+0x24>
    3b80:	bd38      	pop	{r3, r4, r5, pc}
    3b82:	bf00      	nop
    3b84:	100007b4 	.word	0x100007b4

00003b88 <_malloc_r>:
    3b88:	b570      	push	{r4, r5, r6, lr}
    3b8a:	1ccd      	adds	r5, r1, #3
    3b8c:	f025 0503 	bic.w	r5, r5, #3
    3b90:	3508      	adds	r5, #8
    3b92:	2d0c      	cmp	r5, #12
    3b94:	bf38      	it	cc
    3b96:	250c      	movcc	r5, #12
    3b98:	2d00      	cmp	r5, #0
    3b9a:	4606      	mov	r6, r0
    3b9c:	db01      	blt.n	3ba2 <_malloc_r+0x1a>
    3b9e:	42a9      	cmp	r1, r5
    3ba0:	d903      	bls.n	3baa <_malloc_r+0x22>
    3ba2:	230c      	movs	r3, #12
    3ba4:	6033      	str	r3, [r6, #0]
    3ba6:	2000      	movs	r0, #0
    3ba8:	bd70      	pop	{r4, r5, r6, pc}
    3baa:	f7fe fc37 	bl	241c <__malloc_lock>
    3bae:	4a23      	ldr	r2, [pc, #140]	; (3c3c <_malloc_r+0xb4>)
    3bb0:	6814      	ldr	r4, [r2, #0]
    3bb2:	4621      	mov	r1, r4
    3bb4:	b991      	cbnz	r1, 3bdc <_malloc_r+0x54>
    3bb6:	4c22      	ldr	r4, [pc, #136]	; (3c40 <_malloc_r+0xb8>)
    3bb8:	6823      	ldr	r3, [r4, #0]
    3bba:	b91b      	cbnz	r3, 3bc4 <_malloc_r+0x3c>
    3bbc:	4630      	mov	r0, r6
    3bbe:	f000 ff7d 	bl	4abc <_sbrk_r>
    3bc2:	6020      	str	r0, [r4, #0]
    3bc4:	4629      	mov	r1, r5
    3bc6:	4630      	mov	r0, r6
    3bc8:	f000 ff78 	bl	4abc <_sbrk_r>
    3bcc:	1c43      	adds	r3, r0, #1
    3bce:	d126      	bne.n	3c1e <_malloc_r+0x96>
    3bd0:	230c      	movs	r3, #12
    3bd2:	4630      	mov	r0, r6
    3bd4:	6033      	str	r3, [r6, #0]
    3bd6:	f7fe fc25 	bl	2424 <__malloc_unlock>
    3bda:	e7e4      	b.n	3ba6 <_malloc_r+0x1e>
    3bdc:	680b      	ldr	r3, [r1, #0]
    3bde:	1b5b      	subs	r3, r3, r5
    3be0:	d41a      	bmi.n	3c18 <_malloc_r+0x90>
    3be2:	2b0b      	cmp	r3, #11
    3be4:	d90f      	bls.n	3c06 <_malloc_r+0x7e>
    3be6:	600b      	str	r3, [r1, #0]
    3be8:	18cc      	adds	r4, r1, r3
    3bea:	50cd      	str	r5, [r1, r3]
    3bec:	4630      	mov	r0, r6
    3bee:	f7fe fc19 	bl	2424 <__malloc_unlock>
    3bf2:	f104 000b 	add.w	r0, r4, #11
    3bf6:	1d23      	adds	r3, r4, #4
    3bf8:	f020 0007 	bic.w	r0, r0, #7
    3bfc:	1ac3      	subs	r3, r0, r3
    3bfe:	d01b      	beq.n	3c38 <_malloc_r+0xb0>
    3c00:	425a      	negs	r2, r3
    3c02:	50e2      	str	r2, [r4, r3]
    3c04:	bd70      	pop	{r4, r5, r6, pc}
    3c06:	428c      	cmp	r4, r1
    3c08:	bf0b      	itete	eq
    3c0a:	6863      	ldreq	r3, [r4, #4]
    3c0c:	684b      	ldrne	r3, [r1, #4]
    3c0e:	6013      	streq	r3, [r2, #0]
    3c10:	6063      	strne	r3, [r4, #4]
    3c12:	bf18      	it	ne
    3c14:	460c      	movne	r4, r1
    3c16:	e7e9      	b.n	3bec <_malloc_r+0x64>
    3c18:	460c      	mov	r4, r1
    3c1a:	6849      	ldr	r1, [r1, #4]
    3c1c:	e7ca      	b.n	3bb4 <_malloc_r+0x2c>
    3c1e:	1cc4      	adds	r4, r0, #3
    3c20:	f024 0403 	bic.w	r4, r4, #3
    3c24:	42a0      	cmp	r0, r4
    3c26:	d005      	beq.n	3c34 <_malloc_r+0xac>
    3c28:	1a21      	subs	r1, r4, r0
    3c2a:	4630      	mov	r0, r6
    3c2c:	f000 ff46 	bl	4abc <_sbrk_r>
    3c30:	3001      	adds	r0, #1
    3c32:	d0cd      	beq.n	3bd0 <_malloc_r+0x48>
    3c34:	6025      	str	r5, [r4, #0]
    3c36:	e7d9      	b.n	3bec <_malloc_r+0x64>
    3c38:	bd70      	pop	{r4, r5, r6, pc}
    3c3a:	bf00      	nop
    3c3c:	100007b4 	.word	0x100007b4
    3c40:	100007b8 	.word	0x100007b8

00003c44 <_realloc_r>:
    3c44:	b5f8      	push	{r3, r4, r5, r6, r7, lr}
    3c46:	4607      	mov	r7, r0
    3c48:	4614      	mov	r4, r2
    3c4a:	460e      	mov	r6, r1
    3c4c:	b921      	cbnz	r1, 3c58 <_realloc_r+0x14>
    3c4e:	4611      	mov	r1, r2
    3c50:	e8bd 40f8 	ldmia.w	sp!, {r3, r4, r5, r6, r7, lr}
    3c54:	f7fe ba90 	b.w	2178 <__wrap__malloc_r>
    3c58:	b922      	cbnz	r2, 3c64 <_realloc_r+0x20>
    3c5a:	f7fe fa91 	bl	2180 <__wrap__free_r>
    3c5e:	4625      	mov	r5, r4
    3c60:	4628      	mov	r0, r5
    3c62:	bdf8      	pop	{r3, r4, r5, r6, r7, pc}
    3c64:	f002 fcff 	bl	6666 <_malloc_usable_size_r>
    3c68:	4284      	cmp	r4, r0
    3c6a:	d90f      	bls.n	3c8c <_realloc_r+0x48>
    3c6c:	4621      	mov	r1, r4
    3c6e:	4638      	mov	r0, r7
    3c70:	f7fe fa82 	bl	2178 <__wrap__malloc_r>
    3c74:	4605      	mov	r5, r0
    3c76:	2800      	cmp	r0, #0
    3c78:	d0f2      	beq.n	3c60 <_realloc_r+0x1c>
    3c7a:	4631      	mov	r1, r6
    3c7c:	4622      	mov	r2, r4
    3c7e:	f7ff ff15 	bl	3aac <memcpy>
    3c82:	4631      	mov	r1, r6
    3c84:	4638      	mov	r0, r7
    3c86:	f7fe fa7b 	bl	2180 <__wrap__free_r>
    3c8a:	e7e9      	b.n	3c60 <_realloc_r+0x1c>
    3c8c:	4635      	mov	r5, r6
    3c8e:	e7e7      	b.n	3c60 <_realloc_r+0x1c>

00003c90 <__sfputc_r>:
    3c90:	6893      	ldr	r3, [r2, #8]
    3c92:	b410      	push	{r4}
    3c94:	3b01      	subs	r3, #1
    3c96:	2b00      	cmp	r3, #0
    3c98:	6093      	str	r3, [r2, #8]
    3c9a:	da08      	bge.n	3cae <__sfputc_r+0x1e>
    3c9c:	6994      	ldr	r4, [r2, #24]
    3c9e:	42a3      	cmp	r3, r4
    3ca0:	db02      	blt.n	3ca8 <__sfputc_r+0x18>
    3ca2:	b2cb      	uxtb	r3, r1
    3ca4:	2b0a      	cmp	r3, #10
    3ca6:	d102      	bne.n	3cae <__sfputc_r+0x1e>
    3ca8:	bc10      	pop	{r4}
    3caa:	f001 ba11 	b.w	50d0 <__swbuf_r>
    3cae:	6813      	ldr	r3, [r2, #0]
    3cb0:	1c58      	adds	r0, r3, #1
    3cb2:	6010      	str	r0, [r2, #0]
    3cb4:	7019      	strb	r1, [r3, #0]
    3cb6:	b2c8      	uxtb	r0, r1
    3cb8:	bc10      	pop	{r4}
    3cba:	4770      	bx	lr

00003cbc <__sfputs_r>:
    3cbc:	b5f8      	push	{r3, r4, r5, r6, r7, lr}
    3cbe:	4606      	mov	r6, r0
    3cc0:	460f      	mov	r7, r1
    3cc2:	4614      	mov	r4, r2
    3cc4:	18d5      	adds	r5, r2, r3
    3cc6:	42ac      	cmp	r4, r5
    3cc8:	d101      	bne.n	3cce <__sfputs_r+0x12>
    3cca:	2000      	movs	r0, #0
    3ccc:	e007      	b.n	3cde <__sfputs_r+0x22>
    3cce:	463a      	mov	r2, r7
    3cd0:	f814 1b01 	ldrb.w	r1, [r4], #1
    3cd4:	4630      	mov	r0, r6
    3cd6:	f7ff ffdb 	bl	3c90 <__sfputc_r>
    3cda:	1c43      	adds	r3, r0, #1
    3cdc:	d1f3      	bne.n	3cc6 <__sfputs_r+0xa>
    3cde:	bdf8      	pop	{r3, r4, r5, r6, r7, pc}

00003ce0 <_vfiprintf_r>:
    3ce0:	e92d 4ff0 	stmdb	sp!, {r4, r5, r6, r7, r8, r9, r10, r11, lr}
    3ce4:	b09d      	sub	sp, #116	; 0x74
    3ce6:	460c      	mov	r4, r1
    3ce8:	4617      	mov	r7, r2
    3cea:	9303      	str	r3, [sp, #12]
    3cec:	4606      	mov	r6, r0
    3cee:	b118      	cbz	r0, 3cf8 <_vfiprintf_r+0x18>
    3cf0:	6983      	ldr	r3, [r0, #24]
    3cf2:	b90b      	cbnz	r3, 3cf8 <_vfiprintf_r+0x18>
    3cf4:	f7ff fcce 	bl	3694 <__sinit>
    3cf8:	4b7c      	ldr	r3, [pc, #496]	; (3eec <_vfiprintf_r+0x20c>)
    3cfa:	429c      	cmp	r4, r3
    3cfc:	d157      	bne.n	3dae <_vfiprintf_r+0xce>
    3cfe:	6874      	ldr	r4, [r6, #4]
    3d00:	89a3      	ldrh	r3, [r4, #12]
    3d02:	0718      	lsls	r0, r3, #28
    3d04:	d55d      	bpl.n	3dc2 <_vfiprintf_r+0xe2>
    3d06:	6923      	ldr	r3, [r4, #16]
    3d08:	2b00      	cmp	r3, #0
    3d0a:	d05a      	beq.n	3dc2 <_vfiprintf_r+0xe2>
    3d0c:	2300      	movs	r3, #0
    3d0e:	9309      	str	r3, [sp, #36]	; 0x24
    3d10:	2320      	movs	r3, #32
    3d12:	f88d 3029 	strb.w	r3, [sp, #41]	; 0x29
    3d16:	2330      	movs	r3, #48	; 0x30
    3d18:	f04f 0b01 	mov.w	r11, #1
    3d1c:	f88d 302a 	strb.w	r3, [sp, #42]	; 0x2a
    3d20:	46b8      	mov	r8, r7
    3d22:	4645      	mov	r5, r8
    3d24:	f815 3b01 	ldrb.w	r3, [r5], #1
    3d28:	2b00      	cmp	r3, #0
    3d2a:	d155      	bne.n	3dd8 <_vfiprintf_r+0xf8>
    3d2c:	ebb8 0a07 	subs.w	r10, r8, r7
    3d30:	d00b      	beq.n	3d4a <_vfiprintf_r+0x6a>
    3d32:	4653      	mov	r3, r10
    3d34:	463a      	mov	r2, r7
    3d36:	4621      	mov	r1, r4
    3d38:	4630      	mov	r0, r6
    3d3a:	f7ff ffbf 	bl	3cbc <__sfputs_r>
    3d3e:	3001      	adds	r0, #1
    3d40:	f000 80c4 	beq.w	3ecc <_vfiprintf_r+0x1ec>
    3d44:	9b09      	ldr	r3, [sp, #36]	; 0x24
    3d46:	4453      	add	r3, r10
    3d48:	9309      	str	r3, [sp, #36]	; 0x24
    3d4a:	f898 3000 	ldrb.w	r3, [r8]
    3d4e:	2b00      	cmp	r3, #0
    3d50:	f000 80bc 	beq.w	3ecc <_vfiprintf_r+0x1ec>
    3d54:	2300      	movs	r3, #0
    3d56:	f04f 32ff 	mov.w	r2, #4294967295	; 0xffffffff
    3d5a:	9304      	str	r3, [sp, #16]
    3d5c:	9307      	str	r3, [sp, #28]
    3d5e:	9205      	str	r2, [sp, #20]
    3d60:	9306      	str	r3, [sp, #24]
    3d62:	f88d 3053 	strb.w	r3, [sp, #83]	; 0x53
    3d66:	931a      	str	r3, [sp, #104]	; 0x68
    3d68:	2205      	movs	r2, #5
    3d6a:	7829      	ldrb	r1, [r5, #0]
    3d6c:	4860      	ldr	r0, [pc, #384]	; (3ef0 <_vfiprintf_r+0x210>)
    3d6e:	f7ff fe8f 	bl	3a90 <memchr>
    3d72:	f105 0801 	add.w	r8, r5, #1
    3d76:	9b04      	ldr	r3, [sp, #16]
    3d78:	2800      	cmp	r0, #0
    3d7a:	d131      	bne.n	3de0 <_vfiprintf_r+0x100>
    3d7c:	06d9      	lsls	r1, r3, #27
    3d7e:	bf44      	itt	mi
    3d80:	2220      	movmi	r2, #32
    3d82:	f88d 2053 	strbmi.w	r2, [sp, #83]	; 0x53
    3d86:	071a      	lsls	r2, r3, #28
    3d88:	bf44      	itt	mi
    3d8a:	222b      	movmi	r2, #43	; 0x2b
    3d8c:	f88d 2053 	strbmi.w	r2, [sp, #83]	; 0x53
    3d90:	782a      	ldrb	r2, [r5, #0]
    3d92:	2a2a      	cmp	r2, #42	; 0x2a
    3d94:	d02c      	beq.n	3df0 <_vfiprintf_r+0x110>
    3d96:	2100      	movs	r1, #0
    3d98:	200a      	movs	r0, #10
    3d9a:	9a07      	ldr	r2, [sp, #28]
    3d9c:	46a8      	mov	r8, r5
    3d9e:	f898 3000 	ldrb.w	r3, [r8]
    3da2:	3501      	adds	r5, #1
    3da4:	3b30      	subs	r3, #48	; 0x30
    3da6:	2b09      	cmp	r3, #9
    3da8:	d96d      	bls.n	3e86 <_vfiprintf_r+0x1a6>
    3daa:	b371      	cbz	r1, 3e0a <_vfiprintf_r+0x12a>
    3dac:	e026      	b.n	3dfc <_vfiprintf_r+0x11c>
    3dae:	4b51      	ldr	r3, [pc, #324]	; (3ef4 <_vfiprintf_r+0x214>)
    3db0:	429c      	cmp	r4, r3
    3db2:	d101      	bne.n	3db8 <_vfiprintf_r+0xd8>
    3db4:	68b4      	ldr	r4, [r6, #8]
    3db6:	e7a3      	b.n	3d00 <_vfiprintf_r+0x20>
    3db8:	4b4f      	ldr	r3, [pc, #316]	; (3ef8 <_vfiprintf_r+0x218>)
    3dba:	429c      	cmp	r4, r3
    3dbc:	bf08      	it	eq
    3dbe:	68f4      	ldreq	r4, [r6, #12]
    3dc0:	e79e      	b.n	3d00 <_vfiprintf_r+0x20>
    3dc2:	4621      	mov	r1, r4
    3dc4:	4630      	mov	r0, r6
    3dc6:	f001 f9e7 	bl	5198 <__swsetup_r>
    3dca:	2800      	cmp	r0, #0
    3dcc:	d09e      	beq.n	3d0c <_vfiprintf_r+0x2c>
    3dce:	f04f 30ff 	mov.w	r0, #4294967295	; 0xffffffff
    3dd2:	b01d      	add	sp, #116	; 0x74
    3dd4:	e8bd 8ff0 	ldmia.w	sp!, {r4, r5, r6, r7, r8, r9, r10, r11, pc}
    3dd8:	2b25      	cmp	r3, #37	; 0x25
    3dda:	d0a7      	beq.n	3d2c <_vfiprintf_r+0x4c>
    3ddc:	46a8      	mov	r8, r5
    3dde:	e7a0      	b.n	3d22 <_vfiprintf_r+0x42>
    3de0:	4a43      	ldr	r2, [pc, #268]	; (3ef0 <_vfiprintf_r+0x210>)
    3de2:	4645      	mov	r5, r8
    3de4:	1a80      	subs	r0, r0, r2
    3de6:	fa0b f000 	lsl.w	r0, r11, r0
    3dea:	4318      	orrs	r0, r3
    3dec:	9004      	str	r0, [sp, #16]
    3dee:	e7bb      	b.n	3d68 <_vfiprintf_r+0x88>
    3df0:	9a03      	ldr	r2, [sp, #12]
    3df2:	1d11      	adds	r1, r2, #4
    3df4:	6812      	ldr	r2, [r2, #0]
    3df6:	9103      	str	r1, [sp, #12]
    3df8:	2a00      	cmp	r2, #0
    3dfa:	db01      	blt.n	3e00 <_vfiprintf_r+0x120>
    3dfc:	9207      	str	r2, [sp, #28]
    3dfe:	e004      	b.n	3e0a <_vfiprintf_r+0x12a>
    3e00:	4252      	negs	r2, r2
    3e02:	f043 0302 	orr.w	r3, r3, #2
    3e06:	9207      	str	r2, [sp, #28]
    3e08:	9304      	str	r3, [sp, #16]
    3e0a:	f898 3000 	ldrb.w	r3, [r8]
    3e0e:	2b2e      	cmp	r3, #46	; 0x2e
    3e10:	d110      	bne.n	3e34 <_vfiprintf_r+0x154>
    3e12:	f898 3001 	ldrb.w	r3, [r8, #1]
    3e16:	f108 0101 	add.w	r1, r8, #1
    3e1a:	2b2a      	cmp	r3, #42	; 0x2a
    3e1c:	d137      	bne.n	3e8e <_vfiprintf_r+0x1ae>
    3e1e:	9b03      	ldr	r3, [sp, #12]
    3e20:	f108 0802 	add.w	r8, r8, #2
    3e24:	1d1a      	adds	r2, r3, #4
    3e26:	681b      	ldr	r3, [r3, #0]
    3e28:	9203      	str	r2, [sp, #12]
    3e2a:	2b00      	cmp	r3, #0
    3e2c:	bfb8      	it	lt
    3e2e:	f04f 33ff 	movlt.w	r3, #4294967295	; 0xffffffff
    3e32:	9305      	str	r3, [sp, #20]
    3e34:	4d31      	ldr	r5, [pc, #196]	; (3efc <_vfiprintf_r+0x21c>)
    3e36:	2203      	movs	r2, #3
    3e38:	f898 1000 	ldrb.w	r1, [r8]
    3e3c:	4628      	mov	r0, r5
    3e3e:	f7ff fe27 	bl	3a90 <memchr>
    3e42:	b140      	cbz	r0, 3e56 <_vfiprintf_r+0x176>
    3e44:	2340      	movs	r3, #64	; 0x40
    3e46:	1b40      	subs	r0, r0, r5
    3e48:	fa03 f000 	lsl.w	r0, r3, r0
    3e4c:	9b04      	ldr	r3, [sp, #16]
    3e4e:	f108 0801 	add.w	r8, r8, #1
    3e52:	4303      	orrs	r3, r0
    3e54:	9304      	str	r3, [sp, #16]
    3e56:	f898 1000 	ldrb.w	r1, [r8]
    3e5a:	2206      	movs	r2, #6
    3e5c:	4828      	ldr	r0, [pc, #160]	; (3f00 <_vfiprintf_r+0x220>)
    3e5e:	f108 0701 	add.w	r7, r8, #1
    3e62:	f88d 1028 	strb.w	r1, [sp, #40]	; 0x28
    3e66:	f7ff fe13 	bl	3a90 <memchr>
    3e6a:	2800      	cmp	r0, #0
    3e6c:	d034      	beq.n	3ed8 <_vfiprintf_r+0x1f8>
    3e6e:	4b25      	ldr	r3, [pc, #148]	; (3f04 <_vfiprintf_r+0x224>)
    3e70:	bb03      	cbnz	r3, 3eb4 <_vfiprintf_r+0x1d4>
    3e72:	9b03      	ldr	r3, [sp, #12]
    3e74:	3307      	adds	r3, #7
    3e76:	f023 0307 	bic.w	r3, r3, #7
    3e7a:	3308      	adds	r3, #8
    3e7c:	9303      	str	r3, [sp, #12]
    3e7e:	9b09      	ldr	r3, [sp, #36]	; 0x24
    3e80:	444b      	add	r3, r9
    3e82:	9309      	str	r3, [sp, #36]	; 0x24
    3e84:	e74c      	b.n	3d20 <_vfiprintf_r+0x40>
    3e86:	fb00 3202 	mla	r2, r0, r2, r3
    3e8a:	2101      	movs	r1, #1
    3e8c:	e786      	b.n	3d9c <_vfiprintf_r+0xbc>
    3e8e:	2300      	movs	r3, #0
    3e90:	250a      	movs	r5, #10
    3e92:	4618      	mov	r0, r3
    3e94:	9305      	str	r3, [sp, #20]
    3e96:	4688      	mov	r8, r1
    3e98:	f898 2000 	ldrb.w	r2, [r8]
    3e9c:	3101      	adds	r1, #1
    3e9e:	3a30      	subs	r2, #48	; 0x30
    3ea0:	2a09      	cmp	r2, #9
    3ea2:	d903      	bls.n	3eac <_vfiprintf_r+0x1cc>
    3ea4:	2b00      	cmp	r3, #0
    3ea6:	d0c5      	beq.n	3e34 <_vfiprintf_r+0x154>
    3ea8:	9005      	str	r0, [sp, #20]
    3eaa:	e7c3      	b.n	3e34 <_vfiprintf_r+0x154>
    3eac:	fb05 2000 	mla	r0, r5, r0, r2
    3eb0:	2301      	movs	r3, #1
    3eb2:	e7f0      	b.n	3e96 <_vfiprintf_r+0x1b6>
    3eb4:	ab03      	add	r3, sp, #12
    3eb6:	9300      	str	r3, [sp, #0]
    3eb8:	4622      	mov	r2, r4
    3eba:	4b13      	ldr	r3, [pc, #76]	; (3f08 <_vfiprintf_r+0x228>)
    3ebc:	a904      	add	r1, sp, #16
    3ebe:	4630      	mov	r0, r6
    3ec0:	f000 f8c0 	bl	4044 <_printf_float>
    3ec4:	f1b0 3fff 	cmp.w	r0, #4294967295	; 0xffffffff
    3ec8:	4681      	mov	r9, r0
    3eca:	d1d8      	bne.n	3e7e <_vfiprintf_r+0x19e>
    3ecc:	89a3      	ldrh	r3, [r4, #12]
    3ece:	065b      	lsls	r3, r3, #25
    3ed0:	f53f af7d 	bmi.w	3dce <_vfiprintf_r+0xee>
    3ed4:	9809      	ldr	r0, [sp, #36]	; 0x24
    3ed6:	e77c      	b.n	3dd2 <_vfiprintf_r+0xf2>
    3ed8:	ab03      	add	r3, sp, #12
    3eda:	9300      	str	r3, [sp, #0]
    3edc:	4622      	mov	r2, r4
    3ede:	4b0a      	ldr	r3, [pc, #40]	; (3f08 <_vfiprintf_r+0x228>)
    3ee0:	a904      	add	r1, sp, #16
    3ee2:	4630      	mov	r0, r6
    3ee4:	f000 fb5e 	bl	45a4 <_printf_i>
    3ee8:	e7ec      	b.n	3ec4 <_vfiprintf_r+0x1e4>
    3eea:	bf00      	nop
    3eec:	00007354 	.word	0x00007354
    3ef0:	00007398 	.word	0x00007398
    3ef4:	00007374 	.word	0x00007374
    3ef8:	00007334 	.word	0x00007334
    3efc:	0000739e 	.word	0x0000739e
    3f00:	000073a2 	.word	0x000073a2
    3f04:	00004045 	.word	0x00004045
    3f08:	00003cbd 	.word	0x00003cbd

00003f0c <vfiprintf>:
    3f0c:	4613      	mov	r3, r2
    3f0e:	460a      	mov	r2, r1
    3f10:	4601      	mov	r1, r0
    3f12:	4802      	ldr	r0, [pc, #8]	; (3f1c <vfiprintf+0x10>)
    3f14:	6800      	ldr	r0, [r0, #0]
    3f16:	f7ff bee3 	b.w	3ce0 <_vfiprintf_r>
    3f1a:	bf00      	nop
    3f1c:	100000d4 	.word	0x100000d4

00003f20 <__cvt>:
    3f20:	2b00      	cmp	r3, #0
    3f22:	e92d 47f0 	stmdb	sp!, {r4, r5, r6, r7, r8, r9, r10, lr}
    3f26:	461e      	mov	r6, r3
    3f28:	bfbb      	ittet	lt
    3f2a:	f103 4300 	addlt.w	r3, r3, #2147483648	; 0x80000000
    3f2e:	461e      	movlt	r6, r3
    3f30:	2300      	movge	r3, #0
    3f32:	232d      	movlt	r3, #45	; 0x2d
    3f34:	b088      	sub	sp, #32
    3f36:	9f14      	ldr	r7, [sp, #80]	; 0x50
    3f38:	9912      	ldr	r1, [sp, #72]	; 0x48
    3f3a:	f027 0720 	bic.w	r7, r7, #32
    3f3e:	2f46      	cmp	r7, #70	; 0x46
    3f40:	4614      	mov	r4, r2
    3f42:	9d10      	ldr	r5, [sp, #64]	; 0x40
    3f44:	f8dd a04c 	ldr.w	r10, [sp, #76]	; 0x4c
    3f48:	700b      	strb	r3, [r1, #0]
    3f4a:	d004      	beq.n	3f56 <__cvt+0x36>
    3f4c:	2f45      	cmp	r7, #69	; 0x45
    3f4e:	d100      	bne.n	3f52 <__cvt+0x32>
    3f50:	3501      	adds	r5, #1
    3f52:	2302      	movs	r3, #2
    3f54:	e000      	b.n	3f58 <__cvt+0x38>
    3f56:	2303      	movs	r3, #3
    3f58:	aa07      	add	r2, sp, #28
    3f5a:	9204      	str	r2, [sp, #16]
    3f5c:	aa06      	add	r2, sp, #24
    3f5e:	9203      	str	r2, [sp, #12]
    3f60:	e88d 0428 	stmia.w	sp, {r3, r5, r10}
    3f64:	4622      	mov	r2, r4
    3f66:	4633      	mov	r3, r6
    3f68:	f001 fa22 	bl	53b0 <_dtoa_r>
    3f6c:	2f47      	cmp	r7, #71	; 0x47
    3f6e:	4680      	mov	r8, r0
    3f70:	d102      	bne.n	3f78 <__cvt+0x58>
    3f72:	9b11      	ldr	r3, [sp, #68]	; 0x44
    3f74:	07db      	lsls	r3, r3, #31
    3f76:	d526      	bpl.n	3fc6 <__cvt+0xa6>
    3f78:	2f46      	cmp	r7, #70	; 0x46
    3f7a:	eb08 0905 	add.w	r9, r8, r5
    3f7e:	d111      	bne.n	3fa4 <__cvt+0x84>
    3f80:	f898 3000 	ldrb.w	r3, [r8]
    3f84:	2b30      	cmp	r3, #48	; 0x30
    3f86:	d10a      	bne.n	3f9e <__cvt+0x7e>
    3f88:	2200      	movs	r2, #0
    3f8a:	2300      	movs	r3, #0
    3f8c:	4620      	mov	r0, r4
    3f8e:	4631      	mov	r1, r6
    3f90:	f002 fee6 	bl	6d60 <__aeabi_dcmpeq>
    3f94:	b918      	cbnz	r0, 3f9e <__cvt+0x7e>
    3f96:	f1c5 0501 	rsb	r5, r5, #1
    3f9a:	f8ca 5000 	str.w	r5, [r10]
    3f9e:	f8da 3000 	ldr.w	r3, [r10]
    3fa2:	4499      	add	r9, r3
    3fa4:	2200      	movs	r2, #0
    3fa6:	2300      	movs	r3, #0
    3fa8:	4620      	mov	r0, r4
    3faa:	4631      	mov	r1, r6
    3fac:	f002 fed8 	bl	6d60 <__aeabi_dcmpeq>
    3fb0:	b938      	cbnz	r0, 3fc2 <__cvt+0xa2>
    3fb2:	2230      	movs	r2, #48	; 0x30
    3fb4:	9b07      	ldr	r3, [sp, #28]
    3fb6:	4599      	cmp	r9, r3
    3fb8:	d905      	bls.n	3fc6 <__cvt+0xa6>
    3fba:	1c59      	adds	r1, r3, #1
    3fbc:	9107      	str	r1, [sp, #28]
    3fbe:	701a      	strb	r2, [r3, #0]
    3fc0:	e7f8      	b.n	3fb4 <__cvt+0x94>
    3fc2:	f8cd 901c 	str.w	r9, [sp, #28]
    3fc6:	4640      	mov	r0, r8
    3fc8:	9b07      	ldr	r3, [sp, #28]
    3fca:	9a15      	ldr	r2, [sp, #84]	; 0x54
    3fcc:	eba3 0308 	sub.w	r3, r3, r8
    3fd0:	6013      	str	r3, [r2, #0]
    3fd2:	b008      	add	sp, #32
    3fd4:	e8bd 87f0 	ldmia.w	sp!, {r4, r5, r6, r7, r8, r9, r10, pc}

00003fd8 <__exponent>:
    3fd8:	4603      	mov	r3, r0
    3fda:	b5f7      	push	{r0, r1, r2, r4, r5, r6, r7, lr}
    3fdc:	2900      	cmp	r1, #0
    3fde:	f803 2b02 	strb.w	r2, [r3], #2
    3fe2:	bfb6      	itet	lt
    3fe4:	222d      	movlt	r2, #45	; 0x2d
    3fe6:	222b      	movge	r2, #43	; 0x2b
    3fe8:	4249      	neglt	r1, r1
    3fea:	2909      	cmp	r1, #9
    3fec:	7042      	strb	r2, [r0, #1]
    3fee:	dd21      	ble.n	4034 <__exponent+0x5c>
    3ff0:	f10d 0207 	add.w	r2, sp, #7
    3ff4:	4617      	mov	r7, r2
    3ff6:	260a      	movs	r6, #10
    3ff8:	fb91 f5f6 	sdiv	r5, r1, r6
    3ffc:	fb06 1115 	mls	r1, r6, r5, r1
    4000:	2d09      	cmp	r5, #9
    4002:	f101 0130 	add.w	r1, r1, #48	; 0x30
    4006:	f802 1c01 	strb.w	r1, [r2, #-1]
    400a:	f102 34ff 	add.w	r4, r2, #4294967295	; 0xffffffff
    400e:	4629      	mov	r1, r5
    4010:	dc09      	bgt.n	4026 <__exponent+0x4e>
    4012:	3130      	adds	r1, #48	; 0x30
    4014:	3a02      	subs	r2, #2
    4016:	f804 1c01 	strb.w	r1, [r4, #-1]
    401a:	42ba      	cmp	r2, r7
    401c:	461c      	mov	r4, r3
    401e:	d304      	bcc.n	402a <__exponent+0x52>
    4020:	1a20      	subs	r0, r4, r0
    4022:	b003      	add	sp, #12
    4024:	bdf0      	pop	{r4, r5, r6, r7, pc}
    4026:	4622      	mov	r2, r4
    4028:	e7e6      	b.n	3ff8 <__exponent+0x20>
    402a:	f812 1b01 	ldrb.w	r1, [r2], #1
    402e:	f803 1b01 	strb.w	r1, [r3], #1
    4032:	e7f2      	b.n	401a <__exponent+0x42>
    4034:	2230      	movs	r2, #48	; 0x30
    4036:	461c      	mov	r4, r3
    4038:	4411      	add	r1, r2
    403a:	f804 2b02 	strb.w	r2, [r4], #2
    403e:	7059      	strb	r1, [r3, #1]
    4040:	e7ee      	b.n	4020 <__exponent+0x48>
	...

00004044 <_printf_float>:
    4044:	e92d 4ff0 	stmdb	sp!, {r4, r5, r6, r7, r8, r9, r10, r11, lr}
    4048:	b091      	sub	sp, #68	; 0x44
    404a:	460c      	mov	r4, r1
    404c:	9f1a      	ldr	r7, [sp, #104]	; 0x68
    404e:	4693      	mov	r11, r2
    4050:	461e      	mov	r6, r3
    4052:	4605      	mov	r5, r0
    4054:	f001 ffea 	bl	602c <_localeconv_r>
    4058:	6803      	ldr	r3, [r0, #0]
    405a:	4618      	mov	r0, r3
    405c:	9309      	str	r3, [sp, #36]	; 0x24
    405e:	f000 fec0 	bl	4de2 <strlen>
    4062:	2300      	movs	r3, #0
    4064:	930e      	str	r3, [sp, #56]	; 0x38
    4066:	683b      	ldr	r3, [r7, #0]
    4068:	900a      	str	r0, [sp, #40]	; 0x28
    406a:	3307      	adds	r3, #7
    406c:	f023 0307 	bic.w	r3, r3, #7
    4070:	f103 0208 	add.w	r2, r3, #8
    4074:	f894 8018 	ldrb.w	r8, [r4, #24]
    4078:	f8d4 a000 	ldr.w	r10, [r4]
    407c:	603a      	str	r2, [r7, #0]
    407e:	e9d3 2300 	ldrd	r2, r3, [r3]
    4082:	e9c4 2312 	strd	r2, r3, [r4, #72]	; 0x48
    4086:	f8d4 904c 	ldr.w	r9, [r4, #76]	; 0x4c
    408a:	6ca7      	ldr	r7, [r4, #72]	; 0x48
    408c:	f029 4300 	bic.w	r3, r9, #2147483648	; 0x80000000
    4090:	930b      	str	r3, [sp, #44]	; 0x2c
    4092:	f04f 32ff 	mov.w	r2, #4294967295	; 0xffffffff
    4096:	4ba6      	ldr	r3, [pc, #664]	; (4330 <_printf_float+0x2ec>)
    4098:	4638      	mov	r0, r7
    409a:	990b      	ldr	r1, [sp, #44]	; 0x2c
    409c:	f002 fe92 	bl	6dc4 <__aeabi_dcmpun>
    40a0:	2800      	cmp	r0, #0
    40a2:	f040 81f7 	bne.w	4494 <_printf_float+0x450>
    40a6:	f04f 32ff 	mov.w	r2, #4294967295	; 0xffffffff
    40aa:	4ba1      	ldr	r3, [pc, #644]	; (4330 <_printf_float+0x2ec>)
    40ac:	4638      	mov	r0, r7
    40ae:	990b      	ldr	r1, [sp, #44]	; 0x2c
    40b0:	f002 fe6a 	bl	6d88 <__aeabi_dcmple>
    40b4:	2800      	cmp	r0, #0
    40b6:	f040 81ed 	bne.w	4494 <_printf_float+0x450>
    40ba:	2200      	movs	r2, #0
    40bc:	2300      	movs	r3, #0
    40be:	4638      	mov	r0, r7
    40c0:	4649      	mov	r1, r9
    40c2:	f002 fe57 	bl	6d74 <__aeabi_dcmplt>
    40c6:	b110      	cbz	r0, 40ce <_printf_float+0x8a>
    40c8:	232d      	movs	r3, #45	; 0x2d
    40ca:	f884 3043 	strb.w	r3, [r4, #67]	; 0x43
    40ce:	4b99      	ldr	r3, [pc, #612]	; (4334 <_printf_float+0x2f0>)
    40d0:	4f99      	ldr	r7, [pc, #612]	; (4338 <_printf_float+0x2f4>)
    40d2:	f1b8 0f47 	cmp.w	r8, #71	; 0x47
    40d6:	bf98      	it	ls
    40d8:	461f      	movls	r7, r3
    40da:	2303      	movs	r3, #3
    40dc:	f04f 0900 	mov.w	r9, #0
    40e0:	6123      	str	r3, [r4, #16]
    40e2:	f02a 0304 	bic.w	r3, r10, #4
    40e6:	6023      	str	r3, [r4, #0]
    40e8:	9600      	str	r6, [sp, #0]
    40ea:	465b      	mov	r3, r11
    40ec:	aa0f      	add	r2, sp, #60	; 0x3c
    40ee:	4621      	mov	r1, r4
    40f0:	4628      	mov	r0, r5
    40f2:	f000 f9df 	bl	44b4 <_printf_common>
    40f6:	3001      	adds	r0, #1
    40f8:	f040 809a 	bne.w	4230 <_printf_float+0x1ec>
    40fc:	f04f 30ff 	mov.w	r0, #4294967295	; 0xffffffff
    4100:	b011      	add	sp, #68	; 0x44
    4102:	e8bd 8ff0 	ldmia.w	sp!, {r4, r5, r6, r7, r8, r9, r10, r11, pc}
    4106:	6862      	ldr	r2, [r4, #4]
    4108:	a80e      	add	r0, sp, #56	; 0x38
    410a:	1c53      	adds	r3, r2, #1
    410c:	f10d 0e34 	add.w	lr, sp, #52	; 0x34
    4110:	f44a 6380 	orr.w	r3, r10, #1024	; 0x400
    4114:	d141      	bne.n	419a <_printf_float+0x156>
    4116:	2206      	movs	r2, #6
    4118:	6062      	str	r2, [r4, #4]
    411a:	2100      	movs	r1, #0
    411c:	6023      	str	r3, [r4, #0]
    411e:	9301      	str	r3, [sp, #4]
    4120:	6863      	ldr	r3, [r4, #4]
    4122:	f10d 0233 	add.w	r2, sp, #51	; 0x33
    4126:	9005      	str	r0, [sp, #20]
    4128:	9202      	str	r2, [sp, #8]
    412a:	9300      	str	r3, [sp, #0]
    412c:	463a      	mov	r2, r7
    412e:	464b      	mov	r3, r9
    4130:	9106      	str	r1, [sp, #24]
    4132:	f8cd 8010 	str.w	r8, [sp, #16]
    4136:	f8cd e00c 	str.w	lr, [sp, #12]
    413a:	4628      	mov	r0, r5
    413c:	f7ff fef0 	bl	3f20 <__cvt>
    4140:	f008 03df 	and.w	r3, r8, #223	; 0xdf
    4144:	2b47      	cmp	r3, #71	; 0x47
    4146:	4607      	mov	r7, r0
    4148:	d109      	bne.n	415e <_printf_float+0x11a>
    414a:	9b0d      	ldr	r3, [sp, #52]	; 0x34
    414c:	1cd8      	adds	r0, r3, #3
    414e:	db02      	blt.n	4156 <_printf_float+0x112>
    4150:	6862      	ldr	r2, [r4, #4]
    4152:	4293      	cmp	r3, r2
    4154:	dd59      	ble.n	420a <_printf_float+0x1c6>
    4156:	f1a8 0802 	sub.w	r8, r8, #2
    415a:	fa5f f888 	uxtb.w	r8, r8
    415e:	f1b8 0f65 	cmp.w	r8, #101	; 0x65
    4162:	990d      	ldr	r1, [sp, #52]	; 0x34
    4164:	d836      	bhi.n	41d4 <_printf_float+0x190>
    4166:	3901      	subs	r1, #1
    4168:	4642      	mov	r2, r8
    416a:	f104 0050 	add.w	r0, r4, #80	; 0x50
    416e:	910d      	str	r1, [sp, #52]	; 0x34
    4170:	f7ff ff32 	bl	3fd8 <__exponent>
    4174:	9a0e      	ldr	r2, [sp, #56]	; 0x38
    4176:	4681      	mov	r9, r0
    4178:	1883      	adds	r3, r0, r2
    417a:	2a01      	cmp	r2, #1
    417c:	6123      	str	r3, [r4, #16]
    417e:	dc02      	bgt.n	4186 <_printf_float+0x142>
    4180:	6822      	ldr	r2, [r4, #0]
    4182:	07d1      	lsls	r1, r2, #31
    4184:	d501      	bpl.n	418a <_printf_float+0x146>
    4186:	3301      	adds	r3, #1
    4188:	6123      	str	r3, [r4, #16]
    418a:	f89d 3033 	ldrb.w	r3, [sp, #51]	; 0x33
    418e:	2b00      	cmp	r3, #0
    4190:	d0aa      	beq.n	40e8 <_printf_float+0xa4>
    4192:	232d      	movs	r3, #45	; 0x2d
    4194:	f884 3043 	strb.w	r3, [r4, #67]	; 0x43
    4198:	e7a6      	b.n	40e8 <_printf_float+0xa4>
    419a:	f1b8 0f67 	cmp.w	r8, #103	; 0x67
    419e:	d002      	beq.n	41a6 <_printf_float+0x162>
    41a0:	f1b8 0f47 	cmp.w	r8, #71	; 0x47
    41a4:	d1b9      	bne.n	411a <_printf_float+0xd6>
    41a6:	b19a      	cbz	r2, 41d0 <_printf_float+0x18c>
    41a8:	2100      	movs	r1, #0
    41aa:	9106      	str	r1, [sp, #24]
    41ac:	f10d 0133 	add.w	r1, sp, #51	; 0x33
    41b0:	e88d 000c 	stmia.w	sp, {r2, r3}
    41b4:	6023      	str	r3, [r4, #0]
    41b6:	9005      	str	r0, [sp, #20]
    41b8:	463a      	mov	r2, r7
    41ba:	f8cd 8010 	str.w	r8, [sp, #16]
    41be:	f8cd e00c 	str.w	lr, [sp, #12]
    41c2:	9102      	str	r1, [sp, #8]
    41c4:	464b      	mov	r3, r9
    41c6:	4628      	mov	r0, r5
    41c8:	f7ff feaa 	bl	3f20 <__cvt>
    41cc:	4607      	mov	r7, r0
    41ce:	e7bc      	b.n	414a <_printf_float+0x106>
    41d0:	2201      	movs	r2, #1
    41d2:	e7a1      	b.n	4118 <_printf_float+0xd4>
    41d4:	f1b8 0f66 	cmp.w	r8, #102	; 0x66
    41d8:	d119      	bne.n	420e <_printf_float+0x1ca>
    41da:	2900      	cmp	r1, #0
    41dc:	6863      	ldr	r3, [r4, #4]
    41de:	dd0c      	ble.n	41fa <_printf_float+0x1b6>
    41e0:	6121      	str	r1, [r4, #16]
    41e2:	b913      	cbnz	r3, 41ea <_printf_float+0x1a6>
    41e4:	6822      	ldr	r2, [r4, #0]
    41e6:	07d2      	lsls	r2, r2, #31
    41e8:	d502      	bpl.n	41f0 <_printf_float+0x1ac>
    41ea:	3301      	adds	r3, #1
    41ec:	440b      	add	r3, r1
    41ee:	6123      	str	r3, [r4, #16]
    41f0:	9b0d      	ldr	r3, [sp, #52]	; 0x34
    41f2:	f04f 0900 	mov.w	r9, #0
    41f6:	65a3      	str	r3, [r4, #88]	; 0x58
    41f8:	e7c7      	b.n	418a <_printf_float+0x146>
    41fa:	b913      	cbnz	r3, 4202 <_printf_float+0x1be>
    41fc:	6822      	ldr	r2, [r4, #0]
    41fe:	07d0      	lsls	r0, r2, #31
    4200:	d501      	bpl.n	4206 <_printf_float+0x1c2>
    4202:	3302      	adds	r3, #2
    4204:	e7f3      	b.n	41ee <_printf_float+0x1aa>
    4206:	2301      	movs	r3, #1
    4208:	e7f1      	b.n	41ee <_printf_float+0x1aa>
    420a:	f04f 0867 	mov.w	r8, #103	; 0x67
    420e:	9b0d      	ldr	r3, [sp, #52]	; 0x34
    4210:	9a0e      	ldr	r2, [sp, #56]	; 0x38
    4212:	4293      	cmp	r3, r2
    4214:	db05      	blt.n	4222 <_printf_float+0x1de>
    4216:	6822      	ldr	r2, [r4, #0]
    4218:	6123      	str	r3, [r4, #16]
    421a:	07d1      	lsls	r1, r2, #31
    421c:	d5e8      	bpl.n	41f0 <_printf_float+0x1ac>
    421e:	3301      	adds	r3, #1
    4220:	e7e5      	b.n	41ee <_printf_float+0x1aa>
    4222:	2b00      	cmp	r3, #0
    4224:	bfcc      	ite	gt
    4226:	2301      	movgt	r3, #1
    4228:	f1c3 0302 	rsble	r3, r3, #2
    422c:	4413      	add	r3, r2
    422e:	e7de      	b.n	41ee <_printf_float+0x1aa>
    4230:	6823      	ldr	r3, [r4, #0]
    4232:	055a      	lsls	r2, r3, #21
    4234:	d407      	bmi.n	4246 <_printf_float+0x202>
    4236:	6923      	ldr	r3, [r4, #16]
    4238:	463a      	mov	r2, r7
    423a:	4659      	mov	r1, r11
    423c:	4628      	mov	r0, r5
    423e:	47b0      	blx	r6
    4240:	3001      	adds	r0, #1
    4242:	d12a      	bne.n	429a <_printf_float+0x256>
    4244:	e75a      	b.n	40fc <_printf_float+0xb8>
    4246:	f1b8 0f65 	cmp.w	r8, #101	; 0x65
    424a:	f240 80dc 	bls.w	4406 <_printf_float+0x3c2>
    424e:	e9d4 0112 	ldrd	r0, r1, [r4, #72]	; 0x48
    4252:	2200      	movs	r2, #0
    4254:	2300      	movs	r3, #0
    4256:	f002 fd83 	bl	6d60 <__aeabi_dcmpeq>
    425a:	2800      	cmp	r0, #0
    425c:	d039      	beq.n	42d2 <_printf_float+0x28e>
    425e:	2301      	movs	r3, #1
    4260:	4a36      	ldr	r2, [pc, #216]	; (433c <_printf_float+0x2f8>)
    4262:	4659      	mov	r1, r11
    4264:	4628      	mov	r0, r5
    4266:	47b0      	blx	r6
    4268:	3001      	adds	r0, #1
    426a:	f43f af47 	beq.w	40fc <_printf_float+0xb8>
    426e:	9b0e      	ldr	r3, [sp, #56]	; 0x38
    4270:	9a0d      	ldr	r2, [sp, #52]	; 0x34
    4272:	429a      	cmp	r2, r3
    4274:	db02      	blt.n	427c <_printf_float+0x238>
    4276:	6823      	ldr	r3, [r4, #0]
    4278:	07d8      	lsls	r0, r3, #31
    427a:	d50e      	bpl.n	429a <_printf_float+0x256>
    427c:	9b0a      	ldr	r3, [sp, #40]	; 0x28
    427e:	9a09      	ldr	r2, [sp, #36]	; 0x24
    4280:	4659      	mov	r1, r11
    4282:	4628      	mov	r0, r5
    4284:	47b0      	blx	r6
    4286:	3001      	adds	r0, #1
    4288:	f43f af38 	beq.w	40fc <_printf_float+0xb8>
    428c:	2700      	movs	r7, #0
    428e:	f104 081a 	add.w	r8, r4, #26
    4292:	9b0e      	ldr	r3, [sp, #56]	; 0x38
    4294:	3b01      	subs	r3, #1
    4296:	429f      	cmp	r7, r3
    4298:	db11      	blt.n	42be <_printf_float+0x27a>
    429a:	6823      	ldr	r3, [r4, #0]
    429c:	079f      	lsls	r7, r3, #30
    429e:	d508      	bpl.n	42b2 <_printf_float+0x26e>
    42a0:	2700      	movs	r7, #0
    42a2:	f104 0819 	add.w	r8, r4, #25
    42a6:	68e3      	ldr	r3, [r4, #12]
    42a8:	9a0f      	ldr	r2, [sp, #60]	; 0x3c
    42aa:	1a9b      	subs	r3, r3, r2
    42ac:	429f      	cmp	r7, r3
    42ae:	f2c0 80e7 	blt.w	4480 <_printf_float+0x43c>
    42b2:	68e0      	ldr	r0, [r4, #12]
    42b4:	9b0f      	ldr	r3, [sp, #60]	; 0x3c
    42b6:	4298      	cmp	r0, r3
    42b8:	bfb8      	it	lt
    42ba:	4618      	movlt	r0, r3
    42bc:	e720      	b.n	4100 <_printf_float+0xbc>
    42be:	2301      	movs	r3, #1
    42c0:	4642      	mov	r2, r8
    42c2:	4659      	mov	r1, r11
    42c4:	4628      	mov	r0, r5
    42c6:	47b0      	blx	r6
    42c8:	3001      	adds	r0, #1
    42ca:	f43f af17 	beq.w	40fc <_printf_float+0xb8>
    42ce:	3701      	adds	r7, #1
    42d0:	e7df      	b.n	4292 <_printf_float+0x24e>
    42d2:	9b0d      	ldr	r3, [sp, #52]	; 0x34
    42d4:	2b00      	cmp	r3, #0
    42d6:	dc33      	bgt.n	4340 <_printf_float+0x2fc>
    42d8:	2301      	movs	r3, #1
    42da:	4a18      	ldr	r2, [pc, #96]	; (433c <_printf_float+0x2f8>)
    42dc:	4659      	mov	r1, r11
    42de:	4628      	mov	r0, r5
    42e0:	47b0      	blx	r6
    42e2:	3001      	adds	r0, #1
    42e4:	f43f af0a 	beq.w	40fc <_printf_float+0xb8>
    42e8:	9b0d      	ldr	r3, [sp, #52]	; 0x34
    42ea:	b923      	cbnz	r3, 42f6 <_printf_float+0x2b2>
    42ec:	9b0e      	ldr	r3, [sp, #56]	; 0x38
    42ee:	b913      	cbnz	r3, 42f6 <_printf_float+0x2b2>
    42f0:	6823      	ldr	r3, [r4, #0]
    42f2:	07d9      	lsls	r1, r3, #31
    42f4:	d5d1      	bpl.n	429a <_printf_float+0x256>
    42f6:	9b0a      	ldr	r3, [sp, #40]	; 0x28
    42f8:	9a09      	ldr	r2, [sp, #36]	; 0x24
    42fa:	4659      	mov	r1, r11
    42fc:	4628      	mov	r0, r5
    42fe:	47b0      	blx	r6
    4300:	3001      	adds	r0, #1
    4302:	f43f aefb 	beq.w	40fc <_printf_float+0xb8>
    4306:	f04f 0800 	mov.w	r8, #0
    430a:	f104 091a 	add.w	r9, r4, #26
    430e:	9b0d      	ldr	r3, [sp, #52]	; 0x34
    4310:	425b      	negs	r3, r3
    4312:	4598      	cmp	r8, r3
    4314:	db01      	blt.n	431a <_printf_float+0x2d6>
    4316:	9b0e      	ldr	r3, [sp, #56]	; 0x38
    4318:	e78e      	b.n	4238 <_printf_float+0x1f4>
    431a:	2301      	movs	r3, #1
    431c:	464a      	mov	r2, r9
    431e:	4659      	mov	r1, r11
    4320:	4628      	mov	r0, r5
    4322:	47b0      	blx	r6
    4324:	3001      	adds	r0, #1
    4326:	f43f aee9 	beq.w	40fc <_printf_float+0xb8>
    432a:	f108 0801 	add.w	r8, r8, #1
    432e:	e7ee      	b.n	430e <_printf_float+0x2ca>
    4330:	7fefffff 	.word	0x7fefffff
    4334:	000073a9 	.word	0x000073a9
    4338:	000073ad 	.word	0x000073ad
    433c:	000073fe 	.word	0x000073fe
    4340:	9a0e      	ldr	r2, [sp, #56]	; 0x38
    4342:	6da3      	ldr	r3, [r4, #88]	; 0x58
    4344:	429a      	cmp	r2, r3
    4346:	bfa8      	it	ge
    4348:	461a      	movge	r2, r3
    434a:	2a00      	cmp	r2, #0
    434c:	4690      	mov	r8, r2
    434e:	dc36      	bgt.n	43be <_printf_float+0x37a>
    4350:	f04f 0a00 	mov.w	r10, #0
    4354:	f104 031a 	add.w	r3, r4, #26
    4358:	ea28 78e8 	bic.w	r8, r8, r8, asr #31
    435c:	930b      	str	r3, [sp, #44]	; 0x2c
    435e:	f8d4 9058 	ldr.w	r9, [r4, #88]	; 0x58
    4362:	eba9 0308 	sub.w	r3, r9, r8
    4366:	459a      	cmp	r10, r3
    4368:	db31      	blt.n	43ce <_printf_float+0x38a>
    436a:	9b0e      	ldr	r3, [sp, #56]	; 0x38
    436c:	9a0d      	ldr	r2, [sp, #52]	; 0x34
    436e:	429a      	cmp	r2, r3
    4370:	db38      	blt.n	43e4 <_printf_float+0x3a0>
    4372:	6823      	ldr	r3, [r4, #0]
    4374:	07da      	lsls	r2, r3, #31
    4376:	d435      	bmi.n	43e4 <_printf_float+0x3a0>
    4378:	9b0e      	ldr	r3, [sp, #56]	; 0x38
    437a:	990d      	ldr	r1, [sp, #52]	; 0x34
    437c:	eba3 0209 	sub.w	r2, r3, r9
    4380:	eba3 0801 	sub.w	r8, r3, r1
    4384:	4590      	cmp	r8, r2
    4386:	bfa8      	it	ge
    4388:	4690      	movge	r8, r2
    438a:	f1b8 0f00 	cmp.w	r8, #0
    438e:	dc31      	bgt.n	43f4 <_printf_float+0x3b0>
    4390:	2700      	movs	r7, #0
    4392:	ea28 78e8 	bic.w	r8, r8, r8, asr #31
    4396:	f104 091a 	add.w	r9, r4, #26
    439a:	9a0d      	ldr	r2, [sp, #52]	; 0x34
    439c:	9b0e      	ldr	r3, [sp, #56]	; 0x38
    439e:	1a9b      	subs	r3, r3, r2
    43a0:	eba3 0308 	sub.w	r3, r3, r8
    43a4:	429f      	cmp	r7, r3
    43a6:	f6bf af78 	bge.w	429a <_printf_float+0x256>
    43aa:	2301      	movs	r3, #1
    43ac:	464a      	mov	r2, r9
    43ae:	4659      	mov	r1, r11
    43b0:	4628      	mov	r0, r5
    43b2:	47b0      	blx	r6
    43b4:	3001      	adds	r0, #1
    43b6:	f43f aea1 	beq.w	40fc <_printf_float+0xb8>
    43ba:	3701      	adds	r7, #1
    43bc:	e7ed      	b.n	439a <_printf_float+0x356>
    43be:	4613      	mov	r3, r2
    43c0:	4659      	mov	r1, r11
    43c2:	463a      	mov	r2, r7
    43c4:	4628      	mov	r0, r5
    43c6:	47b0      	blx	r6
    43c8:	3001      	adds	r0, #1
    43ca:	d1c1      	bne.n	4350 <_printf_float+0x30c>
    43cc:	e696      	b.n	40fc <_printf_float+0xb8>
    43ce:	2301      	movs	r3, #1
    43d0:	9a0b      	ldr	r2, [sp, #44]	; 0x2c
    43d2:	4659      	mov	r1, r11
    43d4:	4628      	mov	r0, r5
    43d6:	47b0      	blx	r6
    43d8:	3001      	adds	r0, #1
    43da:	f43f ae8f 	beq.w	40fc <_printf_float+0xb8>
    43de:	f10a 0a01 	add.w	r10, r10, #1
    43e2:	e7bc      	b.n	435e <_printf_float+0x31a>
    43e4:	9b0a      	ldr	r3, [sp, #40]	; 0x28
    43e6:	9a09      	ldr	r2, [sp, #36]	; 0x24
    43e8:	4659      	mov	r1, r11
    43ea:	4628      	mov	r0, r5
    43ec:	47b0      	blx	r6
    43ee:	3001      	adds	r0, #1
    43f0:	d1c2      	bne.n	4378 <_printf_float+0x334>
    43f2:	e683      	b.n	40fc <_printf_float+0xb8>
    43f4:	4643      	mov	r3, r8
    43f6:	eb07 0209 	add.w	r2, r7, r9
    43fa:	4659      	mov	r1, r11
    43fc:	4628      	mov	r0, r5
    43fe:	47b0      	blx	r6
    4400:	3001      	adds	r0, #1
    4402:	d1c5      	bne.n	4390 <_printf_float+0x34c>
    4404:	e67a      	b.n	40fc <_printf_float+0xb8>
    4406:	9a0e      	ldr	r2, [sp, #56]	; 0x38
    4408:	2a01      	cmp	r2, #1
    440a:	dc01      	bgt.n	4410 <_printf_float+0x3cc>
    440c:	07db      	lsls	r3, r3, #31
    440e:	d534      	bpl.n	447a <_printf_float+0x436>
    4410:	2301      	movs	r3, #1
    4412:	463a      	mov	r2, r7
    4414:	4659      	mov	r1, r11
    4416:	4628      	mov	r0, r5
    4418:	47b0      	blx	r6
    441a:	3001      	adds	r0, #1
    441c:	f43f ae6e 	beq.w	40fc <_printf_float+0xb8>
    4420:	9b0a      	ldr	r3, [sp, #40]	; 0x28
    4422:	9a09      	ldr	r2, [sp, #36]	; 0x24
    4424:	4659      	mov	r1, r11
    4426:	4628      	mov	r0, r5
    4428:	47b0      	blx	r6
    442a:	3001      	adds	r0, #1
    442c:	f43f ae66 	beq.w	40fc <_printf_float+0xb8>
    4430:	e9d4 0112 	ldrd	r0, r1, [r4, #72]	; 0x48
    4434:	2200      	movs	r2, #0
    4436:	2300      	movs	r3, #0
    4438:	f002 fc92 	bl	6d60 <__aeabi_dcmpeq>
    443c:	b150      	cbz	r0, 4454 <_printf_float+0x410>
    443e:	2700      	movs	r7, #0
    4440:	f104 081a 	add.w	r8, r4, #26
    4444:	9b0e      	ldr	r3, [sp, #56]	; 0x38
    4446:	3b01      	subs	r3, #1
    4448:	429f      	cmp	r7, r3
    444a:	db0c      	blt.n	4466 <_printf_float+0x422>
    444c:	464b      	mov	r3, r9
    444e:	f104 0250 	add.w	r2, r4, #80	; 0x50
    4452:	e6f2      	b.n	423a <_printf_float+0x1f6>
    4454:	9b0e      	ldr	r3, [sp, #56]	; 0x38
    4456:	1c7a      	adds	r2, r7, #1
    4458:	3b01      	subs	r3, #1
    445a:	4659      	mov	r1, r11
    445c:	4628      	mov	r0, r5
    445e:	47b0      	blx	r6
    4460:	3001      	adds	r0, #1
    4462:	d1f3      	bne.n	444c <_printf_float+0x408>
    4464:	e64a      	b.n	40fc <_printf_float+0xb8>
    4466:	2301      	movs	r3, #1
    4468:	4642      	mov	r2, r8
    446a:	4659      	mov	r1, r11
    446c:	4628      	mov	r0, r5
    446e:	47b0      	blx	r6
    4470:	3001      	adds	r0, #1
    4472:	f43f ae43 	beq.w	40fc <_printf_float+0xb8>
    4476:	3701      	adds	r7, #1
    4478:	e7e4      	b.n	4444 <_printf_float+0x400>
    447a:	2301      	movs	r3, #1
    447c:	463a      	mov	r2, r7
    447e:	e7ec      	b.n	445a <_printf_float+0x416>
    4480:	2301      	movs	r3, #1
    4482:	4642      	mov	r2, r8
    4484:	4659      	mov	r1, r11
    4486:	4628      	mov	r0, r5
    4488:	47b0      	blx	r6
    448a:	3001      	adds	r0, #1
    448c:	f43f ae36 	beq.w	40fc <_printf_float+0xb8>
    4490:	3701      	adds	r7, #1
    4492:	e708      	b.n	42a6 <_printf_float+0x262>
    4494:	463a      	mov	r2, r7
    4496:	464b      	mov	r3, r9
    4498:	4638      	mov	r0, r7
    449a:	4649      	mov	r1, r9
    449c:	f002 fc92 	bl	6dc4 <__aeabi_dcmpun>
    44a0:	2800      	cmp	r0, #0
    44a2:	f43f ae30 	beq.w	4106 <_printf_float+0xc2>
    44a6:	4b01      	ldr	r3, [pc, #4]	; (44ac <_printf_float+0x468>)
    44a8:	4f01      	ldr	r7, [pc, #4]	; (44b0 <_printf_float+0x46c>)
    44aa:	e612      	b.n	40d2 <_printf_float+0x8e>
    44ac:	000073b1 	.word	0x000073b1
    44b0:	000073b5 	.word	0x000073b5

000044b4 <_printf_common>:
    44b4:	e92d 47f0 	stmdb	sp!, {r4, r5, r6, r7, r8, r9, r10, lr}
    44b8:	4691      	mov	r9, r2
    44ba:	461f      	mov	r7, r3
    44bc:	688a      	ldr	r2, [r1, #8]
    44be:	690b      	ldr	r3, [r1, #16]
    44c0:	4606      	mov	r6, r0
    44c2:	4293      	cmp	r3, r2
    44c4:	bfb8      	it	lt
    44c6:	4613      	movlt	r3, r2
    44c8:	f8c9 3000 	str.w	r3, [r9]
    44cc:	f891 2043 	ldrb.w	r2, [r1, #67]	; 0x43
    44d0:	460c      	mov	r4, r1
    44d2:	f8dd 8020 	ldr.w	r8, [sp, #32]
    44d6:	b112      	cbz	r2, 44de <_printf_common+0x2a>
    44d8:	3301      	adds	r3, #1
    44da:	f8c9 3000 	str.w	r3, [r9]
    44de:	6823      	ldr	r3, [r4, #0]
    44e0:	0699      	lsls	r1, r3, #26
    44e2:	bf42      	ittt	mi
    44e4:	f8d9 3000 	ldrmi.w	r3, [r9]
    44e8:	3302      	addmi	r3, #2
    44ea:	f8c9 3000 	strmi.w	r3, [r9]
    44ee:	6825      	ldr	r5, [r4, #0]
    44f0:	f015 0506 	ands.w	r5, r5, #6
    44f4:	d107      	bne.n	4506 <_printf_common+0x52>
    44f6:	f104 0a19 	add.w	r10, r4, #25
    44fa:	68e3      	ldr	r3, [r4, #12]
    44fc:	f8d9 2000 	ldr.w	r2, [r9]
    4500:	1a9b      	subs	r3, r3, r2
    4502:	429d      	cmp	r5, r3
    4504:	db2a      	blt.n	455c <_printf_common+0xa8>
    4506:	f894 3043 	ldrb.w	r3, [r4, #67]	; 0x43
    450a:	6822      	ldr	r2, [r4, #0]
    450c:	3300      	adds	r3, #0
    450e:	bf18      	it	ne
    4510:	2301      	movne	r3, #1
    4512:	0692      	lsls	r2, r2, #26
    4514:	d42f      	bmi.n	4576 <_printf_common+0xc2>
    4516:	f104 0243 	add.w	r2, r4, #67	; 0x43
    451a:	4639      	mov	r1, r7
    451c:	4630      	mov	r0, r6
    451e:	47c0      	blx	r8
    4520:	3001      	adds	r0, #1
    4522:	d022      	beq.n	456a <_printf_common+0xb6>
    4524:	6823      	ldr	r3, [r4, #0]
    4526:	68e5      	ldr	r5, [r4, #12]
    4528:	f003 0306 	and.w	r3, r3, #6
    452c:	2b04      	cmp	r3, #4
    452e:	bf18      	it	ne
    4530:	2500      	movne	r5, #0
    4532:	f8d9 2000 	ldr.w	r2, [r9]
    4536:	f04f 0900 	mov.w	r9, #0
    453a:	bf08      	it	eq
    453c:	1aad      	subeq	r5, r5, r2
    453e:	68a3      	ldr	r3, [r4, #8]
    4540:	6922      	ldr	r2, [r4, #16]
    4542:	bf08      	it	eq
    4544:	ea25 75e5 	biceq.w	r5, r5, r5, asr #31
    4548:	4293      	cmp	r3, r2
    454a:	bfc4      	itt	gt
    454c:	1a9b      	subgt	r3, r3, r2
    454e:	18ed      	addgt	r5, r5, r3
    4550:	341a      	adds	r4, #26
    4552:	454d      	cmp	r5, r9
    4554:	d11b      	bne.n	458e <_printf_common+0xda>
    4556:	2000      	movs	r0, #0
    4558:	e8bd 87f0 	ldmia.w	sp!, {r4, r5, r6, r7, r8, r9, r10, pc}
    455c:	2301      	movs	r3, #1
    455e:	4652      	mov	r2, r10
    4560:	4639      	mov	r1, r7
    4562:	4630      	mov	r0, r6
    4564:	47c0      	blx	r8
    4566:	3001      	adds	r0, #1
    4568:	d103      	bne.n	4572 <_printf_common+0xbe>
    456a:	f04f 30ff 	mov.w	r0, #4294967295	; 0xffffffff
    456e:	e8bd 87f0 	ldmia.w	sp!, {r4, r5, r6, r7, r8, r9, r10, pc}
    4572:	3501      	adds	r5, #1
    4574:	e7c1      	b.n	44fa <_printf_common+0x46>
    4576:	2030      	movs	r0, #48	; 0x30
    4578:	18e1      	adds	r1, r4, r3
    457a:	f881 0043 	strb.w	r0, [r1, #67]	; 0x43
    457e:	1c5a      	adds	r2, r3, #1
    4580:	f894 1045 	ldrb.w	r1, [r4, #69]	; 0x45
    4584:	4422      	add	r2, r4
    4586:	3302      	adds	r3, #2
    4588:	f882 1043 	strb.w	r1, [r2, #67]	; 0x43
    458c:	e7c3      	b.n	4516 <_printf_common+0x62>
    458e:	2301      	movs	r3, #1
    4590:	4622      	mov	r2, r4
    4592:	4639      	mov	r1, r7
    4594:	4630      	mov	r0, r6
    4596:	47c0      	blx	r8
    4598:	3001      	adds	r0, #1
    459a:	d0e6      	beq.n	456a <_printf_common+0xb6>
    459c:	f109 0901 	add.w	r9, r9, #1
    45a0:	e7d7      	b.n	4552 <_printf_common+0x9e>
	...

000045a4 <_printf_i>:
    45a4:	e92d 43f0 	stmdb	sp!, {r4, r5, r6, r7, r8, r9, lr}
    45a8:	4617      	mov	r7, r2
    45aa:	7e0a      	ldrb	r2, [r1, #24]
    45ac:	b085      	sub	sp, #20
    45ae:	2a6e      	cmp	r2, #110	; 0x6e
    45b0:	4698      	mov	r8, r3
    45b2:	4606      	mov	r6, r0
    45b4:	460c      	mov	r4, r1
    45b6:	9b0c      	ldr	r3, [sp, #48]	; 0x30
    45b8:	f101 0e43 	add.w	lr, r1, #67	; 0x43
    45bc:	f000 80bc 	beq.w	4738 <_printf_i+0x194>
    45c0:	d81a      	bhi.n	45f8 <_printf_i+0x54>
    45c2:	2a63      	cmp	r2, #99	; 0x63
    45c4:	d02e      	beq.n	4624 <_printf_i+0x80>
    45c6:	d80a      	bhi.n	45de <_printf_i+0x3a>
    45c8:	2a00      	cmp	r2, #0
    45ca:	f000 80c8 	beq.w	475e <_printf_i+0x1ba>
    45ce:	2a58      	cmp	r2, #88	; 0x58
    45d0:	f000 808a 	beq.w	46e8 <_printf_i+0x144>
    45d4:	f104 0542 	add.w	r5, r4, #66	; 0x42
    45d8:	f884 2042 	strb.w	r2, [r4, #66]	; 0x42
    45dc:	e02a      	b.n	4634 <_printf_i+0x90>
    45de:	2a64      	cmp	r2, #100	; 0x64
    45e0:	d001      	beq.n	45e6 <_printf_i+0x42>
    45e2:	2a69      	cmp	r2, #105	; 0x69
    45e4:	d1f6      	bne.n	45d4 <_printf_i+0x30>
    45e6:	6821      	ldr	r1, [r4, #0]
    45e8:	681a      	ldr	r2, [r3, #0]
    45ea:	f011 0f80 	tst.w	r1, #128	; 0x80
    45ee:	d023      	beq.n	4638 <_printf_i+0x94>
    45f0:	1d11      	adds	r1, r2, #4
    45f2:	6019      	str	r1, [r3, #0]
    45f4:	6813      	ldr	r3, [r2, #0]
    45f6:	e027      	b.n	4648 <_printf_i+0xa4>
    45f8:	2a73      	cmp	r2, #115	; 0x73
    45fa:	f000 80b4 	beq.w	4766 <_printf_i+0x1c2>
    45fe:	d808      	bhi.n	4612 <_printf_i+0x6e>
    4600:	2a6f      	cmp	r2, #111	; 0x6f
    4602:	d02a      	beq.n	465a <_printf_i+0xb6>
    4604:	2a70      	cmp	r2, #112	; 0x70
    4606:	d1e5      	bne.n	45d4 <_printf_i+0x30>
    4608:	680a      	ldr	r2, [r1, #0]
    460a:	f042 0220 	orr.w	r2, r2, #32
    460e:	600a      	str	r2, [r1, #0]
    4610:	e003      	b.n	461a <_printf_i+0x76>
    4612:	2a75      	cmp	r2, #117	; 0x75
    4614:	d021      	beq.n	465a <_printf_i+0xb6>
    4616:	2a78      	cmp	r2, #120	; 0x78
    4618:	d1dc      	bne.n	45d4 <_printf_i+0x30>
    461a:	2278      	movs	r2, #120	; 0x78
    461c:	496f      	ldr	r1, [pc, #444]	; (47dc <_printf_i+0x238>)
    461e:	f884 2045 	strb.w	r2, [r4, #69]	; 0x45
    4622:	e064      	b.n	46ee <_printf_i+0x14a>
    4624:	681a      	ldr	r2, [r3, #0]
    4626:	f101 0542 	add.w	r5, r1, #66	; 0x42
    462a:	1d11      	adds	r1, r2, #4
    462c:	6019      	str	r1, [r3, #0]
    462e:	6813      	ldr	r3, [r2, #0]
    4630:	f884 3042 	strb.w	r3, [r4, #66]	; 0x42
    4634:	2301      	movs	r3, #1
    4636:	e0a3      	b.n	4780 <_printf_i+0x1dc>
    4638:	f011 0f40 	tst.w	r1, #64	; 0x40
    463c:	f102 0104 	add.w	r1, r2, #4
    4640:	6019      	str	r1, [r3, #0]
    4642:	d0d7      	beq.n	45f4 <_printf_i+0x50>
    4644:	f9b2 3000 	ldrsh.w	r3, [r2]
    4648:	2b00      	cmp	r3, #0
    464a:	da03      	bge.n	4654 <_printf_i+0xb0>
    464c:	222d      	movs	r2, #45	; 0x2d
    464e:	425b      	negs	r3, r3
    4650:	f884 2043 	strb.w	r2, [r4, #67]	; 0x43
    4654:	4962      	ldr	r1, [pc, #392]	; (47e0 <_printf_i+0x23c>)
    4656:	220a      	movs	r2, #10
    4658:	e017      	b.n	468a <_printf_i+0xe6>
    465a:	6820      	ldr	r0, [r4, #0]
    465c:	6819      	ldr	r1, [r3, #0]
    465e:	f010 0f80 	tst.w	r0, #128	; 0x80
    4662:	d003      	beq.n	466c <_printf_i+0xc8>
    4664:	1d08      	adds	r0, r1, #4
    4666:	6018      	str	r0, [r3, #0]
    4668:	680b      	ldr	r3, [r1, #0]
    466a:	e006      	b.n	467a <_printf_i+0xd6>
    466c:	f010 0f40 	tst.w	r0, #64	; 0x40
    4670:	f101 0004 	add.w	r0, r1, #4
    4674:	6018      	str	r0, [r3, #0]
    4676:	d0f7      	beq.n	4668 <_printf_i+0xc4>
    4678:	880b      	ldrh	r3, [r1, #0]
    467a:	2a6f      	cmp	r2, #111	; 0x6f
    467c:	bf14      	ite	ne
    467e:	220a      	movne	r2, #10
    4680:	2208      	moveq	r2, #8
    4682:	4957      	ldr	r1, [pc, #348]	; (47e0 <_printf_i+0x23c>)
    4684:	2000      	movs	r0, #0
    4686:	f884 0043 	strb.w	r0, [r4, #67]	; 0x43
    468a:	6865      	ldr	r5, [r4, #4]
    468c:	2d00      	cmp	r5, #0
    468e:	60a5      	str	r5, [r4, #8]
    4690:	f2c0 809c 	blt.w	47cc <_printf_i+0x228>
    4694:	6820      	ldr	r0, [r4, #0]
    4696:	f020 0004 	bic.w	r0, r0, #4
    469a:	6020      	str	r0, [r4, #0]
    469c:	2b00      	cmp	r3, #0
    469e:	d13f      	bne.n	4720 <_printf_i+0x17c>
    46a0:	2d00      	cmp	r5, #0
    46a2:	f040 8095 	bne.w	47d0 <_printf_i+0x22c>
    46a6:	4675      	mov	r5, lr
    46a8:	2a08      	cmp	r2, #8
    46aa:	d10b      	bne.n	46c4 <_printf_i+0x120>
    46ac:	6823      	ldr	r3, [r4, #0]
    46ae:	07da      	lsls	r2, r3, #31
    46b0:	d508      	bpl.n	46c4 <_printf_i+0x120>
    46b2:	6923      	ldr	r3, [r4, #16]
    46b4:	6862      	ldr	r2, [r4, #4]
    46b6:	429a      	cmp	r2, r3
    46b8:	bfde      	ittt	le
    46ba:	2330      	movle	r3, #48	; 0x30
    46bc:	f805 3c01 	strble.w	r3, [r5, #-1]
    46c0:	f105 35ff 	addle.w	r5, r5, #4294967295	; 0xffffffff
    46c4:	ebae 0305 	sub.w	r3, lr, r5
    46c8:	6123      	str	r3, [r4, #16]
    46ca:	f8cd 8000 	str.w	r8, [sp]
    46ce:	463b      	mov	r3, r7
    46d0:	aa03      	add	r2, sp, #12
    46d2:	4621      	mov	r1, r4
    46d4:	4630      	mov	r0, r6
    46d6:	f7ff feed 	bl	44b4 <_printf_common>
    46da:	3001      	adds	r0, #1
    46dc:	d155      	bne.n	478a <_printf_i+0x1e6>
    46de:	f04f 30ff 	mov.w	r0, #4294967295	; 0xffffffff
    46e2:	b005      	add	sp, #20
    46e4:	e8bd 83f0 	ldmia.w	sp!, {r4, r5, r6, r7, r8, r9, pc}
    46e8:	f881 2045 	strb.w	r2, [r1, #69]	; 0x45
    46ec:	493c      	ldr	r1, [pc, #240]	; (47e0 <_printf_i+0x23c>)
    46ee:	6822      	ldr	r2, [r4, #0]
    46f0:	6818      	ldr	r0, [r3, #0]
    46f2:	f012 0f80 	tst.w	r2, #128	; 0x80
    46f6:	f100 0504 	add.w	r5, r0, #4
    46fa:	601d      	str	r5, [r3, #0]
    46fc:	d001      	beq.n	4702 <_printf_i+0x15e>
    46fe:	6803      	ldr	r3, [r0, #0]
    4700:	e002      	b.n	4708 <_printf_i+0x164>
    4702:	0655      	lsls	r5, r2, #25
    4704:	d5fb      	bpl.n	46fe <_printf_i+0x15a>
    4706:	8803      	ldrh	r3, [r0, #0]
    4708:	07d0      	lsls	r0, r2, #31
    470a:	bf44      	itt	mi
    470c:	f042 0220 	orrmi.w	r2, r2, #32
    4710:	6022      	strmi	r2, [r4, #0]
    4712:	b91b      	cbnz	r3, 471c <_printf_i+0x178>
    4714:	6822      	ldr	r2, [r4, #0]
    4716:	f022 0220 	bic.w	r2, r2, #32
    471a:	6022      	str	r2, [r4, #0]
    471c:	2210      	movs	r2, #16
    471e:	e7b1      	b.n	4684 <_printf_i+0xe0>
    4720:	4675      	mov	r5, lr
    4722:	fbb3 f0f2 	udiv	r0, r3, r2
    4726:	fb02 3310 	mls	r3, r2, r0, r3
    472a:	5ccb      	ldrb	r3, [r1, r3]
    472c:	f805 3d01 	strb.w	r3, [r5, #-1]!
    4730:	4603      	mov	r3, r0
    4732:	2800      	cmp	r0, #0
    4734:	d1f5      	bne.n	4722 <_printf_i+0x17e>
    4736:	e7b7      	b.n	46a8 <_printf_i+0x104>
    4738:	6808      	ldr	r0, [r1, #0]
    473a:	681a      	ldr	r2, [r3, #0]
    473c:	f010 0f80 	tst.w	r0, #128	; 0x80
    4740:	6949      	ldr	r1, [r1, #20]
    4742:	d004      	beq.n	474e <_printf_i+0x1aa>
    4744:	1d10      	adds	r0, r2, #4
    4746:	6018      	str	r0, [r3, #0]
    4748:	6813      	ldr	r3, [r2, #0]
    474a:	6019      	str	r1, [r3, #0]
    474c:	e007      	b.n	475e <_printf_i+0x1ba>
    474e:	f010 0f40 	tst.w	r0, #64	; 0x40
    4752:	f102 0004 	add.w	r0, r2, #4
    4756:	6018      	str	r0, [r3, #0]
    4758:	6813      	ldr	r3, [r2, #0]
    475a:	d0f6      	beq.n	474a <_printf_i+0x1a6>
    475c:	8019      	strh	r1, [r3, #0]
    475e:	2300      	movs	r3, #0
    4760:	4675      	mov	r5, lr
    4762:	6123      	str	r3, [r4, #16]
    4764:	e7b1      	b.n	46ca <_printf_i+0x126>
    4766:	681a      	ldr	r2, [r3, #0]
    4768:	1d11      	adds	r1, r2, #4
    476a:	6019      	str	r1, [r3, #0]
    476c:	6815      	ldr	r5, [r2, #0]
    476e:	2100      	movs	r1, #0
    4770:	6862      	ldr	r2, [r4, #4]
    4772:	4628      	mov	r0, r5
    4774:	f7ff f98c 	bl	3a90 <memchr>
    4778:	b108      	cbz	r0, 477e <_printf_i+0x1da>
    477a:	1b40      	subs	r0, r0, r5
    477c:	6060      	str	r0, [r4, #4]
    477e:	6863      	ldr	r3, [r4, #4]
    4780:	6123      	str	r3, [r4, #16]
    4782:	2300      	movs	r3, #0
    4784:	f884 3043 	strb.w	r3, [r4, #67]	; 0x43
    4788:	e79f      	b.n	46ca <_printf_i+0x126>
    478a:	6923      	ldr	r3, [r4, #16]
    478c:	462a      	mov	r2, r5
    478e:	4639      	mov	r1, r7
    4790:	4630      	mov	r0, r6
    4792:	47c0      	blx	r8
    4794:	3001      	adds	r0, #1
    4796:	d0a2      	beq.n	46de <_printf_i+0x13a>
    4798:	6823      	ldr	r3, [r4, #0]
    479a:	079b      	lsls	r3, r3, #30
    479c:	d507      	bpl.n	47ae <_printf_i+0x20a>
    479e:	2500      	movs	r5, #0
    47a0:	f104 0919 	add.w	r9, r4, #25
    47a4:	68e3      	ldr	r3, [r4, #12]
    47a6:	9a03      	ldr	r2, [sp, #12]
    47a8:	1a9b      	subs	r3, r3, r2
    47aa:	429d      	cmp	r5, r3
    47ac:	db05      	blt.n	47ba <_printf_i+0x216>
    47ae:	68e0      	ldr	r0, [r4, #12]
    47b0:	9b03      	ldr	r3, [sp, #12]
    47b2:	4298      	cmp	r0, r3
    47b4:	bfb8      	it	lt
    47b6:	4618      	movlt	r0, r3
    47b8:	e793      	b.n	46e2 <_printf_i+0x13e>
    47ba:	2301      	movs	r3, #1
    47bc:	464a      	mov	r2, r9
    47be:	4639      	mov	r1, r7
    47c0:	4630      	mov	r0, r6
    47c2:	47c0      	blx	r8
    47c4:	3001      	adds	r0, #1
    47c6:	d08a      	beq.n	46de <_printf_i+0x13a>
    47c8:	3501      	adds	r5, #1
    47ca:	e7eb      	b.n	47a4 <_printf_i+0x200>
    47cc:	2b00      	cmp	r3, #0
    47ce:	d1a7      	bne.n	4720 <_printf_i+0x17c>
    47d0:	780b      	ldrb	r3, [r1, #0]
    47d2:	f104 0542 	add.w	r5, r4, #66	; 0x42
    47d6:	f884 3042 	strb.w	r3, [r4, #66]	; 0x42
    47da:	e765      	b.n	46a8 <_printf_i+0x104>
    47dc:	000073ca 	.word	0x000073ca
    47e0:	000073b9 	.word	0x000073b9

000047e4 <_scanf_chars>:
    47e4:	e92d 41f0 	stmdb	sp!, {r4, r5, r6, r7, r8, lr}
    47e8:	4615      	mov	r5, r2
    47ea:	688a      	ldr	r2, [r1, #8]
    47ec:	4680      	mov	r8, r0
    47ee:	460c      	mov	r4, r1
    47f0:	b932      	cbnz	r2, 4800 <_scanf_chars+0x1c>
    47f2:	698a      	ldr	r2, [r1, #24]
    47f4:	2a00      	cmp	r2, #0
    47f6:	bf0c      	ite	eq
    47f8:	2201      	moveq	r2, #1
    47fa:	f04f 32ff 	movne.w	r2, #4294967295	; 0xffffffff
    47fe:	608a      	str	r2, [r1, #8]
    4800:	2600      	movs	r6, #0
    4802:	6822      	ldr	r2, [r4, #0]
    4804:	06d1      	lsls	r1, r2, #27
    4806:	bf5f      	itttt	pl
    4808:	681a      	ldrpl	r2, [r3, #0]
    480a:	1d11      	addpl	r1, r2, #4
    480c:	6019      	strpl	r1, [r3, #0]
    480e:	6817      	ldrpl	r7, [r2, #0]
    4810:	69a3      	ldr	r3, [r4, #24]
    4812:	b1db      	cbz	r3, 484c <_scanf_chars+0x68>
    4814:	2b01      	cmp	r3, #1
    4816:	d107      	bne.n	4828 <_scanf_chars+0x44>
    4818:	682b      	ldr	r3, [r5, #0]
    481a:	6962      	ldr	r2, [r4, #20]
    481c:	781b      	ldrb	r3, [r3, #0]
    481e:	5cd3      	ldrb	r3, [r2, r3]
    4820:	b9a3      	cbnz	r3, 484c <_scanf_chars+0x68>
    4822:	2e00      	cmp	r6, #0
    4824:	d131      	bne.n	488a <_scanf_chars+0xa6>
    4826:	e006      	b.n	4836 <_scanf_chars+0x52>
    4828:	2b02      	cmp	r3, #2
    482a:	d007      	beq.n	483c <_scanf_chars+0x58>
    482c:	2e00      	cmp	r6, #0
    482e:	d12c      	bne.n	488a <_scanf_chars+0xa6>
    4830:	69a3      	ldr	r3, [r4, #24]
    4832:	2b01      	cmp	r3, #1
    4834:	d129      	bne.n	488a <_scanf_chars+0xa6>
    4836:	2001      	movs	r0, #1
    4838:	e8bd 81f0 	ldmia.w	sp!, {r4, r5, r6, r7, r8, pc}
    483c:	f001 fbe8 	bl	6010 <__locale_ctype_ptr>
    4840:	682b      	ldr	r3, [r5, #0]
    4842:	781b      	ldrb	r3, [r3, #0]
    4844:	4418      	add	r0, r3
    4846:	7843      	ldrb	r3, [r0, #1]
    4848:	071b      	lsls	r3, r3, #28
    484a:	d4ef      	bmi.n	482c <_scanf_chars+0x48>
    484c:	6823      	ldr	r3, [r4, #0]
    484e:	3601      	adds	r6, #1
    4850:	06da      	lsls	r2, r3, #27
    4852:	bf5e      	ittt	pl
    4854:	682b      	ldrpl	r3, [r5, #0]
    4856:	781b      	ldrbpl	r3, [r3, #0]
    4858:	703b      	strbpl	r3, [r7, #0]
    485a:	682a      	ldr	r2, [r5, #0]
    485c:	686b      	ldr	r3, [r5, #4]
    485e:	f102 0201 	add.w	r2, r2, #1
    4862:	602a      	str	r2, [r5, #0]
    4864:	68a2      	ldr	r2, [r4, #8]
    4866:	f103 33ff 	add.w	r3, r3, #4294967295	; 0xffffffff
    486a:	f102 32ff 	add.w	r2, r2, #4294967295	; 0xffffffff
    486e:	606b      	str	r3, [r5, #4]
    4870:	bf58      	it	pl
    4872:	3701      	addpl	r7, #1
    4874:	60a2      	str	r2, [r4, #8]
    4876:	b142      	cbz	r2, 488a <_scanf_chars+0xa6>
    4878:	2b00      	cmp	r3, #0
    487a:	dcc9      	bgt.n	4810 <_scanf_chars+0x2c>
    487c:	f8d4 3180 	ldr.w	r3, [r4, #384]	; 0x180
    4880:	4629      	mov	r1, r5
    4882:	4640      	mov	r0, r8
    4884:	4798      	blx	r3
    4886:	2800      	cmp	r0, #0
    4888:	d0c2      	beq.n	4810 <_scanf_chars+0x2c>
    488a:	6823      	ldr	r3, [r4, #0]
    488c:	f013 0310 	ands.w	r3, r3, #16
    4890:	d105      	bne.n	489e <_scanf_chars+0xba>
    4892:	68e2      	ldr	r2, [r4, #12]
    4894:	3201      	adds	r2, #1
    4896:	60e2      	str	r2, [r4, #12]
    4898:	69a2      	ldr	r2, [r4, #24]
    489a:	b102      	cbz	r2, 489e <_scanf_chars+0xba>
    489c:	703b      	strb	r3, [r7, #0]
    489e:	6923      	ldr	r3, [r4, #16]
    48a0:	2000      	movs	r0, #0
    48a2:	441e      	add	r6, r3
    48a4:	6126      	str	r6, [r4, #16]
    48a6:	e8bd 81f0 	ldmia.w	sp!, {r4, r5, r6, r7, r8, pc}
	...

000048ac <_scanf_i>:
    48ac:	e92d 4ff0 	stmdb	sp!, {r4, r5, r6, r7, r8, r9, r10, r11, lr}
    48b0:	460c      	mov	r4, r1
    48b2:	469a      	mov	r10, r3
    48b4:	4b74      	ldr	r3, [pc, #464]	; (4a88 <_scanf_i+0x1dc>)
    48b6:	b087      	sub	sp, #28
    48b8:	4683      	mov	r11, r0
    48ba:	4616      	mov	r6, r2
    48bc:	e893 0007 	ldmia.w	r3, {r0, r1, r2}
    48c0:	ab03      	add	r3, sp, #12
    48c2:	68a7      	ldr	r7, [r4, #8]
    48c4:	e883 0007 	stmia.w	r3, {r0, r1, r2}
    48c8:	4b70      	ldr	r3, [pc, #448]	; (4a8c <_scanf_i+0x1e0>)
    48ca:	69a1      	ldr	r1, [r4, #24]
    48cc:	4a70      	ldr	r2, [pc, #448]	; (4a90 <_scanf_i+0x1e4>)
    48ce:	f104 091c 	add.w	r9, r4, #28
    48d2:	2903      	cmp	r1, #3
    48d4:	bf18      	it	ne
    48d6:	461a      	movne	r2, r3
    48d8:	1e7b      	subs	r3, r7, #1
    48da:	f5b3 7fae 	cmp.w	r3, #348	; 0x15c
    48de:	bf84      	itt	hi
    48e0:	f240 135d 	movwhi	r3, #349	; 0x15d
    48e4:	60a3      	strhi	r3, [r4, #8]
    48e6:	6823      	ldr	r3, [r4, #0]
    48e8:	bf88      	it	hi
    48ea:	f46f 75ae 	mvnhi.w	r5, #348	; 0x15c
    48ee:	f443 6350 	orr.w	r3, r3, #3328	; 0xd00
    48f2:	6023      	str	r3, [r4, #0]
    48f4:	bf98      	it	ls
    48f6:	2700      	movls	r7, #0
    48f8:	464b      	mov	r3, r9
    48fa:	f04f 0800 	mov.w	r8, #0
    48fe:	9200      	str	r2, [sp, #0]
    4900:	bf88      	it	hi
    4902:	197f      	addhi	r7, r7, r5
    4904:	6831      	ldr	r1, [r6, #0]
    4906:	9301      	str	r3, [sp, #4]
    4908:	ab03      	add	r3, sp, #12
    490a:	f853 0028 	ldr.w	r0, [r3, r8, lsl #2]
    490e:	2202      	movs	r2, #2
    4910:	7809      	ldrb	r1, [r1, #0]
    4912:	f7ff f8bd 	bl	3a90 <memchr>
    4916:	9b01      	ldr	r3, [sp, #4]
    4918:	b328      	cbz	r0, 4966 <_scanf_i+0xba>
    491a:	f1b8 0f01 	cmp.w	r8, #1
    491e:	d156      	bne.n	49ce <_scanf_i+0x122>
    4920:	6862      	ldr	r2, [r4, #4]
    4922:	b92a      	cbnz	r2, 4930 <_scanf_i+0x84>
    4924:	2208      	movs	r2, #8
    4926:	6062      	str	r2, [r4, #4]
    4928:	6822      	ldr	r2, [r4, #0]
    492a:	f442 7200 	orr.w	r2, r2, #512	; 0x200
    492e:	6022      	str	r2, [r4, #0]
    4930:	6822      	ldr	r2, [r4, #0]
    4932:	f422 62a0 	bic.w	r2, r2, #1280	; 0x500
    4936:	6022      	str	r2, [r4, #0]
    4938:	68a2      	ldr	r2, [r4, #8]
    493a:	1e51      	subs	r1, r2, #1
    493c:	60a1      	str	r1, [r4, #8]
    493e:	b192      	cbz	r2, 4966 <_scanf_i+0xba>
    4940:	6832      	ldr	r2, [r6, #0]
    4942:	1c5d      	adds	r5, r3, #1
    4944:	1c51      	adds	r1, r2, #1
    4946:	6031      	str	r1, [r6, #0]
    4948:	7812      	ldrb	r2, [r2, #0]
    494a:	701a      	strb	r2, [r3, #0]
    494c:	6873      	ldr	r3, [r6, #4]
    494e:	3b01      	subs	r3, #1
    4950:	2b00      	cmp	r3, #0
    4952:	6073      	str	r3, [r6, #4]
    4954:	dc06      	bgt.n	4964 <_scanf_i+0xb8>
    4956:	f8d4 3180 	ldr.w	r3, [r4, #384]	; 0x180
    495a:	4631      	mov	r1, r6
    495c:	4658      	mov	r0, r11
    495e:	4798      	blx	r3
    4960:	2800      	cmp	r0, #0
    4962:	d177      	bne.n	4a54 <_scanf_i+0x1a8>
    4964:	462b      	mov	r3, r5
    4966:	f108 0801 	add.w	r8, r8, #1
    496a:	f1b8 0f03 	cmp.w	r8, #3
    496e:	d1c9      	bne.n	4904 <_scanf_i+0x58>
    4970:	6862      	ldr	r2, [r4, #4]
    4972:	b90a      	cbnz	r2, 4978 <_scanf_i+0xcc>
    4974:	220a      	movs	r2, #10
    4976:	6062      	str	r2, [r4, #4]
    4978:	6862      	ldr	r2, [r4, #4]
    497a:	4946      	ldr	r1, [pc, #280]	; (4a94 <_scanf_i+0x1e8>)
    497c:	6960      	ldr	r0, [r4, #20]
    497e:	1a89      	subs	r1, r1, r2
    4980:	9301      	str	r3, [sp, #4]
    4982:	f000 f8ab 	bl	4adc <__sccl>
    4986:	9b01      	ldr	r3, [sp, #4]
    4988:	f04f 0800 	mov.w	r8, #0
    498c:	461d      	mov	r5, r3
    498e:	68a3      	ldr	r3, [r4, #8]
    4990:	2b00      	cmp	r3, #0
    4992:	d039      	beq.n	4a08 <_scanf_i+0x15c>
    4994:	6831      	ldr	r1, [r6, #0]
    4996:	6960      	ldr	r0, [r4, #20]
    4998:	780a      	ldrb	r2, [r1, #0]
    499a:	5c80      	ldrb	r0, [r0, r2]
    499c:	2800      	cmp	r0, #0
    499e:	d033      	beq.n	4a08 <_scanf_i+0x15c>
    49a0:	2a30      	cmp	r2, #48	; 0x30
    49a2:	6822      	ldr	r2, [r4, #0]
    49a4:	d121      	bne.n	49ea <_scanf_i+0x13e>
    49a6:	0510      	lsls	r0, r2, #20
    49a8:	d51f      	bpl.n	49ea <_scanf_i+0x13e>
    49aa:	f108 0801 	add.w	r8, r8, #1
    49ae:	b117      	cbz	r7, 49b6 <_scanf_i+0x10a>
    49b0:	3301      	adds	r3, #1
    49b2:	3f01      	subs	r7, #1
    49b4:	60a3      	str	r3, [r4, #8]
    49b6:	6873      	ldr	r3, [r6, #4]
    49b8:	3b01      	subs	r3, #1
    49ba:	2b00      	cmp	r3, #0
    49bc:	6073      	str	r3, [r6, #4]
    49be:	dd1c      	ble.n	49fa <_scanf_i+0x14e>
    49c0:	6833      	ldr	r3, [r6, #0]
    49c2:	3301      	adds	r3, #1
    49c4:	6033      	str	r3, [r6, #0]
    49c6:	68a3      	ldr	r3, [r4, #8]
    49c8:	3b01      	subs	r3, #1
    49ca:	60a3      	str	r3, [r4, #8]
    49cc:	e7df      	b.n	498e <_scanf_i+0xe2>
    49ce:	f1b8 0f02 	cmp.w	r8, #2
    49d2:	d1b1      	bne.n	4938 <_scanf_i+0x8c>
    49d4:	6822      	ldr	r2, [r4, #0]
    49d6:	f402 61c0 	and.w	r1, r2, #1536	; 0x600
    49da:	f5b1 7f00 	cmp.w	r1, #512	; 0x200
    49de:	d1c2      	bne.n	4966 <_scanf_i+0xba>
    49e0:	2110      	movs	r1, #16
    49e2:	f442 7280 	orr.w	r2, r2, #256	; 0x100
    49e6:	6061      	str	r1, [r4, #4]
    49e8:	e7a5      	b.n	4936 <_scanf_i+0x8a>
    49ea:	f422 6210 	bic.w	r2, r2, #2304	; 0x900
    49ee:	6022      	str	r2, [r4, #0]
    49f0:	780b      	ldrb	r3, [r1, #0]
    49f2:	3501      	adds	r5, #1
    49f4:	f805 3c01 	strb.w	r3, [r5, #-1]
    49f8:	e7dd      	b.n	49b6 <_scanf_i+0x10a>
    49fa:	f8d4 3180 	ldr.w	r3, [r4, #384]	; 0x180
    49fe:	4631      	mov	r1, r6
    4a00:	4658      	mov	r0, r11
    4a02:	4798      	blx	r3
    4a04:	2800      	cmp	r0, #0
    4a06:	d0de      	beq.n	49c6 <_scanf_i+0x11a>
    4a08:	6823      	ldr	r3, [r4, #0]
    4a0a:	05d9      	lsls	r1, r3, #23
    4a0c:	d50c      	bpl.n	4a28 <_scanf_i+0x17c>
    4a0e:	454d      	cmp	r5, r9
    4a10:	d908      	bls.n	4a24 <_scanf_i+0x178>
    4a12:	f815 1c01 	ldrb.w	r1, [r5, #-1]
    4a16:	1e6f      	subs	r7, r5, #1
    4a18:	f8d4 317c 	ldr.w	r3, [r4, #380]	; 0x17c
    4a1c:	4632      	mov	r2, r6
    4a1e:	4658      	mov	r0, r11
    4a20:	4798      	blx	r3
    4a22:	463d      	mov	r5, r7
    4a24:	454d      	cmp	r5, r9
    4a26:	d02c      	beq.n	4a82 <_scanf_i+0x1d6>
    4a28:	6822      	ldr	r2, [r4, #0]
    4a2a:	f012 0210 	ands.w	r2, r2, #16
    4a2e:	d11e      	bne.n	4a6e <_scanf_i+0x1c2>
    4a30:	702a      	strb	r2, [r5, #0]
    4a32:	6863      	ldr	r3, [r4, #4]
    4a34:	4649      	mov	r1, r9
    4a36:	4658      	mov	r0, r11
    4a38:	9e00      	ldr	r6, [sp, #0]
    4a3a:	47b0      	blx	r6
    4a3c:	6822      	ldr	r2, [r4, #0]
    4a3e:	f8da 3000 	ldr.w	r3, [r10]
    4a42:	f012 0f20 	tst.w	r2, #32
    4a46:	d008      	beq.n	4a5a <_scanf_i+0x1ae>
    4a48:	1d1a      	adds	r2, r3, #4
    4a4a:	f8ca 2000 	str.w	r2, [r10]
    4a4e:	681b      	ldr	r3, [r3, #0]
    4a50:	6018      	str	r0, [r3, #0]
    4a52:	e009      	b.n	4a68 <_scanf_i+0x1bc>
    4a54:	f04f 0800 	mov.w	r8, #0
    4a58:	e7d6      	b.n	4a08 <_scanf_i+0x15c>
    4a5a:	07d2      	lsls	r2, r2, #31
    4a5c:	d5f4      	bpl.n	4a48 <_scanf_i+0x19c>
    4a5e:	1d1a      	adds	r2, r3, #4
    4a60:	f8ca 2000 	str.w	r2, [r10]
    4a64:	681b      	ldr	r3, [r3, #0]
    4a66:	8018      	strh	r0, [r3, #0]
    4a68:	68e3      	ldr	r3, [r4, #12]
    4a6a:	3301      	adds	r3, #1
    4a6c:	60e3      	str	r3, [r4, #12]
    4a6e:	2000      	movs	r0, #0
    4a70:	eba5 0509 	sub.w	r5, r5, r9
    4a74:	44a8      	add	r8, r5
    4a76:	6925      	ldr	r5, [r4, #16]
    4a78:	4445      	add	r5, r8
    4a7a:	6125      	str	r5, [r4, #16]
    4a7c:	b007      	add	sp, #28
    4a7e:	e8bd 8ff0 	ldmia.w	sp!, {r4, r5, r6, r7, r8, r9, r10, r11, pc}
    4a82:	2001      	movs	r0, #1
    4a84:	e7fa      	b.n	4a7c <_scanf_i+0x1d0>
    4a86:	bf00      	nop
    4a88:	000073dc 	.word	0x000073dc
    4a8c:	00005039 	.word	0x00005039
    4a90:	00004f19 	.word	0x00004f19
    4a94:	000073f8 	.word	0x000073f8

00004a98 <_open_r>:
    4a98:	b538      	push	{r3, r4, r5, lr}
    4a9a:	4605      	mov	r5, r0
    4a9c:	4608      	mov	r0, r1
    4a9e:	4611      	mov	r1, r2
    4aa0:	2200      	movs	r2, #0
    4aa2:	4c05      	ldr	r4, [pc, #20]	; (4ab8 <_open_r+0x20>)
    4aa4:	6022      	str	r2, [r4, #0]
    4aa6:	461a      	mov	r2, r3
    4aa8:	f7fd fcf6 	bl	2498 <_open>
    4aac:	1c43      	adds	r3, r0, #1
    4aae:	d102      	bne.n	4ab6 <_open_r+0x1e>
    4ab0:	6823      	ldr	r3, [r4, #0]
    4ab2:	b103      	cbz	r3, 4ab6 <_open_r+0x1e>
    4ab4:	602b      	str	r3, [r5, #0]
    4ab6:	bd38      	pop	{r3, r4, r5, pc}
    4ab8:	100007c4 	.word	0x100007c4

00004abc <_sbrk_r>:
    4abc:	b538      	push	{r3, r4, r5, lr}
    4abe:	2300      	movs	r3, #0
    4ac0:	4c05      	ldr	r4, [pc, #20]	; (4ad8 <_sbrk_r+0x1c>)
    4ac2:	4605      	mov	r5, r0
    4ac4:	4608      	mov	r0, r1
    4ac6:	6023      	str	r3, [r4, #0]
    4ac8:	f7fd fc66 	bl	2398 <_sbrk>
    4acc:	1c43      	adds	r3, r0, #1
    4ace:	d102      	bne.n	4ad6 <_sbrk_r+0x1a>
    4ad0:	6823      	ldr	r3, [r4, #0]
    4ad2:	b103      	cbz	r3, 4ad6 <_sbrk_r+0x1a>
    4ad4:	602b      	str	r3, [r5, #0]
    4ad6:	bd38      	pop	{r3, r4, r5, pc}
    4ad8:	100007c4 	.word	0x100007c4

00004adc <__sccl>:
    4adc:	b570      	push	{r4, r5, r6, lr}
    4ade:	780b      	ldrb	r3, [r1, #0]
    4ae0:	1e44      	subs	r4, r0, #1
    4ae2:	2b5e      	cmp	r3, #94	; 0x5e
    4ae4:	bf13      	iteet	ne
    4ae6:	1c4a      	addne	r2, r1, #1
    4ae8:	1c8a      	addeq	r2, r1, #2
    4aea:	784b      	ldrbeq	r3, [r1, #1]
    4aec:	2100      	movne	r1, #0
    4aee:	bf08      	it	eq
    4af0:	2101      	moveq	r1, #1
    4af2:	f100 05ff 	add.w	r5, r0, #255	; 0xff
    4af6:	f804 1f01 	strb.w	r1, [r4, #1]!
    4afa:	42a5      	cmp	r5, r4
    4afc:	d1fb      	bne.n	4af6 <__sccl+0x1a>
    4afe:	b913      	cbnz	r3, 4b06 <__sccl+0x2a>
    4b00:	3a01      	subs	r2, #1
    4b02:	4610      	mov	r0, r2
    4b04:	bd70      	pop	{r4, r5, r6, pc}
    4b06:	f081 0401 	eor.w	r4, r1, #1
    4b0a:	4611      	mov	r1, r2
    4b0c:	54c4      	strb	r4, [r0, r3]
    4b0e:	780d      	ldrb	r5, [r1, #0]
    4b10:	1c4a      	adds	r2, r1, #1
    4b12:	2d2d      	cmp	r5, #45	; 0x2d
    4b14:	d006      	beq.n	4b24 <__sccl+0x48>
    4b16:	2d5d      	cmp	r5, #93	; 0x5d
    4b18:	d0f3      	beq.n	4b02 <__sccl+0x26>
    4b1a:	b90d      	cbnz	r5, 4b20 <__sccl+0x44>
    4b1c:	460a      	mov	r2, r1
    4b1e:	e7f0      	b.n	4b02 <__sccl+0x26>
    4b20:	462b      	mov	r3, r5
    4b22:	e7f2      	b.n	4b0a <__sccl+0x2e>
    4b24:	784e      	ldrb	r6, [r1, #1]
    4b26:	2e5d      	cmp	r6, #93	; 0x5d
    4b28:	d0fa      	beq.n	4b20 <__sccl+0x44>
    4b2a:	42b3      	cmp	r3, r6
    4b2c:	dcf8      	bgt.n	4b20 <__sccl+0x44>
    4b2e:	3102      	adds	r1, #2
    4b30:	3301      	adds	r3, #1
    4b32:	429e      	cmp	r6, r3
    4b34:	54c4      	strb	r4, [r0, r3]
    4b36:	dcfb      	bgt.n	4b30 <__sccl+0x54>
    4b38:	e7e9      	b.n	4b0e <__sccl+0x32>

00004b3a <setbuf>:
    4b3a:	2900      	cmp	r1, #0
    4b3c:	f44f 6380 	mov.w	r3, #1024	; 0x400
    4b40:	bf0c      	ite	eq
    4b42:	2202      	moveq	r2, #2
    4b44:	2200      	movne	r2, #0
    4b46:	f000 b801 	b.w	4b4c <setvbuf>
	...

00004b4c <setvbuf>:
    4b4c:	e92d 43f7 	stmdb	sp!, {r0, r1, r2, r4, r5, r6, r7, r8, r9, lr}
    4b50:	461d      	mov	r5, r3
    4b52:	4b51      	ldr	r3, [pc, #324]	; (4c98 <setvbuf+0x14c>)
    4b54:	4604      	mov	r4, r0
    4b56:	681e      	ldr	r6, [r3, #0]
    4b58:	460f      	mov	r7, r1
    4b5a:	4690      	mov	r8, r2
    4b5c:	b126      	cbz	r6, 4b68 <setvbuf+0x1c>
    4b5e:	69b3      	ldr	r3, [r6, #24]
    4b60:	b913      	cbnz	r3, 4b68 <setvbuf+0x1c>
    4b62:	4630      	mov	r0, r6
    4b64:	f7fe fd96 	bl	3694 <__sinit>
    4b68:	4b4c      	ldr	r3, [pc, #304]	; (4c9c <setvbuf+0x150>)
    4b6a:	429c      	cmp	r4, r3
    4b6c:	d152      	bne.n	4c14 <setvbuf+0xc8>
    4b6e:	6874      	ldr	r4, [r6, #4]
    4b70:	f1b8 0f02 	cmp.w	r8, #2
    4b74:	d006      	beq.n	4b84 <setvbuf+0x38>
    4b76:	f1b8 0f01 	cmp.w	r8, #1
    4b7a:	f200 8089 	bhi.w	4c90 <setvbuf+0x144>
    4b7e:	2d00      	cmp	r5, #0
    4b80:	f2c0 8086 	blt.w	4c90 <setvbuf+0x144>
    4b84:	4621      	mov	r1, r4
    4b86:	4630      	mov	r0, r6
    4b88:	f7fe fd08 	bl	359c <_fflush_r>
    4b8c:	6b61      	ldr	r1, [r4, #52]	; 0x34
    4b8e:	b141      	cbz	r1, 4ba2 <setvbuf+0x56>
    4b90:	f104 0344 	add.w	r3, r4, #68	; 0x44
    4b94:	4299      	cmp	r1, r3
    4b96:	d002      	beq.n	4b9e <setvbuf+0x52>
    4b98:	4630      	mov	r0, r6
    4b9a:	f7fd faf1 	bl	2180 <__wrap__free_r>
    4b9e:	2300      	movs	r3, #0
    4ba0:	6363      	str	r3, [r4, #52]	; 0x34
    4ba2:	2300      	movs	r3, #0
    4ba4:	61a3      	str	r3, [r4, #24]
    4ba6:	6063      	str	r3, [r4, #4]
    4ba8:	89a3      	ldrh	r3, [r4, #12]
    4baa:	061b      	lsls	r3, r3, #24
    4bac:	d503      	bpl.n	4bb6 <setvbuf+0x6a>
    4bae:	6921      	ldr	r1, [r4, #16]
    4bb0:	4630      	mov	r0, r6
    4bb2:	f7fd fae5 	bl	2180 <__wrap__free_r>
    4bb6:	89a3      	ldrh	r3, [r4, #12]
    4bb8:	f1b8 0f02 	cmp.w	r8, #2
    4bbc:	f423 634a 	bic.w	r3, r3, #3232	; 0xca0
    4bc0:	f023 0303 	bic.w	r3, r3, #3
    4bc4:	81a3      	strh	r3, [r4, #12]
    4bc6:	d05d      	beq.n	4c84 <setvbuf+0x138>
    4bc8:	ab01      	add	r3, sp, #4
    4bca:	466a      	mov	r2, sp
    4bcc:	4621      	mov	r1, r4
    4bce:	4630      	mov	r0, r6
    4bd0:	f7fe feea 	bl	39a8 <__swhatbuf_r>
    4bd4:	89a3      	ldrh	r3, [r4, #12]
    4bd6:	4318      	orrs	r0, r3
    4bd8:	81a0      	strh	r0, [r4, #12]
    4bda:	bb2d      	cbnz	r5, 4c28 <setvbuf+0xdc>
    4bdc:	9d00      	ldr	r5, [sp, #0]
    4bde:	4628      	mov	r0, r5
    4be0:	f7fe ff46 	bl	3a70 <malloc>
    4be4:	4607      	mov	r7, r0
    4be6:	2800      	cmp	r0, #0
    4be8:	d14e      	bne.n	4c88 <setvbuf+0x13c>
    4bea:	f8dd 9000 	ldr.w	r9, [sp]
    4bee:	45a9      	cmp	r9, r5
    4bf0:	d13c      	bne.n	4c6c <setvbuf+0x120>
    4bf2:	f04f 30ff 	mov.w	r0, #4294967295	; 0xffffffff
    4bf6:	89a3      	ldrh	r3, [r4, #12]
    4bf8:	f043 0302 	orr.w	r3, r3, #2
    4bfc:	81a3      	strh	r3, [r4, #12]
    4bfe:	2300      	movs	r3, #0
    4c00:	60a3      	str	r3, [r4, #8]
    4c02:	f104 0347 	add.w	r3, r4, #71	; 0x47
    4c06:	6023      	str	r3, [r4, #0]
    4c08:	6123      	str	r3, [r4, #16]
    4c0a:	2301      	movs	r3, #1
    4c0c:	6163      	str	r3, [r4, #20]
    4c0e:	b003      	add	sp, #12
    4c10:	e8bd 83f0 	ldmia.w	sp!, {r4, r5, r6, r7, r8, r9, pc}
    4c14:	4b22      	ldr	r3, [pc, #136]	; (4ca0 <setvbuf+0x154>)
    4c16:	429c      	cmp	r4, r3
    4c18:	d101      	bne.n	4c1e <setvbuf+0xd2>
    4c1a:	68b4      	ldr	r4, [r6, #8]
    4c1c:	e7a8      	b.n	4b70 <setvbuf+0x24>
    4c1e:	4b21      	ldr	r3, [pc, #132]	; (4ca4 <setvbuf+0x158>)
    4c20:	429c      	cmp	r4, r3
    4c22:	bf08      	it	eq
    4c24:	68f4      	ldreq	r4, [r6, #12]
    4c26:	e7a3      	b.n	4b70 <setvbuf+0x24>
    4c28:	2f00      	cmp	r7, #0
    4c2a:	d0d8      	beq.n	4bde <setvbuf+0x92>
    4c2c:	69b3      	ldr	r3, [r6, #24]
    4c2e:	b913      	cbnz	r3, 4c36 <setvbuf+0xea>
    4c30:	4630      	mov	r0, r6
    4c32:	f7fe fd2f 	bl	3694 <__sinit>
    4c36:	f1b8 0f01 	cmp.w	r8, #1
    4c3a:	bf08      	it	eq
    4c3c:	89a3      	ldrheq	r3, [r4, #12]
    4c3e:	6027      	str	r7, [r4, #0]
    4c40:	bf04      	itt	eq
    4c42:	f043 0301 	orreq.w	r3, r3, #1
    4c46:	81a3      	strheq	r3, [r4, #12]
    4c48:	89a3      	ldrh	r3, [r4, #12]
    4c4a:	6127      	str	r7, [r4, #16]
    4c4c:	f013 0008 	ands.w	r0, r3, #8
    4c50:	6165      	str	r5, [r4, #20]
    4c52:	d01b      	beq.n	4c8c <setvbuf+0x140>
    4c54:	f013 0001 	ands.w	r0, r3, #1
    4c58:	f04f 0300 	mov.w	r3, #0
    4c5c:	bf1f      	itttt	ne
    4c5e:	426d      	negne	r5, r5
    4c60:	60a3      	strne	r3, [r4, #8]
    4c62:	61a5      	strne	r5, [r4, #24]
    4c64:	4618      	movne	r0, r3
    4c66:	bf08      	it	eq
    4c68:	60a5      	streq	r5, [r4, #8]
    4c6a:	e7d0      	b.n	4c0e <setvbuf+0xc2>
    4c6c:	4648      	mov	r0, r9
    4c6e:	f7fe feff 	bl	3a70 <malloc>
    4c72:	4607      	mov	r7, r0
    4c74:	2800      	cmp	r0, #0
    4c76:	d0bc      	beq.n	4bf2 <setvbuf+0xa6>
    4c78:	89a3      	ldrh	r3, [r4, #12]
    4c7a:	464d      	mov	r5, r9
    4c7c:	f043 0380 	orr.w	r3, r3, #128	; 0x80
    4c80:	81a3      	strh	r3, [r4, #12]
    4c82:	e7d3      	b.n	4c2c <setvbuf+0xe0>
    4c84:	2000      	movs	r0, #0
    4c86:	e7b6      	b.n	4bf6 <setvbuf+0xaa>
    4c88:	46a9      	mov	r9, r5
    4c8a:	e7f5      	b.n	4c78 <setvbuf+0x12c>
    4c8c:	60a0      	str	r0, [r4, #8]
    4c8e:	e7be      	b.n	4c0e <setvbuf+0xc2>
    4c90:	f04f 30ff 	mov.w	r0, #4294967295	; 0xffffffff
    4c94:	e7bb      	b.n	4c0e <setvbuf+0xc2>
    4c96:	bf00      	nop
    4c98:	100000d4 	.word	0x100000d4
    4c9c:	00007354 	.word	0x00007354
    4ca0:	00007374 	.word	0x00007374
    4ca4:	00007334 	.word	0x00007334

00004ca8 <siprintf>:
    4ca8:	b40e      	push	{r1, r2, r3}
    4caa:	f44f 7102 	mov.w	r1, #520	; 0x208
    4cae:	b500      	push	{lr}
    4cb0:	b09c      	sub	sp, #112	; 0x70
    4cb2:	f8ad 1014 	strh.w	r1, [sp, #20]
    4cb6:	f06f 4100 	mvn.w	r1, #2147483648	; 0x80000000
    4cba:	9104      	str	r1, [sp, #16]
    4cbc:	9107      	str	r1, [sp, #28]
    4cbe:	f64f 71ff 	movw	r1, #65535	; 0xffff
    4cc2:	ab1d      	add	r3, sp, #116	; 0x74
    4cc4:	9002      	str	r0, [sp, #8]
    4cc6:	9006      	str	r0, [sp, #24]
    4cc8:	4808      	ldr	r0, [pc, #32]	; (4cec <siprintf+0x44>)
    4cca:	f853 2b04 	ldr.w	r2, [r3], #4
    4cce:	f8ad 1016 	strh.w	r1, [sp, #22]
    4cd2:	6800      	ldr	r0, [r0, #0]
    4cd4:	a902      	add	r1, sp, #8
    4cd6:	9301      	str	r3, [sp, #4]
    4cd8:	f001 fd2a 	bl	6730 <_svfiprintf_r>
    4cdc:	2200      	movs	r2, #0
    4cde:	9b02      	ldr	r3, [sp, #8]
    4ce0:	701a      	strb	r2, [r3, #0]
    4ce2:	b01c      	add	sp, #112	; 0x70
    4ce4:	f85d eb04 	ldr.w	lr, [sp], #4
    4ce8:	b003      	add	sp, #12
    4cea:	4770      	bx	lr
    4cec:	100000d4 	.word	0x100000d4

00004cf0 <siscanf>:
    4cf0:	b40e      	push	{r1, r2, r3}
    4cf2:	f44f 7201 	mov.w	r2, #516	; 0x204
    4cf6:	b530      	push	{r4, r5, lr}
    4cf8:	b09c      	sub	sp, #112	; 0x70
    4cfa:	ac1f      	add	r4, sp, #124	; 0x7c
    4cfc:	f854 5b04 	ldr.w	r5, [r4], #4
    4d00:	f8ad 2014 	strh.w	r2, [sp, #20]
    4d04:	9002      	str	r0, [sp, #8]
    4d06:	9006      	str	r0, [sp, #24]
    4d08:	f000 f86b 	bl	4de2 <strlen>
    4d0c:	4b0b      	ldr	r3, [pc, #44]	; (4d3c <siscanf+0x4c>)
    4d0e:	9003      	str	r0, [sp, #12]
    4d10:	930b      	str	r3, [sp, #44]	; 0x2c
    4d12:	2300      	movs	r3, #0
    4d14:	930f      	str	r3, [sp, #60]	; 0x3c
    4d16:	9314      	str	r3, [sp, #80]	; 0x50
    4d18:	f64f 73ff 	movw	r3, #65535	; 0xffff
    4d1c:	9007      	str	r0, [sp, #28]
    4d1e:	4808      	ldr	r0, [pc, #32]	; (4d40 <siscanf+0x50>)
    4d20:	f8ad 3016 	strh.w	r3, [sp, #22]
    4d24:	462a      	mov	r2, r5
    4d26:	4623      	mov	r3, r4
    4d28:	a902      	add	r1, sp, #8
    4d2a:	6800      	ldr	r0, [r0, #0]
    4d2c:	9401      	str	r4, [sp, #4]
    4d2e:	f001 fe4d 	bl	69cc <__ssvfiscanf_r>
    4d32:	b01c      	add	sp, #112	; 0x70
    4d34:	e8bd 4030 	ldmia.w	sp!, {r4, r5, lr}
    4d38:	b003      	add	sp, #12
    4d3a:	4770      	bx	lr
    4d3c:	00004d67 	.word	0x00004d67
    4d40:	100000d4 	.word	0x100000d4

00004d44 <__sread>:
    4d44:	b510      	push	{r4, lr}
    4d46:	460c      	mov	r4, r1
    4d48:	f9b1 100e 	ldrsh.w	r1, [r1, #14]
    4d4c:	f001 ff92 	bl	6c74 <_read_r>
    4d50:	2800      	cmp	r0, #0
    4d52:	bfab      	itete	ge
    4d54:	6d63      	ldrge	r3, [r4, #84]	; 0x54
    4d56:	89a3      	ldrhlt	r3, [r4, #12]
    4d58:	181b      	addge	r3, r3, r0
    4d5a:	f423 5380 	biclt.w	r3, r3, #4096	; 0x1000
    4d5e:	bfac      	ite	ge
    4d60:	6563      	strge	r3, [r4, #84]	; 0x54
    4d62:	81a3      	strhlt	r3, [r4, #12]
    4d64:	bd10      	pop	{r4, pc}

00004d66 <__seofread>:
    4d66:	2000      	movs	r0, #0
    4d68:	4770      	bx	lr

00004d6a <__swrite>:
    4d6a:	e92d 41f0 	stmdb	sp!, {r4, r5, r6, r7, r8, lr}
    4d6e:	461f      	mov	r7, r3
    4d70:	898b      	ldrh	r3, [r1, #12]
    4d72:	4605      	mov	r5, r0
    4d74:	05db      	lsls	r3, r3, #23
    4d76:	460c      	mov	r4, r1
    4d78:	4616      	mov	r6, r2
    4d7a:	d505      	bpl.n	4d88 <__swrite+0x1e>
    4d7c:	2302      	movs	r3, #2
    4d7e:	2200      	movs	r2, #0
    4d80:	f9b1 100e 	ldrsh.w	r1, [r1, #14]
    4d84:	f001 f960 	bl	6048 <_lseek_r>
    4d88:	89a3      	ldrh	r3, [r4, #12]
    4d8a:	4632      	mov	r2, r6
    4d8c:	f423 5380 	bic.w	r3, r3, #4096	; 0x1000
    4d90:	81a3      	strh	r3, [r4, #12]
    4d92:	f9b4 100e 	ldrsh.w	r1, [r4, #14]
    4d96:	463b      	mov	r3, r7
    4d98:	4628      	mov	r0, r5
    4d9a:	e8bd 41f0 	ldmia.w	sp!, {r4, r5, r6, r7, r8, lr}
    4d9e:	f000 b9e9 	b.w	5174 <_write_r>

00004da2 <__sseek>:
    4da2:	b510      	push	{r4, lr}
    4da4:	460c      	mov	r4, r1
    4da6:	f9b1 100e 	ldrsh.w	r1, [r1, #14]
    4daa:	f001 f94d 	bl	6048 <_lseek_r>
    4dae:	1c43      	adds	r3, r0, #1
    4db0:	89a3      	ldrh	r3, [r4, #12]
    4db2:	bf15      	itete	ne
    4db4:	6560      	strne	r0, [r4, #84]	; 0x54
    4db6:	f423 5380 	biceq.w	r3, r3, #4096	; 0x1000
    4dba:	f443 5380 	orrne.w	r3, r3, #4096	; 0x1000
    4dbe:	81a3      	strheq	r3, [r4, #12]
    4dc0:	bf18      	it	ne
    4dc2:	81a3      	strhne	r3, [r4, #12]
    4dc4:	bd10      	pop	{r4, pc}

00004dc6 <__sclose>:
    4dc6:	f9b1 100e 	ldrsh.w	r1, [r1, #14]
    4dca:	f000 ba53 	b.w	5274 <_close_r>

00004dce <strcmp>:
    4dce:	f810 2b01 	ldrb.w	r2, [r0], #1
    4dd2:	f811 3b01 	ldrb.w	r3, [r1], #1
    4dd6:	2a01      	cmp	r2, #1
    4dd8:	bf28      	it	cs
    4dda:	429a      	cmpcs	r2, r3
    4ddc:	d0f7      	beq.n	4dce <strcmp>
    4dde:	1ad0      	subs	r0, r2, r3
    4de0:	4770      	bx	lr

00004de2 <strlen>:
    4de2:	4603      	mov	r3, r0
    4de4:	f813 2b01 	ldrb.w	r2, [r3], #1
    4de8:	2a00      	cmp	r2, #0
    4dea:	d1fb      	bne.n	4de4 <strlen+0x2>
    4dec:	1a18      	subs	r0, r3, r0
    4dee:	3801      	subs	r0, #1
    4df0:	4770      	bx	lr

00004df2 <strncmp>:
    4df2:	b510      	push	{r4, lr}
    4df4:	b16a      	cbz	r2, 4e12 <strncmp+0x20>
    4df6:	3901      	subs	r1, #1
    4df8:	1884      	adds	r4, r0, r2
    4dfa:	f810 3b01 	ldrb.w	r3, [r0], #1
    4dfe:	f811 2f01 	ldrb.w	r2, [r1, #1]!
    4e02:	4293      	cmp	r3, r2
    4e04:	d103      	bne.n	4e0e <strncmp+0x1c>
    4e06:	42a0      	cmp	r0, r4
    4e08:	d001      	beq.n	4e0e <strncmp+0x1c>
    4e0a:	2b00      	cmp	r3, #0
    4e0c:	d1f5      	bne.n	4dfa <strncmp+0x8>
    4e0e:	1a98      	subs	r0, r3, r2
    4e10:	bd10      	pop	{r4, pc}
    4e12:	4610      	mov	r0, r2
    4e14:	bd10      	pop	{r4, pc}

00004e16 <_strtol_l.isra.0>:
    4e16:	e92d 4ff8 	stmdb	sp!, {r3, r4, r5, r6, r7, r8, r9, r10, r11, lr}
    4e1a:	4680      	mov	r8, r0
    4e1c:	4689      	mov	r9, r1
    4e1e:	4692      	mov	r10, r2
    4e20:	461f      	mov	r7, r3
    4e22:	468b      	mov	r11, r1
    4e24:	465d      	mov	r5, r11
    4e26:	980a      	ldr	r0, [sp, #40]	; 0x28
    4e28:	f815 4b01 	ldrb.w	r4, [r5], #1
    4e2c:	f001 f8ec 	bl	6008 <__locale_ctype_ptr_l>
    4e30:	4420      	add	r0, r4
    4e32:	7846      	ldrb	r6, [r0, #1]
    4e34:	f016 0608 	ands.w	r6, r6, #8
    4e38:	d10b      	bne.n	4e52 <_strtol_l.isra.0+0x3c>
    4e3a:	2c2d      	cmp	r4, #45	; 0x2d
    4e3c:	d10b      	bne.n	4e56 <_strtol_l.isra.0+0x40>
    4e3e:	2601      	movs	r6, #1
    4e40:	782c      	ldrb	r4, [r5, #0]
    4e42:	f10b 0502 	add.w	r5, r11, #2
    4e46:	b167      	cbz	r7, 4e62 <_strtol_l.isra.0+0x4c>
    4e48:	2f10      	cmp	r7, #16
    4e4a:	d114      	bne.n	4e76 <_strtol_l.isra.0+0x60>
    4e4c:	2c30      	cmp	r4, #48	; 0x30
    4e4e:	d00a      	beq.n	4e66 <_strtol_l.isra.0+0x50>
    4e50:	e011      	b.n	4e76 <_strtol_l.isra.0+0x60>
    4e52:	46ab      	mov	r11, r5
    4e54:	e7e6      	b.n	4e24 <_strtol_l.isra.0+0xe>
    4e56:	2c2b      	cmp	r4, #43	; 0x2b
    4e58:	bf04      	itt	eq
    4e5a:	782c      	ldrbeq	r4, [r5, #0]
    4e5c:	f10b 0502 	addeq.w	r5, r11, #2
    4e60:	e7f1      	b.n	4e46 <_strtol_l.isra.0+0x30>
    4e62:	2c30      	cmp	r4, #48	; 0x30
    4e64:	d127      	bne.n	4eb6 <_strtol_l.isra.0+0xa0>
    4e66:	782b      	ldrb	r3, [r5, #0]
    4e68:	f003 03df 	and.w	r3, r3, #223	; 0xdf
    4e6c:	2b58      	cmp	r3, #88	; 0x58
    4e6e:	d14b      	bne.n	4f08 <_strtol_l.isra.0+0xf2>
    4e70:	2710      	movs	r7, #16
    4e72:	786c      	ldrb	r4, [r5, #1]
    4e74:	3502      	adds	r5, #2
    4e76:	2e00      	cmp	r6, #0
    4e78:	bf0c      	ite	eq
    4e7a:	f06f 4100 	mvneq.w	r1, #2147483648	; 0x80000000
    4e7e:	f04f 4100 	movne.w	r1, #2147483648	; 0x80000000
    4e82:	2200      	movs	r2, #0
    4e84:	fbb1 fef7 	udiv	lr, r1, r7
    4e88:	4610      	mov	r0, r2
    4e8a:	fb07 1c1e 	mls	r12, r7, lr, r1
    4e8e:	f1a4 0330 	sub.w	r3, r4, #48	; 0x30
    4e92:	2b09      	cmp	r3, #9
    4e94:	d811      	bhi.n	4eba <_strtol_l.isra.0+0xa4>
    4e96:	461c      	mov	r4, r3
    4e98:	42a7      	cmp	r7, r4
    4e9a:	dd1d      	ble.n	4ed8 <_strtol_l.isra.0+0xc2>
    4e9c:	1c53      	adds	r3, r2, #1
    4e9e:	d007      	beq.n	4eb0 <_strtol_l.isra.0+0x9a>
    4ea0:	4586      	cmp	lr, r0
    4ea2:	d316      	bcc.n	4ed2 <_strtol_l.isra.0+0xbc>
    4ea4:	d101      	bne.n	4eaa <_strtol_l.isra.0+0x94>
    4ea6:	45a4      	cmp	r12, r4
    4ea8:	db13      	blt.n	4ed2 <_strtol_l.isra.0+0xbc>
    4eaa:	2201      	movs	r2, #1
    4eac:	fb00 4007 	mla	r0, r0, r7, r4
    4eb0:	f815 4b01 	ldrb.w	r4, [r5], #1
    4eb4:	e7eb      	b.n	4e8e <_strtol_l.isra.0+0x78>
    4eb6:	270a      	movs	r7, #10
    4eb8:	e7dd      	b.n	4e76 <_strtol_l.isra.0+0x60>
    4eba:	f1a4 0341 	sub.w	r3, r4, #65	; 0x41
    4ebe:	2b19      	cmp	r3, #25
    4ec0:	d801      	bhi.n	4ec6 <_strtol_l.isra.0+0xb0>
    4ec2:	3c37      	subs	r4, #55	; 0x37
    4ec4:	e7e8      	b.n	4e98 <_strtol_l.isra.0+0x82>
    4ec6:	f1a4 0361 	sub.w	r3, r4, #97	; 0x61
    4eca:	2b19      	cmp	r3, #25
    4ecc:	d804      	bhi.n	4ed8 <_strtol_l.isra.0+0xc2>
    4ece:	3c57      	subs	r4, #87	; 0x57
    4ed0:	e7e2      	b.n	4e98 <_strtol_l.isra.0+0x82>
    4ed2:	f04f 32ff 	mov.w	r2, #4294967295	; 0xffffffff
    4ed6:	e7eb      	b.n	4eb0 <_strtol_l.isra.0+0x9a>
    4ed8:	1c53      	adds	r3, r2, #1
    4eda:	d108      	bne.n	4eee <_strtol_l.isra.0+0xd8>
    4edc:	2322      	movs	r3, #34	; 0x22
    4ede:	4608      	mov	r0, r1
    4ee0:	f8c8 3000 	str.w	r3, [r8]
    4ee4:	f1ba 0f00 	cmp.w	r10, #0
    4ee8:	d107      	bne.n	4efa <_strtol_l.isra.0+0xe4>
    4eea:	e8bd 8ff8 	ldmia.w	sp!, {r3, r4, r5, r6, r7, r8, r9, r10, r11, pc}
    4eee:	b106      	cbz	r6, 4ef2 <_strtol_l.isra.0+0xdc>
    4ef0:	4240      	negs	r0, r0
    4ef2:	f1ba 0f00 	cmp.w	r10, #0
    4ef6:	d00c      	beq.n	4f12 <_strtol_l.isra.0+0xfc>
    4ef8:	b122      	cbz	r2, 4f04 <_strtol_l.isra.0+0xee>
    4efa:	3d01      	subs	r5, #1
    4efc:	f8ca 5000 	str.w	r5, [r10]
    4f00:	e8bd 8ff8 	ldmia.w	sp!, {r3, r4, r5, r6, r7, r8, r9, r10, r11, pc}
    4f04:	464d      	mov	r5, r9
    4f06:	e7f9      	b.n	4efc <_strtol_l.isra.0+0xe6>
    4f08:	2430      	movs	r4, #48	; 0x30
    4f0a:	2f00      	cmp	r7, #0
    4f0c:	d1b3      	bne.n	4e76 <_strtol_l.isra.0+0x60>
    4f0e:	2708      	movs	r7, #8
    4f10:	e7b1      	b.n	4e76 <_strtol_l.isra.0+0x60>
    4f12:	e8bd 8ff8 	ldmia.w	sp!, {r3, r4, r5, r6, r7, r8, r9, r10, r11, pc}
	...

00004f18 <_strtol_r>:
    4f18:	b537      	push	{r0, r1, r2, r4, r5, lr}
    4f1a:	4c06      	ldr	r4, [pc, #24]	; (4f34 <_strtol_r+0x1c>)
    4f1c:	4d06      	ldr	r5, [pc, #24]	; (4f38 <_strtol_r+0x20>)
    4f1e:	6824      	ldr	r4, [r4, #0]
    4f20:	6a24      	ldr	r4, [r4, #32]
    4f22:	2c00      	cmp	r4, #0
    4f24:	bf08      	it	eq
    4f26:	462c      	moveq	r4, r5
    4f28:	9400      	str	r4, [sp, #0]
    4f2a:	f7ff ff74 	bl	4e16 <_strtol_l.isra.0>
    4f2e:	b003      	add	sp, #12
    4f30:	bd30      	pop	{r4, r5, pc}
    4f32:	bf00      	nop
    4f34:	100000d4 	.word	0x100000d4
    4f38:	10000138 	.word	0x10000138

00004f3c <_strtoul_l.isra.0>:
    4f3c:	e92d 47f0 	stmdb	sp!, {r4, r5, r6, r7, r8, r9, r10, lr}
    4f40:	4680      	mov	r8, r0
    4f42:	4689      	mov	r9, r1
    4f44:	4692      	mov	r10, r2
    4f46:	461e      	mov	r6, r3
    4f48:	460f      	mov	r7, r1
    4f4a:	463d      	mov	r5, r7
    4f4c:	9808      	ldr	r0, [sp, #32]
    4f4e:	f815 4b01 	ldrb.w	r4, [r5], #1
    4f52:	f001 f859 	bl	6008 <__locale_ctype_ptr_l>
    4f56:	4420      	add	r0, r4
    4f58:	7843      	ldrb	r3, [r0, #1]
    4f5a:	f013 0308 	ands.w	r3, r3, #8
    4f5e:	d10a      	bne.n	4f76 <_strtoul_l.isra.0+0x3a>
    4f60:	2c2d      	cmp	r4, #45	; 0x2d
    4f62:	d10a      	bne.n	4f7a <_strtoul_l.isra.0+0x3e>
    4f64:	2301      	movs	r3, #1
    4f66:	782c      	ldrb	r4, [r5, #0]
    4f68:	1cbd      	adds	r5, r7, #2
    4f6a:	b15e      	cbz	r6, 4f84 <_strtoul_l.isra.0+0x48>
    4f6c:	2e10      	cmp	r6, #16
    4f6e:	d113      	bne.n	4f98 <_strtoul_l.isra.0+0x5c>
    4f70:	2c30      	cmp	r4, #48	; 0x30
    4f72:	d009      	beq.n	4f88 <_strtoul_l.isra.0+0x4c>
    4f74:	e010      	b.n	4f98 <_strtoul_l.isra.0+0x5c>
    4f76:	462f      	mov	r7, r5
    4f78:	e7e7      	b.n	4f4a <_strtoul_l.isra.0+0xe>
    4f7a:	2c2b      	cmp	r4, #43	; 0x2b
    4f7c:	bf04      	itt	eq
    4f7e:	782c      	ldrbeq	r4, [r5, #0]
    4f80:	1cbd      	addeq	r5, r7, #2
    4f82:	e7f2      	b.n	4f6a <_strtoul_l.isra.0+0x2e>
    4f84:	2c30      	cmp	r4, #48	; 0x30
    4f86:	d125      	bne.n	4fd4 <_strtoul_l.isra.0+0x98>
    4f88:	782a      	ldrb	r2, [r5, #0]
    4f8a:	f002 02df 	and.w	r2, r2, #223	; 0xdf
    4f8e:	2a58      	cmp	r2, #88	; 0x58
    4f90:	d14a      	bne.n	5028 <_strtoul_l.isra.0+0xec>
    4f92:	2610      	movs	r6, #16
    4f94:	786c      	ldrb	r4, [r5, #1]
    4f96:	3502      	adds	r5, #2
    4f98:	f04f 31ff 	mov.w	r1, #4294967295	; 0xffffffff
    4f9c:	fbb1 f1f6 	udiv	r1, r1, r6
    4fa0:	2700      	movs	r7, #0
    4fa2:	fb06 fe01 	mul.w	lr, r6, r1
    4fa6:	4638      	mov	r0, r7
    4fa8:	ea6f 0e0e 	mvn.w	lr, lr
    4fac:	f1a4 0230 	sub.w	r2, r4, #48	; 0x30
    4fb0:	2a09      	cmp	r2, #9
    4fb2:	d811      	bhi.n	4fd8 <_strtoul_l.isra.0+0x9c>
    4fb4:	4614      	mov	r4, r2
    4fb6:	42a6      	cmp	r6, r4
    4fb8:	dd1d      	ble.n	4ff6 <_strtoul_l.isra.0+0xba>
    4fba:	2f00      	cmp	r7, #0
    4fbc:	db18      	blt.n	4ff0 <_strtoul_l.isra.0+0xb4>
    4fbe:	4281      	cmp	r1, r0
    4fc0:	d316      	bcc.n	4ff0 <_strtoul_l.isra.0+0xb4>
    4fc2:	d101      	bne.n	4fc8 <_strtoul_l.isra.0+0x8c>
    4fc4:	45a6      	cmp	lr, r4
    4fc6:	db13      	blt.n	4ff0 <_strtoul_l.isra.0+0xb4>
    4fc8:	2701      	movs	r7, #1
    4fca:	fb00 4006 	mla	r0, r0, r6, r4
    4fce:	f815 4b01 	ldrb.w	r4, [r5], #1
    4fd2:	e7eb      	b.n	4fac <_strtoul_l.isra.0+0x70>
    4fd4:	260a      	movs	r6, #10
    4fd6:	e7df      	b.n	4f98 <_strtoul_l.isra.0+0x5c>
    4fd8:	f1a4 0241 	sub.w	r2, r4, #65	; 0x41
    4fdc:	2a19      	cmp	r2, #25
    4fde:	d801      	bhi.n	4fe4 <_strtoul_l.isra.0+0xa8>
    4fe0:	3c37      	subs	r4, #55	; 0x37
    4fe2:	e7e8      	b.n	4fb6 <_strtoul_l.isra.0+0x7a>
    4fe4:	f1a4 0261 	sub.w	r2, r4, #97	; 0x61
    4fe8:	2a19      	cmp	r2, #25
    4fea:	d804      	bhi.n	4ff6 <_strtoul_l.isra.0+0xba>
    4fec:	3c57      	subs	r4, #87	; 0x57
    4fee:	e7e2      	b.n	4fb6 <_strtoul_l.isra.0+0x7a>
    4ff0:	f04f 37ff 	mov.w	r7, #4294967295	; 0xffffffff
    4ff4:	e7eb      	b.n	4fce <_strtoul_l.isra.0+0x92>
    4ff6:	2f00      	cmp	r7, #0
    4ff8:	da09      	bge.n	500e <_strtoul_l.isra.0+0xd2>
    4ffa:	2322      	movs	r3, #34	; 0x22
    4ffc:	f04f 30ff 	mov.w	r0, #4294967295	; 0xffffffff
    5000:	f8c8 3000 	str.w	r3, [r8]
    5004:	f1ba 0f00 	cmp.w	r10, #0
    5008:	d107      	bne.n	501a <_strtoul_l.isra.0+0xde>
    500a:	e8bd 87f0 	ldmia.w	sp!, {r4, r5, r6, r7, r8, r9, r10, pc}
    500e:	b103      	cbz	r3, 5012 <_strtoul_l.isra.0+0xd6>
    5010:	4240      	negs	r0, r0
    5012:	f1ba 0f00 	cmp.w	r10, #0
    5016:	d00c      	beq.n	5032 <_strtoul_l.isra.0+0xf6>
    5018:	b127      	cbz	r7, 5024 <_strtoul_l.isra.0+0xe8>
    501a:	3d01      	subs	r5, #1
    501c:	f8ca 5000 	str.w	r5, [r10]
    5020:	e8bd 87f0 	ldmia.w	sp!, {r4, r5, r6, r7, r8, r9, r10, pc}
    5024:	464d      	mov	r5, r9
    5026:	e7f9      	b.n	501c <_strtoul_l.isra.0+0xe0>
    5028:	2430      	movs	r4, #48	; 0x30
    502a:	2e00      	cmp	r6, #0
    502c:	d1b4      	bne.n	4f98 <_strtoul_l.isra.0+0x5c>
    502e:	2608      	movs	r6, #8
    5030:	e7b2      	b.n	4f98 <_strtoul_l.isra.0+0x5c>
    5032:	e8bd 87f0 	ldmia.w	sp!, {r4, r5, r6, r7, r8, r9, r10, pc}
	...

00005038 <_strtoul_r>:
    5038:	b537      	push	{r0, r1, r2, r4, r5, lr}
    503a:	4c06      	ldr	r4, [pc, #24]	; (5054 <_strtoul_r+0x1c>)
    503c:	4d06      	ldr	r5, [pc, #24]	; (5058 <_strtoul_r+0x20>)
    503e:	6824      	ldr	r4, [r4, #0]
    5040:	6a24      	ldr	r4, [r4, #32]
    5042:	2c00      	cmp	r4, #0
    5044:	bf08      	it	eq
    5046:	462c      	moveq	r4, r5
    5048:	9400      	str	r4, [sp, #0]
    504a:	f7ff ff77 	bl	4f3c <_strtoul_l.isra.0>
    504e:	b003      	add	sp, #12
    5050:	bd30      	pop	{r4, r5, pc}
    5052:	bf00      	nop
    5054:	100000d4 	.word	0x100000d4
    5058:	10000138 	.word	0x10000138

0000505c <__submore>:
    505c:	e92d 41f0 	stmdb	sp!, {r4, r5, r6, r7, r8, lr}
    5060:	460c      	mov	r4, r1
    5062:	6b49      	ldr	r1, [r1, #52]	; 0x34
    5064:	f104 0344 	add.w	r3, r4, #68	; 0x44
    5068:	4299      	cmp	r1, r3
    506a:	d11c      	bne.n	50a6 <__submore+0x4a>
    506c:	f44f 6180 	mov.w	r1, #1024	; 0x400
    5070:	f7fd f882 	bl	2178 <__wrap__malloc_r>
    5074:	b918      	cbnz	r0, 507e <__submore+0x22>
    5076:	f04f 30ff 	mov.w	r0, #4294967295	; 0xffffffff
    507a:	e8bd 81f0 	ldmia.w	sp!, {r4, r5, r6, r7, r8, pc}
    507e:	f44f 6380 	mov.w	r3, #1024	; 0x400
    5082:	63a3      	str	r3, [r4, #56]	; 0x38
    5084:	f894 3046 	ldrb.w	r3, [r4, #70]	; 0x46
    5088:	6360      	str	r0, [r4, #52]	; 0x34
    508a:	f880 33ff 	strb.w	r3, [r0, #1023]	; 0x3ff
    508e:	f894 3045 	ldrb.w	r3, [r4, #69]	; 0x45
    5092:	f200 30fd 	addw	r0, r0, #1021	; 0x3fd
    5096:	7043      	strb	r3, [r0, #1]
    5098:	f894 3044 	ldrb.w	r3, [r4, #68]	; 0x44
    509c:	7003      	strb	r3, [r0, #0]
    509e:	6020      	str	r0, [r4, #0]
    50a0:	2000      	movs	r0, #0
    50a2:	e8bd 81f0 	ldmia.w	sp!, {r4, r5, r6, r7, r8, pc}
    50a6:	6ba6      	ldr	r6, [r4, #56]	; 0x38
    50a8:	0077      	lsls	r7, r6, #1
    50aa:	463a      	mov	r2, r7
    50ac:	f7fd f866 	bl	217c <__wrap__realloc_r>
    50b0:	4605      	mov	r5, r0
    50b2:	2800      	cmp	r0, #0
    50b4:	d0df      	beq.n	5076 <__submore+0x1a>
    50b6:	eb00 0806 	add.w	r8, r0, r6
    50ba:	4601      	mov	r1, r0
    50bc:	4632      	mov	r2, r6
    50be:	4640      	mov	r0, r8
    50c0:	f7fe fcf4 	bl	3aac <memcpy>
    50c4:	f8c4 8000 	str.w	r8, [r4]
    50c8:	6365      	str	r5, [r4, #52]	; 0x34
    50ca:	63a7      	str	r7, [r4, #56]	; 0x38
    50cc:	e7e8      	b.n	50a0 <__submore+0x44>
	...

000050d0 <__swbuf_r>:
    50d0:	b5f8      	push	{r3, r4, r5, r6, r7, lr}
    50d2:	460e      	mov	r6, r1
    50d4:	4614      	mov	r4, r2
    50d6:	4605      	mov	r5, r0
    50d8:	b118      	cbz	r0, 50e2 <__swbuf_r+0x12>
    50da:	6983      	ldr	r3, [r0, #24]
    50dc:	b90b      	cbnz	r3, 50e2 <__swbuf_r+0x12>
    50de:	f7fe fad9 	bl	3694 <__sinit>
    50e2:	4b21      	ldr	r3, [pc, #132]	; (5168 <__swbuf_r+0x98>)
    50e4:	429c      	cmp	r4, r3
    50e6:	d12a      	bne.n	513e <__swbuf_r+0x6e>
    50e8:	686c      	ldr	r4, [r5, #4]
    50ea:	69a3      	ldr	r3, [r4, #24]
    50ec:	60a3      	str	r3, [r4, #8]
    50ee:	89a3      	ldrh	r3, [r4, #12]
    50f0:	071a      	lsls	r2, r3, #28
    50f2:	d52e      	bpl.n	5152 <__swbuf_r+0x82>
    50f4:	6923      	ldr	r3, [r4, #16]
    50f6:	b363      	cbz	r3, 5152 <__swbuf_r+0x82>
    50f8:	6923      	ldr	r3, [r4, #16]
    50fa:	6820      	ldr	r0, [r4, #0]
    50fc:	b2f6      	uxtb	r6, r6
    50fe:	1ac0      	subs	r0, r0, r3
    5100:	6963      	ldr	r3, [r4, #20]
    5102:	4637      	mov	r7, r6
    5104:	4298      	cmp	r0, r3
    5106:	db04      	blt.n	5112 <__swbuf_r+0x42>
    5108:	4621      	mov	r1, r4
    510a:	4628      	mov	r0, r5
    510c:	f7fe fa46 	bl	359c <_fflush_r>
    5110:	bb28      	cbnz	r0, 515e <__swbuf_r+0x8e>
    5112:	68a3      	ldr	r3, [r4, #8]
    5114:	3001      	adds	r0, #1
    5116:	3b01      	subs	r3, #1
    5118:	60a3      	str	r3, [r4, #8]
    511a:	6823      	ldr	r3, [r4, #0]
    511c:	1c5a      	adds	r2, r3, #1
    511e:	6022      	str	r2, [r4, #0]
    5120:	701e      	strb	r6, [r3, #0]
    5122:	6963      	ldr	r3, [r4, #20]
    5124:	4298      	cmp	r0, r3
    5126:	d004      	beq.n	5132 <__swbuf_r+0x62>
    5128:	89a3      	ldrh	r3, [r4, #12]
    512a:	07db      	lsls	r3, r3, #31
    512c:	d519      	bpl.n	5162 <__swbuf_r+0x92>
    512e:	2e0a      	cmp	r6, #10
    5130:	d117      	bne.n	5162 <__swbuf_r+0x92>
    5132:	4621      	mov	r1, r4
    5134:	4628      	mov	r0, r5
    5136:	f7fe fa31 	bl	359c <_fflush_r>
    513a:	b190      	cbz	r0, 5162 <__swbuf_r+0x92>
    513c:	e00f      	b.n	515e <__swbuf_r+0x8e>
    513e:	4b0b      	ldr	r3, [pc, #44]	; (516c <__swbuf_r+0x9c>)
    5140:	429c      	cmp	r4, r3
    5142:	d101      	bne.n	5148 <__swbuf_r+0x78>
    5144:	68ac      	ldr	r4, [r5, #8]
    5146:	e7d0      	b.n	50ea <__swbuf_r+0x1a>
    5148:	4b09      	ldr	r3, [pc, #36]	; (5170 <__swbuf_r+0xa0>)
    514a:	429c      	cmp	r4, r3
    514c:	bf08      	it	eq
    514e:	68ec      	ldreq	r4, [r5, #12]
    5150:	e7cb      	b.n	50ea <__swbuf_r+0x1a>
    5152:	4621      	mov	r1, r4
    5154:	4628      	mov	r0, r5
    5156:	f000 f81f 	bl	5198 <__swsetup_r>
    515a:	2800      	cmp	r0, #0
    515c:	d0cc      	beq.n	50f8 <__swbuf_r+0x28>
    515e:	f04f 37ff 	mov.w	r7, #4294967295	; 0xffffffff
    5162:	4638      	mov	r0, r7
    5164:	bdf8      	pop	{r3, r4, r5, r6, r7, pc}
    5166:	bf00      	nop
    5168:	00007354 	.word	0x00007354
    516c:	00007374 	.word	0x00007374
    5170:	00007334 	.word	0x00007334

00005174 <_write_r>:
    5174:	b538      	push	{r3, r4, r5, lr}
    5176:	4605      	mov	r5, r0
    5178:	4608      	mov	r0, r1
    517a:	4611      	mov	r1, r2
    517c:	2200      	movs	r2, #0
    517e:	4c05      	ldr	r4, [pc, #20]	; (5194 <_write_r+0x20>)
    5180:	6022      	str	r2, [r4, #0]
    5182:	461a      	mov	r2, r3
    5184:	f7fd f846 	bl	2214 <_write>
    5188:	1c43      	adds	r3, r0, #1
    518a:	d102      	bne.n	5192 <_write_r+0x1e>
    518c:	6823      	ldr	r3, [r4, #0]
    518e:	b103      	cbz	r3, 5192 <_write_r+0x1e>
    5190:	602b      	str	r3, [r5, #0]
    5192:	bd38      	pop	{r3, r4, r5, pc}
    5194:	100007c4 	.word	0x100007c4

00005198 <__swsetup_r>:
    5198:	4b32      	ldr	r3, [pc, #200]	; (5264 <__swsetup_r+0xcc>)
    519a:	b570      	push	{r4, r5, r6, lr}
    519c:	681d      	ldr	r5, [r3, #0]
    519e:	4606      	mov	r6, r0
    51a0:	460c      	mov	r4, r1
    51a2:	b125      	cbz	r5, 51ae <__swsetup_r+0x16>
    51a4:	69ab      	ldr	r3, [r5, #24]
    51a6:	b913      	cbnz	r3, 51ae <__swsetup_r+0x16>
    51a8:	4628      	mov	r0, r5
    51aa:	f7fe fa73 	bl	3694 <__sinit>
    51ae:	4b2e      	ldr	r3, [pc, #184]	; (5268 <__swsetup_r+0xd0>)
    51b0:	429c      	cmp	r4, r3
    51b2:	d10f      	bne.n	51d4 <__swsetup_r+0x3c>
    51b4:	686c      	ldr	r4, [r5, #4]
    51b6:	f9b4 300c 	ldrsh.w	r3, [r4, #12]
    51ba:	b29a      	uxth	r2, r3
    51bc:	0715      	lsls	r5, r2, #28
    51be:	d42c      	bmi.n	521a <__swsetup_r+0x82>
    51c0:	06d0      	lsls	r0, r2, #27
    51c2:	d411      	bmi.n	51e8 <__swsetup_r+0x50>
    51c4:	2209      	movs	r2, #9
    51c6:	6032      	str	r2, [r6, #0]
    51c8:	f043 0340 	orr.w	r3, r3, #64	; 0x40
    51cc:	81a3      	strh	r3, [r4, #12]
    51ce:	f04f 30ff 	mov.w	r0, #4294967295	; 0xffffffff
    51d2:	bd70      	pop	{r4, r5, r6, pc}
    51d4:	4b25      	ldr	r3, [pc, #148]	; (526c <__swsetup_r+0xd4>)
    51d6:	429c      	cmp	r4, r3
    51d8:	d101      	bne.n	51de <__swsetup_r+0x46>
    51da:	68ac      	ldr	r4, [r5, #8]
    51dc:	e7eb      	b.n	51b6 <__swsetup_r+0x1e>
    51de:	4b24      	ldr	r3, [pc, #144]	; (5270 <__swsetup_r+0xd8>)
    51e0:	429c      	cmp	r4, r3
    51e2:	bf08      	it	eq
    51e4:	68ec      	ldreq	r4, [r5, #12]
    51e6:	e7e6      	b.n	51b6 <__swsetup_r+0x1e>
    51e8:	0751      	lsls	r1, r2, #29
    51ea:	d512      	bpl.n	5212 <__swsetup_r+0x7a>
    51ec:	6b61      	ldr	r1, [r4, #52]	; 0x34
    51ee:	b141      	cbz	r1, 5202 <__swsetup_r+0x6a>
    51f0:	f104 0344 	add.w	r3, r4, #68	; 0x44
    51f4:	4299      	cmp	r1, r3
    51f6:	d002      	beq.n	51fe <__swsetup_r+0x66>
    51f8:	4630      	mov	r0, r6
    51fa:	f7fc ffc1 	bl	2180 <__wrap__free_r>
    51fe:	2300      	movs	r3, #0
    5200:	6363      	str	r3, [r4, #52]	; 0x34
    5202:	89a3      	ldrh	r3, [r4, #12]
    5204:	f023 0324 	bic.w	r3, r3, #36	; 0x24
    5208:	81a3      	strh	r3, [r4, #12]
    520a:	2300      	movs	r3, #0
    520c:	6063      	str	r3, [r4, #4]
    520e:	6923      	ldr	r3, [r4, #16]
    5210:	6023      	str	r3, [r4, #0]
    5212:	89a3      	ldrh	r3, [r4, #12]
    5214:	f043 0308 	orr.w	r3, r3, #8
    5218:	81a3      	strh	r3, [r4, #12]
    521a:	6923      	ldr	r3, [r4, #16]
    521c:	b94b      	cbnz	r3, 5232 <__swsetup_r+0x9a>
    521e:	89a3      	ldrh	r3, [r4, #12]
    5220:	f403 7320 	and.w	r3, r3, #640	; 0x280
    5224:	f5b3 7f00 	cmp.w	r3, #512	; 0x200
    5228:	d003      	beq.n	5232 <__swsetup_r+0x9a>
    522a:	4621      	mov	r1, r4
    522c:	4630      	mov	r0, r6
    522e:	f7fe fbdf 	bl	39f0 <__smakebuf_r>
    5232:	89a2      	ldrh	r2, [r4, #12]
    5234:	f012 0301 	ands.w	r3, r2, #1
    5238:	d00c      	beq.n	5254 <__swsetup_r+0xbc>
    523a:	2300      	movs	r3, #0
    523c:	60a3      	str	r3, [r4, #8]
    523e:	6963      	ldr	r3, [r4, #20]
    5240:	425b      	negs	r3, r3
    5242:	61a3      	str	r3, [r4, #24]
    5244:	6923      	ldr	r3, [r4, #16]
    5246:	b953      	cbnz	r3, 525e <__swsetup_r+0xc6>
    5248:	f9b4 300c 	ldrsh.w	r3, [r4, #12]
    524c:	f013 0080 	ands.w	r0, r3, #128	; 0x80
    5250:	d1ba      	bne.n	51c8 <__swsetup_r+0x30>
    5252:	bd70      	pop	{r4, r5, r6, pc}
    5254:	0792      	lsls	r2, r2, #30
    5256:	bf58      	it	pl
    5258:	6963      	ldrpl	r3, [r4, #20]
    525a:	60a3      	str	r3, [r4, #8]
    525c:	e7f2      	b.n	5244 <__swsetup_r+0xac>
    525e:	2000      	movs	r0, #0
    5260:	e7f7      	b.n	5252 <__swsetup_r+0xba>
    5262:	bf00      	nop
    5264:	100000d4 	.word	0x100000d4
    5268:	00007354 	.word	0x00007354
    526c:	00007374 	.word	0x00007374
    5270:	00007334 	.word	0x00007334

00005274 <_close_r>:
    5274:	b538      	push	{r3, r4, r5, lr}
    5276:	2300      	movs	r3, #0
    5278:	4c05      	ldr	r4, [pc, #20]	; (5290 <_close_r+0x1c>)
    527a:	4605      	mov	r5, r0
    527c:	4608      	mov	r0, r1
    527e:	6023      	str	r3, [r4, #0]
    5280:	f7fc ffa8 	bl	21d4 <_close>
    5284:	1c43      	adds	r3, r0, #1
    5286:	d102      	bne.n	528e <_close_r+0x1a>
    5288:	6823      	ldr	r3, [r4, #0]
    528a:	b103      	cbz	r3, 528e <_close_r+0x1a>
    528c:	602b      	str	r3, [r5, #0]
    528e:	bd38      	pop	{r3, r4, r5, pc}
    5290:	100007c4 	.word	0x100007c4

00005294 <quorem>:
    5294:	e92d 4ff7 	stmdb	sp!, {r0, r1, r2, r4, r5, r6, r7, r8, r9, r10, r11, lr}
    5298:	6903      	ldr	r3, [r0, #16]
    529a:	690c      	ldr	r4, [r1, #16]
    529c:	4680      	mov	r8, r0
    529e:	429c      	cmp	r4, r3
    52a0:	f300 8082 	bgt.w	53a8 <quorem+0x114>
    52a4:	3c01      	subs	r4, #1
    52a6:	f101 0714 	add.w	r7, r1, #20
    52aa:	f100 0614 	add.w	r6, r0, #20
    52ae:	f857 5024 	ldr.w	r5, [r7, r4, lsl #2]
    52b2:	f856 0024 	ldr.w	r0, [r6, r4, lsl #2]
    52b6:	3501      	adds	r5, #1
    52b8:	fbb0 f5f5 	udiv	r5, r0, r5
    52bc:	ea4f 0e84 	mov.w	lr, r4, lsl #2
    52c0:	eb06 030e 	add.w	r3, r6, lr
    52c4:	eb07 090e 	add.w	r9, r7, lr
    52c8:	9301      	str	r3, [sp, #4]
    52ca:	b38d      	cbz	r5, 5330 <quorem+0x9c>
    52cc:	f04f 0a00 	mov.w	r10, #0
    52d0:	4638      	mov	r0, r7
    52d2:	46b4      	mov	r12, r6
    52d4:	46d3      	mov	r11, r10
    52d6:	f850 2b04 	ldr.w	r2, [r0], #4
    52da:	b293      	uxth	r3, r2
    52dc:	fb05 a303 	mla	r3, r5, r3, r10
    52e0:	0c12      	lsrs	r2, r2, #16
    52e2:	ea4f 4a13 	mov.w	r10, r3, lsr #16
    52e6:	fb05 a202 	mla	r2, r5, r2, r10
    52ea:	b29b      	uxth	r3, r3
    52ec:	ebab 0303 	sub.w	r3, r11, r3
    52f0:	f8bc b000 	ldrh.w	r11, [r12]
    52f4:	ea4f 4a12 	mov.w	r10, r2, lsr #16
    52f8:	445b      	add	r3, r11
    52fa:	fa1f fb82 	uxth.w	r11, r2
    52fe:	f8dc 2000 	ldr.w	r2, [r12]
    5302:	4581      	cmp	r9, r0
    5304:	ebcb 4212 	rsb	r2, r11, r2, lsr #16
    5308:	eb02 4223 	add.w	r2, r2, r3, asr #16
    530c:	b29b      	uxth	r3, r3
    530e:	ea43 4302 	orr.w	r3, r3, r2, lsl #16
    5312:	ea4f 4b22 	mov.w	r11, r2, asr #16
    5316:	f84c 3b04 	str.w	r3, [r12], #4
    531a:	d2dc      	bcs.n	52d6 <quorem+0x42>
    531c:	f856 300e 	ldr.w	r3, [r6, lr]
    5320:	b933      	cbnz	r3, 5330 <quorem+0x9c>
    5322:	9b01      	ldr	r3, [sp, #4]
    5324:	3b04      	subs	r3, #4
    5326:	429e      	cmp	r6, r3
    5328:	461a      	mov	r2, r3
    532a:	d331      	bcc.n	5390 <quorem+0xfc>
    532c:	f8c8 4010 	str.w	r4, [r8, #16]
    5330:	4640      	mov	r0, r8
    5332:	f001 f8d0 	bl	64d6 <__mcmp>
    5336:	2800      	cmp	r0, #0
    5338:	db26      	blt.n	5388 <quorem+0xf4>
    533a:	4630      	mov	r0, r6
    533c:	f04f 0e00 	mov.w	lr, #0
    5340:	3501      	adds	r5, #1
    5342:	f857 1b04 	ldr.w	r1, [r7], #4
    5346:	f8d0 c000 	ldr.w	r12, [r0]
    534a:	b28b      	uxth	r3, r1
    534c:	ebae 0303 	sub.w	r3, lr, r3
    5350:	fa1f f28c 	uxth.w	r2, r12
    5354:	4413      	add	r3, r2
    5356:	0c0a      	lsrs	r2, r1, #16
    5358:	ebc2 421c 	rsb	r2, r2, r12, lsr #16
    535c:	eb02 4223 	add.w	r2, r2, r3, asr #16
    5360:	b29b      	uxth	r3, r3
    5362:	ea43 4302 	orr.w	r3, r3, r2, lsl #16
    5366:	45b9      	cmp	r9, r7
    5368:	ea4f 4e22 	mov.w	lr, r2, asr #16
    536c:	f840 3b04 	str.w	r3, [r0], #4
    5370:	d2e7      	bcs.n	5342 <quorem+0xae>
    5372:	f856 2024 	ldr.w	r2, [r6, r4, lsl #2]
    5376:	eb06 0384 	add.w	r3, r6, r4, lsl #2
    537a:	b92a      	cbnz	r2, 5388 <quorem+0xf4>
    537c:	3b04      	subs	r3, #4
    537e:	429e      	cmp	r6, r3
    5380:	461a      	mov	r2, r3
    5382:	d30b      	bcc.n	539c <quorem+0x108>
    5384:	f8c8 4010 	str.w	r4, [r8, #16]
    5388:	4628      	mov	r0, r5
    538a:	b003      	add	sp, #12
    538c:	e8bd 8ff0 	ldmia.w	sp!, {r4, r5, r6, r7, r8, r9, r10, r11, pc}
    5390:	6812      	ldr	r2, [r2, #0]
    5392:	3b04      	subs	r3, #4
    5394:	2a00      	cmp	r2, #0
    5396:	d1c9      	bne.n	532c <quorem+0x98>
    5398:	3c01      	subs	r4, #1
    539a:	e7c4      	b.n	5326 <quorem+0x92>
    539c:	6812      	ldr	r2, [r2, #0]
    539e:	3b04      	subs	r3, #4
    53a0:	2a00      	cmp	r2, #0
    53a2:	d1ef      	bne.n	5384 <quorem+0xf0>
    53a4:	3c01      	subs	r4, #1
    53a6:	e7ea      	b.n	537e <quorem+0xea>
    53a8:	2000      	movs	r0, #0
    53aa:	e7ee      	b.n	538a <quorem+0xf6>
    53ac:	0000      	movs	r0, r0
	...

000053b0 <_dtoa_r>:
    53b0:	e92d 4ff0 	stmdb	sp!, {r4, r5, r6, r7, r8, r9, r10, r11, lr}
    53b4:	6a46      	ldr	r6, [r0, #36]	; 0x24
    53b6:	b095      	sub	sp, #84	; 0x54
    53b8:	4604      	mov	r4, r0
    53ba:	9d21      	ldr	r5, [sp, #132]	; 0x84
    53bc:	e9cd 2302 	strd	r2, r3, [sp, #8]
    53c0:	b93e      	cbnz	r6, 53d2 <_dtoa_r+0x22>
    53c2:	2010      	movs	r0, #16
    53c4:	f7fe fb54 	bl	3a70 <malloc>
    53c8:	6260      	str	r0, [r4, #36]	; 0x24
    53ca:	6046      	str	r6, [r0, #4]
    53cc:	6086      	str	r6, [r0, #8]
    53ce:	6006      	str	r6, [r0, #0]
    53d0:	60c6      	str	r6, [r0, #12]
    53d2:	6a63      	ldr	r3, [r4, #36]	; 0x24
    53d4:	6819      	ldr	r1, [r3, #0]
    53d6:	b151      	cbz	r1, 53ee <_dtoa_r+0x3e>
    53d8:	685a      	ldr	r2, [r3, #4]
    53da:	2301      	movs	r3, #1
    53dc:	4093      	lsls	r3, r2
    53de:	604a      	str	r2, [r1, #4]
    53e0:	608b      	str	r3, [r1, #8]
    53e2:	4620      	mov	r0, r4
    53e4:	f000 fea2 	bl	612c <_Bfree>
    53e8:	2200      	movs	r2, #0
    53ea:	6a63      	ldr	r3, [r4, #36]	; 0x24
    53ec:	601a      	str	r2, [r3, #0]
    53ee:	9b03      	ldr	r3, [sp, #12]
    53f0:	2b00      	cmp	r3, #0
    53f2:	bfb7      	itett	lt
    53f4:	2301      	movlt	r3, #1
    53f6:	2300      	movge	r3, #0
    53f8:	602b      	strlt	r3, [r5, #0]
    53fa:	9b03      	ldrlt	r3, [sp, #12]
    53fc:	bfae      	itee	ge
    53fe:	602b      	strge	r3, [r5, #0]
    5400:	f023 4300 	biclt.w	r3, r3, #2147483648	; 0x80000000
    5404:	9303      	strlt	r3, [sp, #12]
    5406:	f8dd 900c 	ldr.w	r9, [sp, #12]
    540a:	4bab      	ldr	r3, [pc, #684]	; (56b8 <_dtoa_r+0x308>)
    540c:	ea33 0309 	bics.w	r3, r3, r9
    5410:	d11b      	bne.n	544a <_dtoa_r+0x9a>
    5412:	f242 730f 	movw	r3, #9999	; 0x270f
    5416:	9a20      	ldr	r2, [sp, #128]	; 0x80
    5418:	6013      	str	r3, [r2, #0]
    541a:	9b02      	ldr	r3, [sp, #8]
    541c:	b923      	cbnz	r3, 5428 <_dtoa_r+0x78>
    541e:	f3c9 0013 	ubfx	r0, r9, #0, #20
    5422:	2800      	cmp	r0, #0
    5424:	f000 8583 	beq.w	5f2e <_dtoa_r+0xb7e>
    5428:	9b22      	ldr	r3, [sp, #136]	; 0x88
    542a:	b953      	cbnz	r3, 5442 <_dtoa_r+0x92>
    542c:	4ba3      	ldr	r3, [pc, #652]	; (56bc <_dtoa_r+0x30c>)
    542e:	e021      	b.n	5474 <_dtoa_r+0xc4>
    5430:	4ba3      	ldr	r3, [pc, #652]	; (56c0 <_dtoa_r+0x310>)
    5432:	9306      	str	r3, [sp, #24]
    5434:	3308      	adds	r3, #8
    5436:	9a22      	ldr	r2, [sp, #136]	; 0x88
    5438:	6013      	str	r3, [r2, #0]
    543a:	9806      	ldr	r0, [sp, #24]
    543c:	b015      	add	sp, #84	; 0x54
    543e:	e8bd 8ff0 	ldmia.w	sp!, {r4, r5, r6, r7, r8, r9, r10, r11, pc}
    5442:	4b9e      	ldr	r3, [pc, #632]	; (56bc <_dtoa_r+0x30c>)
    5444:	9306      	str	r3, [sp, #24]
    5446:	3303      	adds	r3, #3
    5448:	e7f5      	b.n	5436 <_dtoa_r+0x86>
    544a:	e9dd 6702 	ldrd	r6, r7, [sp, #8]
    544e:	2200      	movs	r2, #0
    5450:	2300      	movs	r3, #0
    5452:	4630      	mov	r0, r6
    5454:	4639      	mov	r1, r7
    5456:	f001 fc83 	bl	6d60 <__aeabi_dcmpeq>
    545a:	4680      	mov	r8, r0
    545c:	b160      	cbz	r0, 5478 <_dtoa_r+0xc8>
    545e:	2301      	movs	r3, #1
    5460:	9a20      	ldr	r2, [sp, #128]	; 0x80
    5462:	6013      	str	r3, [r2, #0]
    5464:	9b22      	ldr	r3, [sp, #136]	; 0x88
    5466:	2b00      	cmp	r3, #0
    5468:	f000 855e 	beq.w	5f28 <_dtoa_r+0xb78>
    546c:	4b95      	ldr	r3, [pc, #596]	; (56c4 <_dtoa_r+0x314>)
    546e:	9a22      	ldr	r2, [sp, #136]	; 0x88
    5470:	6013      	str	r3, [r2, #0]
    5472:	3b01      	subs	r3, #1
    5474:	9306      	str	r3, [sp, #24]
    5476:	e7e0      	b.n	543a <_dtoa_r+0x8a>
    5478:	ab12      	add	r3, sp, #72	; 0x48
    547a:	9301      	str	r3, [sp, #4]
    547c:	ab13      	add	r3, sp, #76	; 0x4c
    547e:	9300      	str	r3, [sp, #0]
    5480:	4632      	mov	r2, r6
    5482:	463b      	mov	r3, r7
    5484:	4620      	mov	r0, r4
    5486:	f001 f89f 	bl	65c8 <__d2b>
    548a:	f3c9 550a 	ubfx	r5, r9, #20, #11
    548e:	4682      	mov	r10, r0
    5490:	2d00      	cmp	r5, #0
    5492:	d07d      	beq.n	5590 <_dtoa_r+0x1e0>
    5494:	4630      	mov	r0, r6
    5496:	f3c7 0313 	ubfx	r3, r7, #0, #20
    549a:	f043 517f 	orr.w	r1, r3, #1069547520	; 0x3fc00000
    549e:	f441 1140 	orr.w	r1, r1, #3145728	; 0x300000
    54a2:	f2a5 35ff 	subw	r5, r5, #1023	; 0x3ff
    54a6:	f8cd 8040 	str.w	r8, [sp, #64]	; 0x40
    54aa:	2200      	movs	r2, #0
    54ac:	4b86      	ldr	r3, [pc, #536]	; (56c8 <_dtoa_r+0x318>)
    54ae:	f7fd f8cb 	bl	2648 <__aeabi_dsub>
    54b2:	a37b      	add	r3, pc, #492	; (adr r3, 56a0 <_dtoa_r+0x2f0>)
    54b4:	e9d3 2300 	ldrd	r2, r3, [r3]
    54b8:	f7fd fa7a 	bl	29b0 <__aeabi_dmul>
    54bc:	a37a      	add	r3, pc, #488	; (adr r3, 56a8 <_dtoa_r+0x2f8>)
    54be:	e9d3 2300 	ldrd	r2, r3, [r3]
    54c2:	f7fd f8c3 	bl	264c <__adddf3>
    54c6:	4606      	mov	r6, r0
    54c8:	4628      	mov	r0, r5
    54ca:	460f      	mov	r7, r1
    54cc:	f7fd fa0a 	bl	28e4 <__aeabi_i2d>
    54d0:	a377      	add	r3, pc, #476	; (adr r3, 56b0 <_dtoa_r+0x300>)
    54d2:	e9d3 2300 	ldrd	r2, r3, [r3]
    54d6:	f7fd fa6b 	bl	29b0 <__aeabi_dmul>
    54da:	4602      	mov	r2, r0
    54dc:	460b      	mov	r3, r1
    54de:	4630      	mov	r0, r6
    54e0:	4639      	mov	r1, r7
    54e2:	f7fd f8b3 	bl	264c <__adddf3>
    54e6:	4606      	mov	r6, r0
    54e8:	460f      	mov	r7, r1
    54ea:	f7fd fc73 	bl	2dd4 <__aeabi_d2iz>
    54ee:	2200      	movs	r2, #0
    54f0:	4683      	mov	r11, r0
    54f2:	2300      	movs	r3, #0
    54f4:	4630      	mov	r0, r6
    54f6:	4639      	mov	r1, r7
    54f8:	f001 fc3c 	bl	6d74 <__aeabi_dcmplt>
    54fc:	b158      	cbz	r0, 5516 <_dtoa_r+0x166>
    54fe:	4658      	mov	r0, r11
    5500:	f7fd f9f0 	bl	28e4 <__aeabi_i2d>
    5504:	4602      	mov	r2, r0
    5506:	460b      	mov	r3, r1
    5508:	4630      	mov	r0, r6
    550a:	4639      	mov	r1, r7
    550c:	f001 fc28 	bl	6d60 <__aeabi_dcmpeq>
    5510:	b908      	cbnz	r0, 5516 <_dtoa_r+0x166>
    5512:	f10b 3bff 	add.w	r11, r11, #4294967295	; 0xffffffff
    5516:	f1bb 0f16 	cmp.w	r11, #22
    551a:	d858      	bhi.n	55ce <_dtoa_r+0x21e>
    551c:	e9dd 2302 	ldrd	r2, r3, [sp, #8]
    5520:	496a      	ldr	r1, [pc, #424]	; (56cc <_dtoa_r+0x31c>)
    5522:	eb01 01cb 	add.w	r1, r1, r11, lsl #3
    5526:	e9d1 0100 	ldrd	r0, r1, [r1]
    552a:	f001 fc41 	bl	6db0 <__aeabi_dcmpgt>
    552e:	2800      	cmp	r0, #0
    5530:	d04f      	beq.n	55d2 <_dtoa_r+0x222>
    5532:	2300      	movs	r3, #0
    5534:	f10b 3bff 	add.w	r11, r11, #4294967295	; 0xffffffff
    5538:	930d      	str	r3, [sp, #52]	; 0x34
    553a:	9b12      	ldr	r3, [sp, #72]	; 0x48
    553c:	1b5d      	subs	r5, r3, r5
    553e:	1e6b      	subs	r3, r5, #1
    5540:	9307      	str	r3, [sp, #28]
    5542:	bf43      	ittte	mi
    5544:	2300      	movmi	r3, #0
    5546:	f1c5 0801 	rsbmi	r8, r5, #1
    554a:	9307      	strmi	r3, [sp, #28]
    554c:	f04f 0800 	movpl.w	r8, #0
    5550:	f1bb 0f00 	cmp.w	r11, #0
    5554:	db3f      	blt.n	55d6 <_dtoa_r+0x226>
    5556:	9b07      	ldr	r3, [sp, #28]
    5558:	f8cd b030 	str.w	r11, [sp, #48]	; 0x30
    555c:	445b      	add	r3, r11
    555e:	9307      	str	r3, [sp, #28]
    5560:	2300      	movs	r3, #0
    5562:	9308      	str	r3, [sp, #32]
    5564:	9b1e      	ldr	r3, [sp, #120]	; 0x78
    5566:	2b09      	cmp	r3, #9
    5568:	f200 80b4 	bhi.w	56d4 <_dtoa_r+0x324>
    556c:	2b05      	cmp	r3, #5
    556e:	bfc4      	itt	gt
    5570:	3b04      	subgt	r3, #4
    5572:	931e      	strgt	r3, [sp, #120]	; 0x78
    5574:	9b1e      	ldr	r3, [sp, #120]	; 0x78
    5576:	bfc8      	it	gt
    5578:	2600      	movgt	r6, #0
    557a:	f1a3 0302 	sub.w	r3, r3, #2
    557e:	bfd8      	it	le
    5580:	2601      	movle	r6, #1
    5582:	2b03      	cmp	r3, #3
    5584:	f200 80b2 	bhi.w	56ec <_dtoa_r+0x33c>
    5588:	e8df f003 	tbb	[pc, r3]
    558c:	782d8684 	.word	0x782d8684
    5590:	9b13      	ldr	r3, [sp, #76]	; 0x4c
    5592:	9d12      	ldr	r5, [sp, #72]	; 0x48
    5594:	441d      	add	r5, r3
    5596:	f205 4332 	addw	r3, r5, #1074	; 0x432
    559a:	2b20      	cmp	r3, #32
    559c:	dd11      	ble.n	55c2 <_dtoa_r+0x212>
    559e:	9a02      	ldr	r2, [sp, #8]
    55a0:	f205 4012 	addw	r0, r5, #1042	; 0x412
    55a4:	f1c3 0340 	rsb	r3, r3, #64	; 0x40
    55a8:	fa22 f000 	lsr.w	r0, r2, r0
    55ac:	fa09 f303 	lsl.w	r3, r9, r3
    55b0:	4318      	orrs	r0, r3
    55b2:	f7fd f987 	bl	28c4 <__aeabi_ui2d>
    55b6:	2301      	movs	r3, #1
    55b8:	f1a1 71f8 	sub.w	r1, r1, #32505856	; 0x1f00000
    55bc:	3d01      	subs	r5, #1
    55be:	9310      	str	r3, [sp, #64]	; 0x40
    55c0:	e773      	b.n	54aa <_dtoa_r+0xfa>
    55c2:	f1c3 0020 	rsb	r0, r3, #32
    55c6:	9b02      	ldr	r3, [sp, #8]
    55c8:	fa03 f000 	lsl.w	r0, r3, r0
    55cc:	e7f1      	b.n	55b2 <_dtoa_r+0x202>
    55ce:	2301      	movs	r3, #1
    55d0:	e7b2      	b.n	5538 <_dtoa_r+0x188>
    55d2:	900d      	str	r0, [sp, #52]	; 0x34
    55d4:	e7b1      	b.n	553a <_dtoa_r+0x18a>
    55d6:	f1cb 0300 	rsb	r3, r11, #0
    55da:	9308      	str	r3, [sp, #32]
    55dc:	2300      	movs	r3, #0
    55de:	eba8 080b 	sub.w	r8, r8, r11
    55e2:	930c      	str	r3, [sp, #48]	; 0x30
    55e4:	e7be      	b.n	5564 <_dtoa_r+0x1b4>
    55e6:	2301      	movs	r3, #1
    55e8:	9309      	str	r3, [sp, #36]	; 0x24
    55ea:	9b1f      	ldr	r3, [sp, #124]	; 0x7c
    55ec:	2b00      	cmp	r3, #0
    55ee:	f340 8080 	ble.w	56f2 <_dtoa_r+0x342>
    55f2:	4699      	mov	r9, r3
    55f4:	9304      	str	r3, [sp, #16]
    55f6:	2200      	movs	r2, #0
    55f8:	2104      	movs	r1, #4
    55fa:	6a65      	ldr	r5, [r4, #36]	; 0x24
    55fc:	606a      	str	r2, [r5, #4]
    55fe:	f101 0214 	add.w	r2, r1, #20
    5602:	429a      	cmp	r2, r3
    5604:	d97a      	bls.n	56fc <_dtoa_r+0x34c>
    5606:	6869      	ldr	r1, [r5, #4]
    5608:	4620      	mov	r0, r4
    560a:	f000 fd5b 	bl	60c4 <_Balloc>
    560e:	6a63      	ldr	r3, [r4, #36]	; 0x24
    5610:	6028      	str	r0, [r5, #0]
    5612:	681b      	ldr	r3, [r3, #0]
    5614:	f1b9 0f0e 	cmp.w	r9, #14
    5618:	9306      	str	r3, [sp, #24]
    561a:	f200 80f0 	bhi.w	57fe <_dtoa_r+0x44e>
    561e:	2e00      	cmp	r6, #0
    5620:	f000 80ed 	beq.w	57fe <_dtoa_r+0x44e>
    5624:	e9dd 2302 	ldrd	r2, r3, [sp, #8]
    5628:	f1bb 0f00 	cmp.w	r11, #0
    562c:	e9cd 230e 	strd	r2, r3, [sp, #56]	; 0x38
    5630:	dd79      	ble.n	5726 <_dtoa_r+0x376>
    5632:	4a26      	ldr	r2, [pc, #152]	; (56cc <_dtoa_r+0x31c>)
    5634:	f00b 030f 	and.w	r3, r11, #15
    5638:	ea4f 162b 	mov.w	r6, r11, asr #4
    563c:	eb02 03c3 	add.w	r3, r2, r3, lsl #3
    5640:	06f0      	lsls	r0, r6, #27
    5642:	e9d3 2300 	ldrd	r2, r3, [r3]
    5646:	e9cd 230a 	strd	r2, r3, [sp, #40]	; 0x28
    564a:	d55c      	bpl.n	5706 <_dtoa_r+0x356>
    564c:	e9dd 010e 	ldrd	r0, r1, [sp, #56]	; 0x38
    5650:	4b1f      	ldr	r3, [pc, #124]	; (56d0 <_dtoa_r+0x320>)
    5652:	2503      	movs	r5, #3
    5654:	e9d3 2308 	ldrd	r2, r3, [r3, #32]
    5658:	f7fd fad4 	bl	2c04 <__aeabi_ddiv>
    565c:	e9cd 0102 	strd	r0, r1, [sp, #8]
    5660:	f006 060f 	and.w	r6, r6, #15
    5664:	4f1a      	ldr	r7, [pc, #104]	; (56d0 <_dtoa_r+0x320>)
    5666:	2e00      	cmp	r6, #0
    5668:	d14f      	bne.n	570a <_dtoa_r+0x35a>
    566a:	e9dd 230a 	ldrd	r2, r3, [sp, #40]	; 0x28
    566e:	e9dd 0102 	ldrd	r0, r1, [sp, #8]
    5672:	f7fd fac7 	bl	2c04 <__aeabi_ddiv>
    5676:	e9cd 0102 	strd	r0, r1, [sp, #8]
    567a:	e06e      	b.n	575a <_dtoa_r+0x3aa>
    567c:	2301      	movs	r3, #1
    567e:	9309      	str	r3, [sp, #36]	; 0x24
    5680:	9b1f      	ldr	r3, [sp, #124]	; 0x7c
    5682:	445b      	add	r3, r11
    5684:	f103 0901 	add.w	r9, r3, #1
    5688:	9304      	str	r3, [sp, #16]
    568a:	464b      	mov	r3, r9
    568c:	2b01      	cmp	r3, #1
    568e:	bfb8      	it	lt
    5690:	2301      	movlt	r3, #1
    5692:	e7b0      	b.n	55f6 <_dtoa_r+0x246>
    5694:	2300      	movs	r3, #0
    5696:	e7a7      	b.n	55e8 <_dtoa_r+0x238>
    5698:	2300      	movs	r3, #0
    569a:	e7f0      	b.n	567e <_dtoa_r+0x2ce>
    569c:	f3af 8000 	nop.w
    56a0:	636f4361 	.word	0x636f4361
    56a4:	3fd287a7 	.word	0x3fd287a7
    56a8:	8b60c8b3 	.word	0x8b60c8b3
    56ac:	3fc68a28 	.word	0x3fc68a28
    56b0:	509f79fb 	.word	0x509f79fb
    56b4:	3fd34413 	.word	0x3fd34413
    56b8:	7ff00000 	.word	0x7ff00000
    56bc:	0000740c 	.word	0x0000740c
    56c0:	00007403 	.word	0x00007403
    56c4:	000073ff 	.word	0x000073ff
    56c8:	3ff80000 	.word	0x3ff80000
    56cc:	00007448 	.word	0x00007448
    56d0:	00007420 	.word	0x00007420
    56d4:	2601      	movs	r6, #1
    56d6:	2300      	movs	r3, #0
    56d8:	9609      	str	r6, [sp, #36]	; 0x24
    56da:	931e      	str	r3, [sp, #120]	; 0x78
    56dc:	f04f 33ff 	mov.w	r3, #4294967295	; 0xffffffff
    56e0:	2200      	movs	r2, #0
    56e2:	9304      	str	r3, [sp, #16]
    56e4:	4699      	mov	r9, r3
    56e6:	2312      	movs	r3, #18
    56e8:	921f      	str	r2, [sp, #124]	; 0x7c
    56ea:	e784      	b.n	55f6 <_dtoa_r+0x246>
    56ec:	2301      	movs	r3, #1
    56ee:	9309      	str	r3, [sp, #36]	; 0x24
    56f0:	e7f4      	b.n	56dc <_dtoa_r+0x32c>
    56f2:	2301      	movs	r3, #1
    56f4:	9304      	str	r3, [sp, #16]
    56f6:	4699      	mov	r9, r3
    56f8:	461a      	mov	r2, r3
    56fa:	e7f5      	b.n	56e8 <_dtoa_r+0x338>
    56fc:	686a      	ldr	r2, [r5, #4]
    56fe:	0049      	lsls	r1, r1, #1
    5700:	3201      	adds	r2, #1
    5702:	606a      	str	r2, [r5, #4]
    5704:	e77b      	b.n	55fe <_dtoa_r+0x24e>
    5706:	2502      	movs	r5, #2
    5708:	e7ac      	b.n	5664 <_dtoa_r+0x2b4>
    570a:	07f1      	lsls	r1, r6, #31
    570c:	d508      	bpl.n	5720 <_dtoa_r+0x370>
    570e:	e9dd 010a 	ldrd	r0, r1, [sp, #40]	; 0x28
    5712:	e9d7 2300 	ldrd	r2, r3, [r7]
    5716:	f7fd f94b 	bl	29b0 <__aeabi_dmul>
    571a:	e9cd 010a 	strd	r0, r1, [sp, #40]	; 0x28
    571e:	3501      	adds	r5, #1
    5720:	1076      	asrs	r6, r6, #1
    5722:	3708      	adds	r7, #8
    5724:	e79f      	b.n	5666 <_dtoa_r+0x2b6>
    5726:	f000 80a5 	beq.w	5874 <_dtoa_r+0x4c4>
    572a:	e9dd 010e 	ldrd	r0, r1, [sp, #56]	; 0x38
    572e:	f1cb 0600 	rsb	r6, r11, #0
    5732:	4ba2      	ldr	r3, [pc, #648]	; (59bc <_dtoa_r+0x60c>)
    5734:	f006 020f 	and.w	r2, r6, #15
    5738:	eb03 03c2 	add.w	r3, r3, r2, lsl #3
    573c:	e9d3 2300 	ldrd	r2, r3, [r3]
    5740:	f7fd f936 	bl	29b0 <__aeabi_dmul>
    5744:	2502      	movs	r5, #2
    5746:	2300      	movs	r3, #0
    5748:	e9cd 0102 	strd	r0, r1, [sp, #8]
    574c:	4f9c      	ldr	r7, [pc, #624]	; (59c0 <_dtoa_r+0x610>)
    574e:	1136      	asrs	r6, r6, #4
    5750:	2e00      	cmp	r6, #0
    5752:	f040 8084 	bne.w	585e <_dtoa_r+0x4ae>
    5756:	2b00      	cmp	r3, #0
    5758:	d18d      	bne.n	5676 <_dtoa_r+0x2c6>
    575a:	9b0d      	ldr	r3, [sp, #52]	; 0x34
    575c:	2b00      	cmp	r3, #0
    575e:	f000 808b 	beq.w	5878 <_dtoa_r+0x4c8>
    5762:	e9dd 2302 	ldrd	r2, r3, [sp, #8]
    5766:	e9cd 230a 	strd	r2, r3, [sp, #40]	; 0x28
    576a:	e9dd 010a 	ldrd	r0, r1, [sp, #40]	; 0x28
    576e:	2200      	movs	r2, #0
    5770:	4b94      	ldr	r3, [pc, #592]	; (59c4 <_dtoa_r+0x614>)
    5772:	f001 faff 	bl	6d74 <__aeabi_dcmplt>
    5776:	2800      	cmp	r0, #0
    5778:	d07e      	beq.n	5878 <_dtoa_r+0x4c8>
    577a:	f1b9 0f00 	cmp.w	r9, #0
    577e:	d07b      	beq.n	5878 <_dtoa_r+0x4c8>
    5780:	9b04      	ldr	r3, [sp, #16]
    5782:	2b00      	cmp	r3, #0
    5784:	dd37      	ble.n	57f6 <_dtoa_r+0x446>
    5786:	e9dd 010a 	ldrd	r0, r1, [sp, #40]	; 0x28
    578a:	2200      	movs	r2, #0
    578c:	4b8e      	ldr	r3, [pc, #568]	; (59c8 <_dtoa_r+0x618>)
    578e:	f7fd f90f 	bl	29b0 <__aeabi_dmul>
    5792:	e9cd 0102 	strd	r0, r1, [sp, #8]
    5796:	9e04      	ldr	r6, [sp, #16]
    5798:	f10b 37ff 	add.w	r7, r11, #4294967295	; 0xffffffff
    579c:	3501      	adds	r5, #1
    579e:	4628      	mov	r0, r5
    57a0:	f7fd f8a0 	bl	28e4 <__aeabi_i2d>
    57a4:	e9dd 2302 	ldrd	r2, r3, [sp, #8]
    57a8:	f7fd f902 	bl	29b0 <__aeabi_dmul>
    57ac:	4b87      	ldr	r3, [pc, #540]	; (59cc <_dtoa_r+0x61c>)
    57ae:	2200      	movs	r2, #0
    57b0:	f7fc ff4c 	bl	264c <__adddf3>
    57b4:	e9cd 010a 	strd	r0, r1, [sp, #40]	; 0x28
    57b8:	9b0b      	ldr	r3, [sp, #44]	; 0x2c
    57ba:	f1a3 7550 	sub.w	r5, r3, #54525952	; 0x3400000
    57be:	950b      	str	r5, [sp, #44]	; 0x2c
    57c0:	2e00      	cmp	r6, #0
    57c2:	d15c      	bne.n	587e <_dtoa_r+0x4ce>
    57c4:	e9dd 0102 	ldrd	r0, r1, [sp, #8]
    57c8:	2200      	movs	r2, #0
    57ca:	4b81      	ldr	r3, [pc, #516]	; (59d0 <_dtoa_r+0x620>)
    57cc:	f7fc ff3c 	bl	2648 <__aeabi_dsub>
    57d0:	9a0a      	ldr	r2, [sp, #40]	; 0x28
    57d2:	462b      	mov	r3, r5
    57d4:	e9cd 0102 	strd	r0, r1, [sp, #8]
    57d8:	f001 faea 	bl	6db0 <__aeabi_dcmpgt>
    57dc:	2800      	cmp	r0, #0
    57de:	f040 82f7 	bne.w	5dd0 <_dtoa_r+0xa20>
    57e2:	e9dd 0102 	ldrd	r0, r1, [sp, #8]
    57e6:	9a0a      	ldr	r2, [sp, #40]	; 0x28
    57e8:	f105 4300 	add.w	r3, r5, #2147483648	; 0x80000000
    57ec:	f001 fac2 	bl	6d74 <__aeabi_dcmplt>
    57f0:	2800      	cmp	r0, #0
    57f2:	f040 82eb 	bne.w	5dcc <_dtoa_r+0xa1c>
    57f6:	e9dd 230e 	ldrd	r2, r3, [sp, #56]	; 0x38
    57fa:	e9cd 2302 	strd	r2, r3, [sp, #8]
    57fe:	9b13      	ldr	r3, [sp, #76]	; 0x4c
    5800:	2b00      	cmp	r3, #0
    5802:	f2c0 8150 	blt.w	5aa6 <_dtoa_r+0x6f6>
    5806:	f1bb 0f0e 	cmp.w	r11, #14
    580a:	f300 814c 	bgt.w	5aa6 <_dtoa_r+0x6f6>
    580e:	4b6b      	ldr	r3, [pc, #428]	; (59bc <_dtoa_r+0x60c>)
    5810:	eb03 03cb 	add.w	r3, r3, r11, lsl #3
    5814:	e9d3 2300 	ldrd	r2, r3, [r3]
    5818:	e9cd 2304 	strd	r2, r3, [sp, #16]
    581c:	9b1f      	ldr	r3, [sp, #124]	; 0x7c
    581e:	2b00      	cmp	r3, #0
    5820:	f280 80da 	bge.w	59d8 <_dtoa_r+0x628>
    5824:	f1b9 0f00 	cmp.w	r9, #0
    5828:	f300 80d6 	bgt.w	59d8 <_dtoa_r+0x628>
    582c:	f040 82cd 	bne.w	5dca <_dtoa_r+0xa1a>
    5830:	e9dd 0104 	ldrd	r0, r1, [sp, #16]
    5834:	2200      	movs	r2, #0
    5836:	4b66      	ldr	r3, [pc, #408]	; (59d0 <_dtoa_r+0x620>)
    5838:	f7fd f8ba 	bl	29b0 <__aeabi_dmul>
    583c:	e9dd 2302 	ldrd	r2, r3, [sp, #8]
    5840:	f001 faac 	bl	6d9c <__aeabi_dcmpge>
    5844:	464e      	mov	r6, r9
    5846:	464f      	mov	r7, r9
    5848:	2800      	cmp	r0, #0
    584a:	f040 82a4 	bne.w	5d96 <_dtoa_r+0x9e6>
    584e:	9b06      	ldr	r3, [sp, #24]
    5850:	9a06      	ldr	r2, [sp, #24]
    5852:	1c5d      	adds	r5, r3, #1
    5854:	2331      	movs	r3, #49	; 0x31
    5856:	f10b 0b01 	add.w	r11, r11, #1
    585a:	7013      	strb	r3, [r2, #0]
    585c:	e29f      	b.n	5d9e <_dtoa_r+0x9ee>
    585e:	07f2      	lsls	r2, r6, #31
    5860:	d505      	bpl.n	586e <_dtoa_r+0x4be>
    5862:	e9d7 2300 	ldrd	r2, r3, [r7]
    5866:	f7fd f8a3 	bl	29b0 <__aeabi_dmul>
    586a:	2301      	movs	r3, #1
    586c:	3501      	adds	r5, #1
    586e:	1076      	asrs	r6, r6, #1
    5870:	3708      	adds	r7, #8
    5872:	e76d      	b.n	5750 <_dtoa_r+0x3a0>
    5874:	2502      	movs	r5, #2
    5876:	e770      	b.n	575a <_dtoa_r+0x3aa>
    5878:	465f      	mov	r7, r11
    587a:	464e      	mov	r6, r9
    587c:	e78f      	b.n	579e <_dtoa_r+0x3ee>
    587e:	9a06      	ldr	r2, [sp, #24]
    5880:	4b4e      	ldr	r3, [pc, #312]	; (59bc <_dtoa_r+0x60c>)
    5882:	4432      	add	r2, r6
    5884:	9211      	str	r2, [sp, #68]	; 0x44
    5886:	9a09      	ldr	r2, [sp, #36]	; 0x24
    5888:	1e71      	subs	r1, r6, #1
    588a:	2a00      	cmp	r2, #0
    588c:	d048      	beq.n	5920 <_dtoa_r+0x570>
    588e:	eb03 03c1 	add.w	r3, r3, r1, lsl #3
    5892:	e9d3 2300 	ldrd	r2, r3, [r3]
    5896:	2000      	movs	r0, #0
    5898:	494e      	ldr	r1, [pc, #312]	; (59d4 <_dtoa_r+0x624>)
    589a:	f7fd f9b3 	bl	2c04 <__aeabi_ddiv>
    589e:	e9dd 230a 	ldrd	r2, r3, [sp, #40]	; 0x28
    58a2:	f7fc fed1 	bl	2648 <__aeabi_dsub>
    58a6:	e9cd 010a 	strd	r0, r1, [sp, #40]	; 0x28
    58aa:	9d06      	ldr	r5, [sp, #24]
    58ac:	e9dd 0102 	ldrd	r0, r1, [sp, #8]
    58b0:	f7fd fa90 	bl	2dd4 <__aeabi_d2iz>
    58b4:	4606      	mov	r6, r0
    58b6:	f7fd f815 	bl	28e4 <__aeabi_i2d>
    58ba:	4602      	mov	r2, r0
    58bc:	460b      	mov	r3, r1
    58be:	e9dd 0102 	ldrd	r0, r1, [sp, #8]
    58c2:	f7fc fec1 	bl	2648 <__aeabi_dsub>
    58c6:	e9dd 230a 	ldrd	r2, r3, [sp, #40]	; 0x28
    58ca:	3630      	adds	r6, #48	; 0x30
    58cc:	f805 6b01 	strb.w	r6, [r5], #1
    58d0:	e9cd 0102 	strd	r0, r1, [sp, #8]
    58d4:	f001 fa4e 	bl	6d74 <__aeabi_dcmplt>
    58d8:	2800      	cmp	r0, #0
    58da:	d164      	bne.n	59a6 <_dtoa_r+0x5f6>
    58dc:	e9dd 2302 	ldrd	r2, r3, [sp, #8]
    58e0:	2000      	movs	r0, #0
    58e2:	4938      	ldr	r1, [pc, #224]	; (59c4 <_dtoa_r+0x614>)
    58e4:	f7fc feb0 	bl	2648 <__aeabi_dsub>
    58e8:	e9dd 230a 	ldrd	r2, r3, [sp, #40]	; 0x28
    58ec:	f001 fa42 	bl	6d74 <__aeabi_dcmplt>
    58f0:	2800      	cmp	r0, #0
    58f2:	f040 80b9 	bne.w	5a68 <_dtoa_r+0x6b8>
    58f6:	9b11      	ldr	r3, [sp, #68]	; 0x44
    58f8:	429d      	cmp	r5, r3
    58fa:	f43f af7c 	beq.w	57f6 <_dtoa_r+0x446>
    58fe:	e9dd 010a 	ldrd	r0, r1, [sp, #40]	; 0x28
    5902:	2200      	movs	r2, #0
    5904:	4b30      	ldr	r3, [pc, #192]	; (59c8 <_dtoa_r+0x618>)
    5906:	f7fd f853 	bl	29b0 <__aeabi_dmul>
    590a:	2200      	movs	r2, #0
    590c:	e9cd 010a 	strd	r0, r1, [sp, #40]	; 0x28
    5910:	e9dd 0102 	ldrd	r0, r1, [sp, #8]
    5914:	4b2c      	ldr	r3, [pc, #176]	; (59c8 <_dtoa_r+0x618>)
    5916:	f7fd f84b 	bl	29b0 <__aeabi_dmul>
    591a:	e9cd 0102 	strd	r0, r1, [sp, #8]
    591e:	e7c5      	b.n	58ac <_dtoa_r+0x4fc>
    5920:	eb03 01c1 	add.w	r1, r3, r1, lsl #3
    5924:	e9d1 0100 	ldrd	r0, r1, [r1]
    5928:	e9dd 230a 	ldrd	r2, r3, [sp, #40]	; 0x28
    592c:	f7fd f840 	bl	29b0 <__aeabi_dmul>
    5930:	e9cd 010a 	strd	r0, r1, [sp, #40]	; 0x28
    5934:	9d06      	ldr	r5, [sp, #24]
    5936:	e9dd 0102 	ldrd	r0, r1, [sp, #8]
    593a:	f7fd fa4b 	bl	2dd4 <__aeabi_d2iz>
    593e:	4606      	mov	r6, r0
    5940:	f7fc ffd0 	bl	28e4 <__aeabi_i2d>
    5944:	4602      	mov	r2, r0
    5946:	460b      	mov	r3, r1
    5948:	e9dd 0102 	ldrd	r0, r1, [sp, #8]
    594c:	f7fc fe7c 	bl	2648 <__aeabi_dsub>
    5950:	3630      	adds	r6, #48	; 0x30
    5952:	9b11      	ldr	r3, [sp, #68]	; 0x44
    5954:	f805 6b01 	strb.w	r6, [r5], #1
    5958:	42ab      	cmp	r3, r5
    595a:	e9cd 0102 	strd	r0, r1, [sp, #8]
    595e:	f04f 0200 	mov.w	r2, #0
    5962:	d124      	bne.n	59ae <_dtoa_r+0x5fe>
    5964:	4b1b      	ldr	r3, [pc, #108]	; (59d4 <_dtoa_r+0x624>)
    5966:	e9dd 010a 	ldrd	r0, r1, [sp, #40]	; 0x28
    596a:	f7fc fe6f 	bl	264c <__adddf3>
    596e:	4602      	mov	r2, r0
    5970:	460b      	mov	r3, r1
    5972:	e9dd 0102 	ldrd	r0, r1, [sp, #8]
    5976:	f001 fa1b 	bl	6db0 <__aeabi_dcmpgt>
    597a:	2800      	cmp	r0, #0
    597c:	d174      	bne.n	5a68 <_dtoa_r+0x6b8>
    597e:	e9dd 230a 	ldrd	r2, r3, [sp, #40]	; 0x28
    5982:	2000      	movs	r0, #0
    5984:	4913      	ldr	r1, [pc, #76]	; (59d4 <_dtoa_r+0x624>)
    5986:	f7fc fe5f 	bl	2648 <__aeabi_dsub>
    598a:	4602      	mov	r2, r0
    598c:	460b      	mov	r3, r1
    598e:	e9dd 0102 	ldrd	r0, r1, [sp, #8]
    5992:	f001 f9ef 	bl	6d74 <__aeabi_dcmplt>
    5996:	2800      	cmp	r0, #0
    5998:	f43f af2d 	beq.w	57f6 <_dtoa_r+0x446>
    599c:	f815 3c01 	ldrb.w	r3, [r5, #-1]
    59a0:	1e6a      	subs	r2, r5, #1
    59a2:	2b30      	cmp	r3, #48	; 0x30
    59a4:	d001      	beq.n	59aa <_dtoa_r+0x5fa>
    59a6:	46bb      	mov	r11, r7
    59a8:	e04d      	b.n	5a46 <_dtoa_r+0x696>
    59aa:	4615      	mov	r5, r2
    59ac:	e7f6      	b.n	599c <_dtoa_r+0x5ec>
    59ae:	4b06      	ldr	r3, [pc, #24]	; (59c8 <_dtoa_r+0x618>)
    59b0:	f7fc fffe 	bl	29b0 <__aeabi_dmul>
    59b4:	e9cd 0102 	strd	r0, r1, [sp, #8]
    59b8:	e7bd      	b.n	5936 <_dtoa_r+0x586>
    59ba:	bf00      	nop
    59bc:	00007448 	.word	0x00007448
    59c0:	00007420 	.word	0x00007420
    59c4:	3ff00000 	.word	0x3ff00000
    59c8:	40240000 	.word	0x40240000
    59cc:	401c0000 	.word	0x401c0000
    59d0:	40140000 	.word	0x40140000
    59d4:	3fe00000 	.word	0x3fe00000
    59d8:	9d06      	ldr	r5, [sp, #24]
    59da:	e9dd 6702 	ldrd	r6, r7, [sp, #8]
    59de:	e9dd 2304 	ldrd	r2, r3, [sp, #16]
    59e2:	4630      	mov	r0, r6
    59e4:	4639      	mov	r1, r7
    59e6:	f7fd f90d 	bl	2c04 <__aeabi_ddiv>
    59ea:	f7fd f9f3 	bl	2dd4 <__aeabi_d2iz>
    59ee:	4680      	mov	r8, r0
    59f0:	f7fc ff78 	bl	28e4 <__aeabi_i2d>
    59f4:	e9dd 2304 	ldrd	r2, r3, [sp, #16]
    59f8:	f7fc ffda 	bl	29b0 <__aeabi_dmul>
    59fc:	4602      	mov	r2, r0
    59fe:	460b      	mov	r3, r1
    5a00:	4630      	mov	r0, r6
    5a02:	4639      	mov	r1, r7
    5a04:	f7fc fe20 	bl	2648 <__aeabi_dsub>
    5a08:	f108 0630 	add.w	r6, r8, #48	; 0x30
    5a0c:	f805 6b01 	strb.w	r6, [r5], #1
    5a10:	9e06      	ldr	r6, [sp, #24]
    5a12:	4602      	mov	r2, r0
    5a14:	1bae      	subs	r6, r5, r6
    5a16:	45b1      	cmp	r9, r6
    5a18:	460b      	mov	r3, r1
    5a1a:	d137      	bne.n	5a8c <_dtoa_r+0x6dc>
    5a1c:	f7fc fe16 	bl	264c <__adddf3>
    5a20:	4606      	mov	r6, r0
    5a22:	460f      	mov	r7, r1
    5a24:	4602      	mov	r2, r0
    5a26:	460b      	mov	r3, r1
    5a28:	e9dd 0104 	ldrd	r0, r1, [sp, #16]
    5a2c:	f001 f9a2 	bl	6d74 <__aeabi_dcmplt>
    5a30:	b9c8      	cbnz	r0, 5a66 <_dtoa_r+0x6b6>
    5a32:	e9dd 0104 	ldrd	r0, r1, [sp, #16]
    5a36:	4632      	mov	r2, r6
    5a38:	463b      	mov	r3, r7
    5a3a:	f001 f991 	bl	6d60 <__aeabi_dcmpeq>
    5a3e:	b110      	cbz	r0, 5a46 <_dtoa_r+0x696>
    5a40:	f018 0f01 	tst.w	r8, #1
    5a44:	d10f      	bne.n	5a66 <_dtoa_r+0x6b6>
    5a46:	4651      	mov	r1, r10
    5a48:	4620      	mov	r0, r4
    5a4a:	f000 fb6f 	bl	612c <_Bfree>
    5a4e:	2300      	movs	r3, #0
    5a50:	9a20      	ldr	r2, [sp, #128]	; 0x80
    5a52:	702b      	strb	r3, [r5, #0]
    5a54:	f10b 0301 	add.w	r3, r11, #1
    5a58:	6013      	str	r3, [r2, #0]
    5a5a:	9b22      	ldr	r3, [sp, #136]	; 0x88
    5a5c:	2b00      	cmp	r3, #0
    5a5e:	f43f acec 	beq.w	543a <_dtoa_r+0x8a>
    5a62:	601d      	str	r5, [r3, #0]
    5a64:	e4e9      	b.n	543a <_dtoa_r+0x8a>
    5a66:	465f      	mov	r7, r11
    5a68:	f815 2c01 	ldrb.w	r2, [r5, #-1]
    5a6c:	1e6b      	subs	r3, r5, #1
    5a6e:	2a39      	cmp	r2, #57	; 0x39
    5a70:	d106      	bne.n	5a80 <_dtoa_r+0x6d0>
    5a72:	9a06      	ldr	r2, [sp, #24]
    5a74:	429a      	cmp	r2, r3
    5a76:	d107      	bne.n	5a88 <_dtoa_r+0x6d8>
    5a78:	2330      	movs	r3, #48	; 0x30
    5a7a:	7013      	strb	r3, [r2, #0]
    5a7c:	4613      	mov	r3, r2
    5a7e:	3701      	adds	r7, #1
    5a80:	781a      	ldrb	r2, [r3, #0]
    5a82:	3201      	adds	r2, #1
    5a84:	701a      	strb	r2, [r3, #0]
    5a86:	e78e      	b.n	59a6 <_dtoa_r+0x5f6>
    5a88:	461d      	mov	r5, r3
    5a8a:	e7ed      	b.n	5a68 <_dtoa_r+0x6b8>
    5a8c:	2200      	movs	r2, #0
    5a8e:	4bb5      	ldr	r3, [pc, #724]	; (5d64 <_dtoa_r+0x9b4>)
    5a90:	f7fc ff8e 	bl	29b0 <__aeabi_dmul>
    5a94:	2200      	movs	r2, #0
    5a96:	2300      	movs	r3, #0
    5a98:	4606      	mov	r6, r0
    5a9a:	460f      	mov	r7, r1
    5a9c:	f001 f960 	bl	6d60 <__aeabi_dcmpeq>
    5aa0:	2800      	cmp	r0, #0
    5aa2:	d09c      	beq.n	59de <_dtoa_r+0x62e>
    5aa4:	e7cf      	b.n	5a46 <_dtoa_r+0x696>
    5aa6:	9a09      	ldr	r2, [sp, #36]	; 0x24
    5aa8:	2a00      	cmp	r2, #0
    5aaa:	f000 8129 	beq.w	5d00 <_dtoa_r+0x950>
    5aae:	9a1e      	ldr	r2, [sp, #120]	; 0x78
    5ab0:	2a01      	cmp	r2, #1
    5ab2:	f300 810e 	bgt.w	5cd2 <_dtoa_r+0x922>
    5ab6:	9a10      	ldr	r2, [sp, #64]	; 0x40
    5ab8:	2a00      	cmp	r2, #0
    5aba:	f000 8106 	beq.w	5cca <_dtoa_r+0x91a>
    5abe:	f203 4333 	addw	r3, r3, #1075	; 0x433
    5ac2:	4645      	mov	r5, r8
    5ac4:	9e08      	ldr	r6, [sp, #32]
    5ac6:	9a07      	ldr	r2, [sp, #28]
    5ac8:	2101      	movs	r1, #1
    5aca:	441a      	add	r2, r3
    5acc:	4620      	mov	r0, r4
    5ace:	4498      	add	r8, r3
    5ad0:	9207      	str	r2, [sp, #28]
    5ad2:	f000 fbcb 	bl	626c <__i2b>
    5ad6:	4607      	mov	r7, r0
    5ad8:	2d00      	cmp	r5, #0
    5ada:	dd0b      	ble.n	5af4 <_dtoa_r+0x744>
    5adc:	9b07      	ldr	r3, [sp, #28]
    5ade:	2b00      	cmp	r3, #0
    5ae0:	dd08      	ble.n	5af4 <_dtoa_r+0x744>
    5ae2:	42ab      	cmp	r3, r5
    5ae4:	bfa8      	it	ge
    5ae6:	462b      	movge	r3, r5
    5ae8:	9a07      	ldr	r2, [sp, #28]
    5aea:	eba8 0803 	sub.w	r8, r8, r3
    5aee:	1aed      	subs	r5, r5, r3
    5af0:	1ad3      	subs	r3, r2, r3
    5af2:	9307      	str	r3, [sp, #28]
    5af4:	9b08      	ldr	r3, [sp, #32]
    5af6:	b1fb      	cbz	r3, 5b38 <_dtoa_r+0x788>
    5af8:	9b09      	ldr	r3, [sp, #36]	; 0x24
    5afa:	2b00      	cmp	r3, #0
    5afc:	f000 8104 	beq.w	5d08 <_dtoa_r+0x958>
    5b00:	2e00      	cmp	r6, #0
    5b02:	dd11      	ble.n	5b28 <_dtoa_r+0x778>
    5b04:	4639      	mov	r1, r7
    5b06:	4632      	mov	r2, r6
    5b08:	4620      	mov	r0, r4
    5b0a:	f000 fc45 	bl	6398 <__pow5mult>
    5b0e:	4652      	mov	r2, r10
    5b10:	4601      	mov	r1, r0
    5b12:	4607      	mov	r7, r0
    5b14:	4620      	mov	r0, r4
    5b16:	f000 fbb2 	bl	627e <__multiply>
    5b1a:	4651      	mov	r1, r10
    5b1c:	900a      	str	r0, [sp, #40]	; 0x28
    5b1e:	4620      	mov	r0, r4
    5b20:	f000 fb04 	bl	612c <_Bfree>
    5b24:	9b0a      	ldr	r3, [sp, #40]	; 0x28
    5b26:	469a      	mov	r10, r3
    5b28:	9b08      	ldr	r3, [sp, #32]
    5b2a:	1b9a      	subs	r2, r3, r6
    5b2c:	d004      	beq.n	5b38 <_dtoa_r+0x788>
    5b2e:	4651      	mov	r1, r10
    5b30:	4620      	mov	r0, r4
    5b32:	f000 fc31 	bl	6398 <__pow5mult>
    5b36:	4682      	mov	r10, r0
    5b38:	2101      	movs	r1, #1
    5b3a:	4620      	mov	r0, r4
    5b3c:	f000 fb96 	bl	626c <__i2b>
    5b40:	9b0c      	ldr	r3, [sp, #48]	; 0x30
    5b42:	4606      	mov	r6, r0
    5b44:	2b00      	cmp	r3, #0
    5b46:	f340 80e1 	ble.w	5d0c <_dtoa_r+0x95c>
    5b4a:	461a      	mov	r2, r3
    5b4c:	4601      	mov	r1, r0
    5b4e:	4620      	mov	r0, r4
    5b50:	f000 fc22 	bl	6398 <__pow5mult>
    5b54:	9b1e      	ldr	r3, [sp, #120]	; 0x78
    5b56:	4606      	mov	r6, r0
    5b58:	2b01      	cmp	r3, #1
    5b5a:	f340 80da 	ble.w	5d12 <_dtoa_r+0x962>
    5b5e:	2300      	movs	r3, #0
    5b60:	9308      	str	r3, [sp, #32]
    5b62:	6933      	ldr	r3, [r6, #16]
    5b64:	eb06 0383 	add.w	r3, r6, r3, lsl #2
    5b68:	6918      	ldr	r0, [r3, #16]
    5b6a:	f000 fb31 	bl	61d0 <__hi0bits>
    5b6e:	f1c0 0020 	rsb	r0, r0, #32
    5b72:	9b07      	ldr	r3, [sp, #28]
    5b74:	4418      	add	r0, r3
    5b76:	f010 001f 	ands.w	r0, r0, #31
    5b7a:	f000 80f0 	beq.w	5d5e <_dtoa_r+0x9ae>
    5b7e:	f1c0 0320 	rsb	r3, r0, #32
    5b82:	2b04      	cmp	r3, #4
    5b84:	f340 80e2 	ble.w	5d4c <_dtoa_r+0x99c>
    5b88:	9b07      	ldr	r3, [sp, #28]
    5b8a:	f1c0 001c 	rsb	r0, r0, #28
    5b8e:	4480      	add	r8, r0
    5b90:	4405      	add	r5, r0
    5b92:	4403      	add	r3, r0
    5b94:	9307      	str	r3, [sp, #28]
    5b96:	f1b8 0f00 	cmp.w	r8, #0
    5b9a:	dd05      	ble.n	5ba8 <_dtoa_r+0x7f8>
    5b9c:	4651      	mov	r1, r10
    5b9e:	4642      	mov	r2, r8
    5ba0:	4620      	mov	r0, r4
    5ba2:	f000 fc47 	bl	6434 <__lshift>
    5ba6:	4682      	mov	r10, r0
    5ba8:	9b07      	ldr	r3, [sp, #28]
    5baa:	2b00      	cmp	r3, #0
    5bac:	dd05      	ble.n	5bba <_dtoa_r+0x80a>
    5bae:	4631      	mov	r1, r6
    5bb0:	461a      	mov	r2, r3
    5bb2:	4620      	mov	r0, r4
    5bb4:	f000 fc3e 	bl	6434 <__lshift>
    5bb8:	4606      	mov	r6, r0
    5bba:	9b0d      	ldr	r3, [sp, #52]	; 0x34
    5bbc:	2b00      	cmp	r3, #0
    5bbe:	f000 80d3 	beq.w	5d68 <_dtoa_r+0x9b8>
    5bc2:	4631      	mov	r1, r6
    5bc4:	4650      	mov	r0, r10
    5bc6:	f000 fc86 	bl	64d6 <__mcmp>
    5bca:	2800      	cmp	r0, #0
    5bcc:	f280 80cc 	bge.w	5d68 <_dtoa_r+0x9b8>
    5bd0:	2300      	movs	r3, #0
    5bd2:	4651      	mov	r1, r10
    5bd4:	220a      	movs	r2, #10
    5bd6:	4620      	mov	r0, r4
    5bd8:	f000 fabf 	bl	615a <__multadd>
    5bdc:	9b09      	ldr	r3, [sp, #36]	; 0x24
    5bde:	f10b 3bff 	add.w	r11, r11, #4294967295	; 0xffffffff
    5be2:	4682      	mov	r10, r0
    5be4:	2b00      	cmp	r3, #0
    5be6:	f000 81a9 	beq.w	5f3c <_dtoa_r+0xb8c>
    5bea:	2300      	movs	r3, #0
    5bec:	4639      	mov	r1, r7
    5bee:	220a      	movs	r2, #10
    5bf0:	4620      	mov	r0, r4
    5bf2:	f000 fab2 	bl	615a <__multadd>
    5bf6:	9b04      	ldr	r3, [sp, #16]
    5bf8:	4607      	mov	r7, r0
    5bfa:	2b00      	cmp	r3, #0
    5bfc:	dc03      	bgt.n	5c06 <_dtoa_r+0x856>
    5bfe:	9b1e      	ldr	r3, [sp, #120]	; 0x78
    5c00:	2b02      	cmp	r3, #2
    5c02:	f300 80b9 	bgt.w	5d78 <_dtoa_r+0x9c8>
    5c06:	2d00      	cmp	r5, #0
    5c08:	dd05      	ble.n	5c16 <_dtoa_r+0x866>
    5c0a:	4639      	mov	r1, r7
    5c0c:	462a      	mov	r2, r5
    5c0e:	4620      	mov	r0, r4
    5c10:	f000 fc10 	bl	6434 <__lshift>
    5c14:	4607      	mov	r7, r0
    5c16:	9b08      	ldr	r3, [sp, #32]
    5c18:	2b00      	cmp	r3, #0
    5c1a:	f000 8110 	beq.w	5e3e <_dtoa_r+0xa8e>
    5c1e:	6879      	ldr	r1, [r7, #4]
    5c20:	4620      	mov	r0, r4
    5c22:	f000 fa4f 	bl	60c4 <_Balloc>
    5c26:	4605      	mov	r5, r0
    5c28:	693a      	ldr	r2, [r7, #16]
    5c2a:	f107 010c 	add.w	r1, r7, #12
    5c2e:	3202      	adds	r2, #2
    5c30:	0092      	lsls	r2, r2, #2
    5c32:	300c      	adds	r0, #12
    5c34:	f7fd ff3a 	bl	3aac <memcpy>
    5c38:	2201      	movs	r2, #1
    5c3a:	4629      	mov	r1, r5
    5c3c:	4620      	mov	r0, r4
    5c3e:	f000 fbf9 	bl	6434 <__lshift>
    5c42:	9707      	str	r7, [sp, #28]
    5c44:	4607      	mov	r7, r0
    5c46:	9b02      	ldr	r3, [sp, #8]
    5c48:	f8dd 8018 	ldr.w	r8, [sp, #24]
    5c4c:	f003 0301 	and.w	r3, r3, #1
    5c50:	9308      	str	r3, [sp, #32]
    5c52:	4631      	mov	r1, r6
    5c54:	4650      	mov	r0, r10
    5c56:	f7ff fb1d 	bl	5294 <quorem>
    5c5a:	9907      	ldr	r1, [sp, #28]
    5c5c:	4605      	mov	r5, r0
    5c5e:	f100 0930 	add.w	r9, r0, #48	; 0x30
    5c62:	4650      	mov	r0, r10
    5c64:	f000 fc37 	bl	64d6 <__mcmp>
    5c68:	463a      	mov	r2, r7
    5c6a:	9002      	str	r0, [sp, #8]
    5c6c:	4631      	mov	r1, r6
    5c6e:	4620      	mov	r0, r4
    5c70:	f000 fc4b 	bl	650a <__mdiff>
    5c74:	68c3      	ldr	r3, [r0, #12]
    5c76:	4602      	mov	r2, r0
    5c78:	2b00      	cmp	r3, #0
    5c7a:	f040 80e2 	bne.w	5e42 <_dtoa_r+0xa92>
    5c7e:	4601      	mov	r1, r0
    5c80:	9009      	str	r0, [sp, #36]	; 0x24
    5c82:	4650      	mov	r0, r10
    5c84:	f000 fc27 	bl	64d6 <__mcmp>
    5c88:	4603      	mov	r3, r0
    5c8a:	9a09      	ldr	r2, [sp, #36]	; 0x24
    5c8c:	4611      	mov	r1, r2
    5c8e:	4620      	mov	r0, r4
    5c90:	9309      	str	r3, [sp, #36]	; 0x24
    5c92:	f000 fa4b 	bl	612c <_Bfree>
    5c96:	9b09      	ldr	r3, [sp, #36]	; 0x24
    5c98:	2b00      	cmp	r3, #0
    5c9a:	f040 80d4 	bne.w	5e46 <_dtoa_r+0xa96>
    5c9e:	9a1e      	ldr	r2, [sp, #120]	; 0x78
    5ca0:	2a00      	cmp	r2, #0
    5ca2:	f040 80d0 	bne.w	5e46 <_dtoa_r+0xa96>
    5ca6:	9a08      	ldr	r2, [sp, #32]
    5ca8:	2a00      	cmp	r2, #0
    5caa:	f040 80cc 	bne.w	5e46 <_dtoa_r+0xa96>
    5cae:	f1b9 0f39 	cmp.w	r9, #57	; 0x39
    5cb2:	f000 80e8 	beq.w	5e86 <_dtoa_r+0xad6>
    5cb6:	9b02      	ldr	r3, [sp, #8]
    5cb8:	2b00      	cmp	r3, #0
    5cba:	dd01      	ble.n	5cc0 <_dtoa_r+0x910>
    5cbc:	f105 0931 	add.w	r9, r5, #49	; 0x31
    5cc0:	f108 0501 	add.w	r5, r8, #1
    5cc4:	f888 9000 	strb.w	r9, [r8]
    5cc8:	e06b      	b.n	5da2 <_dtoa_r+0x9f2>
    5cca:	9b12      	ldr	r3, [sp, #72]	; 0x48
    5ccc:	f1c3 0336 	rsb	r3, r3, #54	; 0x36
    5cd0:	e6f7      	b.n	5ac2 <_dtoa_r+0x712>
    5cd2:	9b08      	ldr	r3, [sp, #32]
    5cd4:	f109 36ff 	add.w	r6, r9, #4294967295	; 0xffffffff
    5cd8:	42b3      	cmp	r3, r6
    5cda:	bfb7      	itett	lt
    5cdc:	9b08      	ldrlt	r3, [sp, #32]
    5cde:	1b9e      	subge	r6, r3, r6
    5ce0:	1af2      	sublt	r2, r6, r3
    5ce2:	9b0c      	ldrlt	r3, [sp, #48]	; 0x30
    5ce4:	bfbf      	itttt	lt
    5ce6:	9608      	strlt	r6, [sp, #32]
    5ce8:	189b      	addlt	r3, r3, r2
    5cea:	930c      	strlt	r3, [sp, #48]	; 0x30
    5cec:	2600      	movlt	r6, #0
    5cee:	f1b9 0f00 	cmp.w	r9, #0
    5cf2:	bfb9      	ittee	lt
    5cf4:	eba8 0509 	sublt.w	r5, r8, r9
    5cf8:	2300      	movlt	r3, #0
    5cfa:	4645      	movge	r5, r8
    5cfc:	464b      	movge	r3, r9
    5cfe:	e6e2      	b.n	5ac6 <_dtoa_r+0x716>
    5d00:	9e08      	ldr	r6, [sp, #32]
    5d02:	4645      	mov	r5, r8
    5d04:	9f09      	ldr	r7, [sp, #36]	; 0x24
    5d06:	e6e7      	b.n	5ad8 <_dtoa_r+0x728>
    5d08:	9a08      	ldr	r2, [sp, #32]
    5d0a:	e710      	b.n	5b2e <_dtoa_r+0x77e>
    5d0c:	9b1e      	ldr	r3, [sp, #120]	; 0x78
    5d0e:	2b01      	cmp	r3, #1
    5d10:	dc18      	bgt.n	5d44 <_dtoa_r+0x994>
    5d12:	9b02      	ldr	r3, [sp, #8]
    5d14:	b9b3      	cbnz	r3, 5d44 <_dtoa_r+0x994>
    5d16:	9b03      	ldr	r3, [sp, #12]
    5d18:	f3c3 0313 	ubfx	r3, r3, #0, #20
    5d1c:	b9a3      	cbnz	r3, 5d48 <_dtoa_r+0x998>
    5d1e:	9b03      	ldr	r3, [sp, #12]
    5d20:	f023 4300 	bic.w	r3, r3, #2147483648	; 0x80000000
    5d24:	0d1b      	lsrs	r3, r3, #20
    5d26:	051b      	lsls	r3, r3, #20
    5d28:	b12b      	cbz	r3, 5d36 <_dtoa_r+0x986>
    5d2a:	9b07      	ldr	r3, [sp, #28]
    5d2c:	f108 0801 	add.w	r8, r8, #1
    5d30:	3301      	adds	r3, #1
    5d32:	9307      	str	r3, [sp, #28]
    5d34:	2301      	movs	r3, #1
    5d36:	9308      	str	r3, [sp, #32]
    5d38:	9b0c      	ldr	r3, [sp, #48]	; 0x30
    5d3a:	2b00      	cmp	r3, #0
    5d3c:	f47f af11 	bne.w	5b62 <_dtoa_r+0x7b2>
    5d40:	2001      	movs	r0, #1
    5d42:	e716      	b.n	5b72 <_dtoa_r+0x7c2>
    5d44:	2300      	movs	r3, #0
    5d46:	e7f6      	b.n	5d36 <_dtoa_r+0x986>
    5d48:	9b02      	ldr	r3, [sp, #8]
    5d4a:	e7f4      	b.n	5d36 <_dtoa_r+0x986>
    5d4c:	f43f af23 	beq.w	5b96 <_dtoa_r+0x7e6>
    5d50:	9a07      	ldr	r2, [sp, #28]
    5d52:	331c      	adds	r3, #28
    5d54:	441a      	add	r2, r3
    5d56:	4498      	add	r8, r3
    5d58:	441d      	add	r5, r3
    5d5a:	4613      	mov	r3, r2
    5d5c:	e71a      	b.n	5b94 <_dtoa_r+0x7e4>
    5d5e:	4603      	mov	r3, r0
    5d60:	e7f6      	b.n	5d50 <_dtoa_r+0x9a0>
    5d62:	bf00      	nop
    5d64:	40240000 	.word	0x40240000
    5d68:	f1b9 0f00 	cmp.w	r9, #0
    5d6c:	dc33      	bgt.n	5dd6 <_dtoa_r+0xa26>
    5d6e:	9b1e      	ldr	r3, [sp, #120]	; 0x78
    5d70:	2b02      	cmp	r3, #2
    5d72:	dd30      	ble.n	5dd6 <_dtoa_r+0xa26>
    5d74:	f8cd 9010 	str.w	r9, [sp, #16]
    5d78:	9b04      	ldr	r3, [sp, #16]
    5d7a:	b963      	cbnz	r3, 5d96 <_dtoa_r+0x9e6>
    5d7c:	4631      	mov	r1, r6
    5d7e:	2205      	movs	r2, #5
    5d80:	4620      	mov	r0, r4
    5d82:	f000 f9ea 	bl	615a <__multadd>
    5d86:	4601      	mov	r1, r0
    5d88:	4606      	mov	r6, r0
    5d8a:	4650      	mov	r0, r10
    5d8c:	f000 fba3 	bl	64d6 <__mcmp>
    5d90:	2800      	cmp	r0, #0
    5d92:	f73f ad5c 	bgt.w	584e <_dtoa_r+0x49e>
    5d96:	9b1f      	ldr	r3, [sp, #124]	; 0x7c
    5d98:	9d06      	ldr	r5, [sp, #24]
    5d9a:	ea6f 0b03 	mvn.w	r11, r3
    5d9e:	2300      	movs	r3, #0
    5da0:	9307      	str	r3, [sp, #28]
    5da2:	4631      	mov	r1, r6
    5da4:	4620      	mov	r0, r4
    5da6:	f000 f9c1 	bl	612c <_Bfree>
    5daa:	2f00      	cmp	r7, #0
    5dac:	f43f ae4b 	beq.w	5a46 <_dtoa_r+0x696>
    5db0:	9b07      	ldr	r3, [sp, #28]
    5db2:	b12b      	cbz	r3, 5dc0 <_dtoa_r+0xa10>
    5db4:	42bb      	cmp	r3, r7
    5db6:	d003      	beq.n	5dc0 <_dtoa_r+0xa10>
    5db8:	4619      	mov	r1, r3
    5dba:	4620      	mov	r0, r4
    5dbc:	f000 f9b6 	bl	612c <_Bfree>
    5dc0:	4639      	mov	r1, r7
    5dc2:	4620      	mov	r0, r4
    5dc4:	f000 f9b2 	bl	612c <_Bfree>
    5dc8:	e63d      	b.n	5a46 <_dtoa_r+0x696>
    5dca:	2600      	movs	r6, #0
    5dcc:	4637      	mov	r7, r6
    5dce:	e7e2      	b.n	5d96 <_dtoa_r+0x9e6>
    5dd0:	46bb      	mov	r11, r7
    5dd2:	4637      	mov	r7, r6
    5dd4:	e53b      	b.n	584e <_dtoa_r+0x49e>
    5dd6:	9b09      	ldr	r3, [sp, #36]	; 0x24
    5dd8:	f8cd 9010 	str.w	r9, [sp, #16]
    5ddc:	2b00      	cmp	r3, #0
    5dde:	f47f af12 	bne.w	5c06 <_dtoa_r+0x856>
    5de2:	9d06      	ldr	r5, [sp, #24]
    5de4:	4631      	mov	r1, r6
    5de6:	4650      	mov	r0, r10
    5de8:	f7ff fa54 	bl	5294 <quorem>
    5dec:	9b06      	ldr	r3, [sp, #24]
    5dee:	f100 0930 	add.w	r9, r0, #48	; 0x30
    5df2:	f805 9b01 	strb.w	r9, [r5], #1
    5df6:	9a04      	ldr	r2, [sp, #16]
    5df8:	1aeb      	subs	r3, r5, r3
    5dfa:	429a      	cmp	r2, r3
    5dfc:	f300 8081 	bgt.w	5f02 <_dtoa_r+0xb52>
    5e00:	9b06      	ldr	r3, [sp, #24]
    5e02:	2a01      	cmp	r2, #1
    5e04:	bfac      	ite	ge
    5e06:	189b      	addge	r3, r3, r2
    5e08:	3301      	addlt	r3, #1
    5e0a:	4698      	mov	r8, r3
    5e0c:	2300      	movs	r3, #0
    5e0e:	9307      	str	r3, [sp, #28]
    5e10:	4651      	mov	r1, r10
    5e12:	2201      	movs	r2, #1
    5e14:	4620      	mov	r0, r4
    5e16:	f000 fb0d 	bl	6434 <__lshift>
    5e1a:	4631      	mov	r1, r6
    5e1c:	4682      	mov	r10, r0
    5e1e:	f000 fb5a 	bl	64d6 <__mcmp>
    5e22:	2800      	cmp	r0, #0
    5e24:	dc34      	bgt.n	5e90 <_dtoa_r+0xae0>
    5e26:	d102      	bne.n	5e2e <_dtoa_r+0xa7e>
    5e28:	f019 0f01 	tst.w	r9, #1
    5e2c:	d130      	bne.n	5e90 <_dtoa_r+0xae0>
    5e2e:	4645      	mov	r5, r8
    5e30:	f815 3c01 	ldrb.w	r3, [r5, #-1]
    5e34:	1e6a      	subs	r2, r5, #1
    5e36:	2b30      	cmp	r3, #48	; 0x30
    5e38:	d1b3      	bne.n	5da2 <_dtoa_r+0x9f2>
    5e3a:	4615      	mov	r5, r2
    5e3c:	e7f8      	b.n	5e30 <_dtoa_r+0xa80>
    5e3e:	4638      	mov	r0, r7
    5e40:	e6ff      	b.n	5c42 <_dtoa_r+0x892>
    5e42:	2301      	movs	r3, #1
    5e44:	e722      	b.n	5c8c <_dtoa_r+0x8dc>
    5e46:	9a02      	ldr	r2, [sp, #8]
    5e48:	2a00      	cmp	r2, #0
    5e4a:	db04      	blt.n	5e56 <_dtoa_r+0xaa6>
    5e4c:	d128      	bne.n	5ea0 <_dtoa_r+0xaf0>
    5e4e:	9a1e      	ldr	r2, [sp, #120]	; 0x78
    5e50:	bb32      	cbnz	r2, 5ea0 <_dtoa_r+0xaf0>
    5e52:	9a08      	ldr	r2, [sp, #32]
    5e54:	bb22      	cbnz	r2, 5ea0 <_dtoa_r+0xaf0>
    5e56:	2b00      	cmp	r3, #0
    5e58:	f77f af32 	ble.w	5cc0 <_dtoa_r+0x910>
    5e5c:	4651      	mov	r1, r10
    5e5e:	2201      	movs	r2, #1
    5e60:	4620      	mov	r0, r4
    5e62:	f000 fae7 	bl	6434 <__lshift>
    5e66:	4631      	mov	r1, r6
    5e68:	4682      	mov	r10, r0
    5e6a:	f000 fb34 	bl	64d6 <__mcmp>
    5e6e:	2800      	cmp	r0, #0
    5e70:	dc05      	bgt.n	5e7e <_dtoa_r+0xace>
    5e72:	f47f af25 	bne.w	5cc0 <_dtoa_r+0x910>
    5e76:	f019 0f01 	tst.w	r9, #1
    5e7a:	f43f af21 	beq.w	5cc0 <_dtoa_r+0x910>
    5e7e:	f1b9 0f39 	cmp.w	r9, #57	; 0x39
    5e82:	f47f af1b 	bne.w	5cbc <_dtoa_r+0x90c>
    5e86:	2339      	movs	r3, #57	; 0x39
    5e88:	f108 0801 	add.w	r8, r8, #1
    5e8c:	f808 3c01 	strb.w	r3, [r8, #-1]
    5e90:	4645      	mov	r5, r8
    5e92:	f815 3c01 	ldrb.w	r3, [r5, #-1]
    5e96:	1e6a      	subs	r2, r5, #1
    5e98:	2b39      	cmp	r3, #57	; 0x39
    5e9a:	d03a      	beq.n	5f12 <_dtoa_r+0xb62>
    5e9c:	3301      	adds	r3, #1
    5e9e:	e03f      	b.n	5f20 <_dtoa_r+0xb70>
    5ea0:	2b00      	cmp	r3, #0
    5ea2:	f108 0501 	add.w	r5, r8, #1
    5ea6:	dd05      	ble.n	5eb4 <_dtoa_r+0xb04>
    5ea8:	f1b9 0f39 	cmp.w	r9, #57	; 0x39
    5eac:	d0eb      	beq.n	5e86 <_dtoa_r+0xad6>
    5eae:	f109 0901 	add.w	r9, r9, #1
    5eb2:	e707      	b.n	5cc4 <_dtoa_r+0x914>
    5eb4:	9b06      	ldr	r3, [sp, #24]
    5eb6:	9a04      	ldr	r2, [sp, #16]
    5eb8:	1aeb      	subs	r3, r5, r3
    5eba:	4293      	cmp	r3, r2
    5ebc:	46a8      	mov	r8, r5
    5ebe:	f805 9c01 	strb.w	r9, [r5, #-1]
    5ec2:	d0a5      	beq.n	5e10 <_dtoa_r+0xa60>
    5ec4:	4651      	mov	r1, r10
    5ec6:	2300      	movs	r3, #0
    5ec8:	220a      	movs	r2, #10
    5eca:	4620      	mov	r0, r4
    5ecc:	f000 f945 	bl	615a <__multadd>
    5ed0:	9b07      	ldr	r3, [sp, #28]
    5ed2:	4682      	mov	r10, r0
    5ed4:	42bb      	cmp	r3, r7
    5ed6:	f04f 020a 	mov.w	r2, #10
    5eda:	f04f 0300 	mov.w	r3, #0
    5ede:	9907      	ldr	r1, [sp, #28]
    5ee0:	4620      	mov	r0, r4
    5ee2:	d104      	bne.n	5eee <_dtoa_r+0xb3e>
    5ee4:	f000 f939 	bl	615a <__multadd>
    5ee8:	9007      	str	r0, [sp, #28]
    5eea:	4607      	mov	r7, r0
    5eec:	e6b1      	b.n	5c52 <_dtoa_r+0x8a2>
    5eee:	f000 f934 	bl	615a <__multadd>
    5ef2:	2300      	movs	r3, #0
    5ef4:	9007      	str	r0, [sp, #28]
    5ef6:	220a      	movs	r2, #10
    5ef8:	4639      	mov	r1, r7
    5efa:	4620      	mov	r0, r4
    5efc:	f000 f92d 	bl	615a <__multadd>
    5f00:	e7f3      	b.n	5eea <_dtoa_r+0xb3a>
    5f02:	4651      	mov	r1, r10
    5f04:	2300      	movs	r3, #0
    5f06:	220a      	movs	r2, #10
    5f08:	4620      	mov	r0, r4
    5f0a:	f000 f926 	bl	615a <__multadd>
    5f0e:	4682      	mov	r10, r0
    5f10:	e768      	b.n	5de4 <_dtoa_r+0xa34>
    5f12:	9b06      	ldr	r3, [sp, #24]
    5f14:	4293      	cmp	r3, r2
    5f16:	d105      	bne.n	5f24 <_dtoa_r+0xb74>
    5f18:	2331      	movs	r3, #49	; 0x31
    5f1a:	9a06      	ldr	r2, [sp, #24]
    5f1c:	f10b 0b01 	add.w	r11, r11, #1
    5f20:	7013      	strb	r3, [r2, #0]
    5f22:	e73e      	b.n	5da2 <_dtoa_r+0x9f2>
    5f24:	4615      	mov	r5, r2
    5f26:	e7b4      	b.n	5e92 <_dtoa_r+0xae2>
    5f28:	4b09      	ldr	r3, [pc, #36]	; (5f50 <_dtoa_r+0xba0>)
    5f2a:	f7ff baa3 	b.w	5474 <_dtoa_r+0xc4>
    5f2e:	9b22      	ldr	r3, [sp, #136]	; 0x88
    5f30:	2b00      	cmp	r3, #0
    5f32:	f47f aa7d 	bne.w	5430 <_dtoa_r+0x80>
    5f36:	4b07      	ldr	r3, [pc, #28]	; (5f54 <_dtoa_r+0xba4>)
    5f38:	f7ff ba9c 	b.w	5474 <_dtoa_r+0xc4>
    5f3c:	9b04      	ldr	r3, [sp, #16]
    5f3e:	2b00      	cmp	r3, #0
    5f40:	f73f af4f 	bgt.w	5de2 <_dtoa_r+0xa32>
    5f44:	9b1e      	ldr	r3, [sp, #120]	; 0x78
    5f46:	2b02      	cmp	r3, #2
    5f48:	f77f af4b 	ble.w	5de2 <_dtoa_r+0xa32>
    5f4c:	e714      	b.n	5d78 <_dtoa_r+0x9c8>
    5f4e:	bf00      	nop
    5f50:	000073fe 	.word	0x000073fe
    5f54:	00007403 	.word	0x00007403

00005f58 <__sflags>:
    5f58:	780b      	ldrb	r3, [r1, #0]
    5f5a:	b530      	push	{r4, r5, lr}
    5f5c:	2b72      	cmp	r3, #114	; 0x72
    5f5e:	d013      	beq.n	5f88 <__sflags+0x30>
    5f60:	2b77      	cmp	r3, #119	; 0x77
    5f62:	d007      	beq.n	5f74 <__sflags+0x1c>
    5f64:	2b61      	cmp	r3, #97	; 0x61
    5f66:	d113      	bne.n	5f90 <__sflags+0x38>
    5f68:	f44f 7402 	mov.w	r4, #520	; 0x208
    5f6c:	2301      	movs	r3, #1
    5f6e:	f44f 7084 	mov.w	r0, #264	; 0x108
    5f72:	e003      	b.n	5f7c <__sflags+0x24>
    5f74:	f44f 64c0 	mov.w	r4, #1536	; 0x600
    5f78:	2301      	movs	r3, #1
    5f7a:	2008      	movs	r0, #8
    5f7c:	f811 5f01 	ldrb.w	r5, [r1, #1]!
    5f80:	b955      	cbnz	r5, 5f98 <__sflags+0x40>
    5f82:	4323      	orrs	r3, r4
    5f84:	6013      	str	r3, [r2, #0]
    5f86:	bd30      	pop	{r4, r5, pc}
    5f88:	2400      	movs	r4, #0
    5f8a:	2004      	movs	r0, #4
    5f8c:	4623      	mov	r3, r4
    5f8e:	e7f5      	b.n	5f7c <__sflags+0x24>
    5f90:	2316      	movs	r3, #22
    5f92:	6003      	str	r3, [r0, #0]
    5f94:	2000      	movs	r0, #0
    5f96:	bd30      	pop	{r4, r5, pc}
    5f98:	2d62      	cmp	r5, #98	; 0x62
    5f9a:	d00c      	beq.n	5fb6 <__sflags+0x5e>
    5f9c:	2d78      	cmp	r5, #120	; 0x78
    5f9e:	d00d      	beq.n	5fbc <__sflags+0x64>
    5fa0:	2d2b      	cmp	r5, #43	; 0x2b
    5fa2:	d1eb      	bne.n	5f7c <__sflags+0x24>
    5fa4:	f020 001c 	bic.w	r0, r0, #28
    5fa8:	f023 0303 	bic.w	r3, r3, #3
    5fac:	f040 0010 	orr.w	r0, r0, #16
    5fb0:	f043 0302 	orr.w	r3, r3, #2
    5fb4:	e7e2      	b.n	5f7c <__sflags+0x24>
    5fb6:	f443 3380 	orr.w	r3, r3, #65536	; 0x10000
    5fba:	e7df      	b.n	5f7c <__sflags+0x24>
    5fbc:	f443 6300 	orr.w	r3, r3, #2048	; 0x800
    5fc0:	e7dc      	b.n	5f7c <__sflags+0x24>
	...

00005fc4 <_fstat_r>:
    5fc4:	b538      	push	{r3, r4, r5, lr}
    5fc6:	2300      	movs	r3, #0
    5fc8:	4c06      	ldr	r4, [pc, #24]	; (5fe4 <_fstat_r+0x20>)
    5fca:	4605      	mov	r5, r0
    5fcc:	4608      	mov	r0, r1
    5fce:	4611      	mov	r1, r2
    5fd0:	6023      	str	r3, [r4, #0]
    5fd2:	f7fc f9c3 	bl	235c <_fstat>
    5fd6:	1c43      	adds	r3, r0, #1
    5fd8:	d102      	bne.n	5fe0 <_fstat_r+0x1c>
    5fda:	6823      	ldr	r3, [r4, #0]
    5fdc:	b103      	cbz	r3, 5fe0 <_fstat_r+0x1c>
    5fde:	602b      	str	r3, [r5, #0]
    5fe0:	bd38      	pop	{r3, r4, r5, pc}
    5fe2:	bf00      	nop
    5fe4:	100007c4 	.word	0x100007c4

00005fe8 <_isatty_r>:
    5fe8:	b538      	push	{r3, r4, r5, lr}
    5fea:	2300      	movs	r3, #0
    5fec:	4c05      	ldr	r4, [pc, #20]	; (6004 <_isatty_r+0x1c>)
    5fee:	4605      	mov	r5, r0
    5ff0:	4608      	mov	r0, r1
    5ff2:	6023      	str	r3, [r4, #0]
    5ff4:	f7fa fc84 	bl	900 <__wrap__isatty>
    5ff8:	1c43      	adds	r3, r0, #1
    5ffa:	d102      	bne.n	6002 <_isatty_r+0x1a>
    5ffc:	6823      	ldr	r3, [r4, #0]
    5ffe:	b103      	cbz	r3, 6002 <_isatty_r+0x1a>
    6000:	602b      	str	r3, [r5, #0]
    6002:	bd38      	pop	{r3, r4, r5, pc}
    6004:	100007c4 	.word	0x100007c4

00006008 <__locale_ctype_ptr_l>:
    6008:	f8d0 00ec 	ldr.w	r0, [r0, #236]	; 0xec
    600c:	4770      	bx	lr
	...

00006010 <__locale_ctype_ptr>:
    6010:	4b04      	ldr	r3, [pc, #16]	; (6024 <__locale_ctype_ptr+0x14>)
    6012:	4a05      	ldr	r2, [pc, #20]	; (6028 <__locale_ctype_ptr+0x18>)
    6014:	681b      	ldr	r3, [r3, #0]
    6016:	6a1b      	ldr	r3, [r3, #32]
    6018:	2b00      	cmp	r3, #0
    601a:	bf08      	it	eq
    601c:	4613      	moveq	r3, r2
    601e:	f8d3 00ec 	ldr.w	r0, [r3, #236]	; 0xec
    6022:	4770      	bx	lr
    6024:	100000d4 	.word	0x100000d4
    6028:	10000138 	.word	0x10000138

0000602c <_localeconv_r>:
    602c:	4b04      	ldr	r3, [pc, #16]	; (6040 <_localeconv_r+0x14>)
    602e:	681b      	ldr	r3, [r3, #0]
    6030:	6a18      	ldr	r0, [r3, #32]
    6032:	4b04      	ldr	r3, [pc, #16]	; (6044 <_localeconv_r+0x18>)
    6034:	2800      	cmp	r0, #0
    6036:	bf08      	it	eq
    6038:	4618      	moveq	r0, r3
    603a:	30f0      	adds	r0, #240	; 0xf0
    603c:	4770      	bx	lr
    603e:	bf00      	nop
    6040:	100000d4 	.word	0x100000d4
    6044:	10000138 	.word	0x10000138

00006048 <_lseek_r>:
    6048:	b538      	push	{r3, r4, r5, lr}
    604a:	4605      	mov	r5, r0
    604c:	4608      	mov	r0, r1
    604e:	4611      	mov	r1, r2
    6050:	2200      	movs	r2, #0
    6052:	4c05      	ldr	r4, [pc, #20]	; (6068 <_lseek_r+0x20>)
    6054:	6022      	str	r2, [r4, #0]
    6056:	461a      	mov	r2, r3
    6058:	f7fc f962 	bl	2320 <_lseek>
    605c:	1c43      	adds	r3, r0, #1
    605e:	d102      	bne.n	6066 <_lseek_r+0x1e>
    6060:	6823      	ldr	r3, [r4, #0]
    6062:	b103      	cbz	r3, 6066 <_lseek_r+0x1e>
    6064:	602b      	str	r3, [r5, #0]
    6066:	bd38      	pop	{r3, r4, r5, pc}
    6068:	100007c4 	.word	0x100007c4

0000606c <__ascii_mbtowc>:
    606c:	b082      	sub	sp, #8
    606e:	b901      	cbnz	r1, 6072 <__ascii_mbtowc+0x6>
    6070:	a901      	add	r1, sp, #4
    6072:	b142      	cbz	r2, 6086 <__ascii_mbtowc+0x1a>
    6074:	b14b      	cbz	r3, 608a <__ascii_mbtowc+0x1e>
    6076:	7813      	ldrb	r3, [r2, #0]
    6078:	600b      	str	r3, [r1, #0]
    607a:	7812      	ldrb	r2, [r2, #0]
    607c:	1c10      	adds	r0, r2, #0
    607e:	bf18      	it	ne
    6080:	2001      	movne	r0, #1
    6082:	b002      	add	sp, #8
    6084:	4770      	bx	lr
    6086:	4610      	mov	r0, r2
    6088:	e7fb      	b.n	6082 <__ascii_mbtowc+0x16>
    608a:	f06f 0001 	mvn.w	r0, #1
    608e:	e7f8      	b.n	6082 <__ascii_mbtowc+0x16>

00006090 <memmove>:
    6090:	4288      	cmp	r0, r1
    6092:	b510      	push	{r4, lr}
    6094:	eb01 0302 	add.w	r3, r1, r2
    6098:	d803      	bhi.n	60a2 <memmove+0x12>
    609a:	1e42      	subs	r2, r0, #1
    609c:	4299      	cmp	r1, r3
    609e:	d10c      	bne.n	60ba <memmove+0x2a>
    60a0:	bd10      	pop	{r4, pc}
    60a2:	4298      	cmp	r0, r3
    60a4:	d2f9      	bcs.n	609a <memmove+0xa>
    60a6:	1881      	adds	r1, r0, r2
    60a8:	1ad2      	subs	r2, r2, r3
    60aa:	42d3      	cmn	r3, r2
    60ac:	d100      	bne.n	60b0 <memmove+0x20>
    60ae:	bd10      	pop	{r4, pc}
    60b0:	f813 4d01 	ldrb.w	r4, [r3, #-1]!
    60b4:	f801 4d01 	strb.w	r4, [r1, #-1]!
    60b8:	e7f7      	b.n	60aa <memmove+0x1a>
    60ba:	f811 4b01 	ldrb.w	r4, [r1], #1
    60be:	f802 4f01 	strb.w	r4, [r2, #1]!
    60c2:	e7eb      	b.n	609c <memmove+0xc>

000060c4 <_Balloc>:
    60c4:	b570      	push	{r4, r5, r6, lr}
    60c6:	6a45      	ldr	r5, [r0, #36]	; 0x24
    60c8:	4604      	mov	r4, r0
    60ca:	460e      	mov	r6, r1
    60cc:	b93d      	cbnz	r5, 60de <_Balloc+0x1a>
    60ce:	2010      	movs	r0, #16
    60d0:	f7fd fcce 	bl	3a70 <malloc>
    60d4:	6260      	str	r0, [r4, #36]	; 0x24
    60d6:	6045      	str	r5, [r0, #4]
    60d8:	6085      	str	r5, [r0, #8]
    60da:	6005      	str	r5, [r0, #0]
    60dc:	60c5      	str	r5, [r0, #12]
    60de:	6a65      	ldr	r5, [r4, #36]	; 0x24
    60e0:	68eb      	ldr	r3, [r5, #12]
    60e2:	b183      	cbz	r3, 6106 <_Balloc+0x42>
    60e4:	6a63      	ldr	r3, [r4, #36]	; 0x24
    60e6:	68db      	ldr	r3, [r3, #12]
    60e8:	f853 0026 	ldr.w	r0, [r3, r6, lsl #2]
    60ec:	b9b8      	cbnz	r0, 611e <_Balloc+0x5a>
    60ee:	2101      	movs	r1, #1
    60f0:	fa01 f506 	lsl.w	r5, r1, r6
    60f4:	1d6a      	adds	r2, r5, #5
    60f6:	0092      	lsls	r2, r2, #2
    60f8:	4620      	mov	r0, r4
    60fa:	f7fc f843 	bl	2184 <__wrap__calloc_r>
    60fe:	b160      	cbz	r0, 611a <_Balloc+0x56>
    6100:	6046      	str	r6, [r0, #4]
    6102:	6085      	str	r5, [r0, #8]
    6104:	e00e      	b.n	6124 <_Balloc+0x60>
    6106:	2221      	movs	r2, #33	; 0x21
    6108:	2104      	movs	r1, #4
    610a:	4620      	mov	r0, r4
    610c:	f7fc f83a 	bl	2184 <__wrap__calloc_r>
    6110:	6a63      	ldr	r3, [r4, #36]	; 0x24
    6112:	60e8      	str	r0, [r5, #12]
    6114:	68db      	ldr	r3, [r3, #12]
    6116:	2b00      	cmp	r3, #0
    6118:	d1e4      	bne.n	60e4 <_Balloc+0x20>
    611a:	2000      	movs	r0, #0
    611c:	bd70      	pop	{r4, r5, r6, pc}
    611e:	6802      	ldr	r2, [r0, #0]
    6120:	f843 2026 	str.w	r2, [r3, r6, lsl #2]
    6124:	2300      	movs	r3, #0
    6126:	6103      	str	r3, [r0, #16]
    6128:	60c3      	str	r3, [r0, #12]
    612a:	bd70      	pop	{r4, r5, r6, pc}

0000612c <_Bfree>:
    612c:	b570      	push	{r4, r5, r6, lr}
    612e:	6a44      	ldr	r4, [r0, #36]	; 0x24
    6130:	4606      	mov	r6, r0
    6132:	460d      	mov	r5, r1
    6134:	b93c      	cbnz	r4, 6146 <_Bfree+0x1a>
    6136:	2010      	movs	r0, #16
    6138:	f7fd fc9a 	bl	3a70 <malloc>
    613c:	6270      	str	r0, [r6, #36]	; 0x24
    613e:	6044      	str	r4, [r0, #4]
    6140:	6084      	str	r4, [r0, #8]
    6142:	6004      	str	r4, [r0, #0]
    6144:	60c4      	str	r4, [r0, #12]
    6146:	b13d      	cbz	r5, 6158 <_Bfree+0x2c>
    6148:	6a73      	ldr	r3, [r6, #36]	; 0x24
    614a:	686a      	ldr	r2, [r5, #4]
    614c:	68db      	ldr	r3, [r3, #12]
    614e:	f853 1022 	ldr.w	r1, [r3, r2, lsl #2]
    6152:	6029      	str	r1, [r5, #0]
    6154:	f843 5022 	str.w	r5, [r3, r2, lsl #2]
    6158:	bd70      	pop	{r4, r5, r6, pc}

0000615a <__multadd>:
    615a:	e92d 41f0 	stmdb	sp!, {r4, r5, r6, r7, r8, lr}
    615e:	461f      	mov	r7, r3
    6160:	4606      	mov	r6, r0
    6162:	460c      	mov	r4, r1
    6164:	2300      	movs	r3, #0
    6166:	690d      	ldr	r5, [r1, #16]
    6168:	f101 0e14 	add.w	lr, r1, #20
    616c:	f8de 0000 	ldr.w	r0, [lr]
    6170:	3301      	adds	r3, #1
    6172:	b281      	uxth	r1, r0
    6174:	fb02 7101 	mla	r1, r2, r1, r7
    6178:	0c00      	lsrs	r0, r0, #16
    617a:	0c0f      	lsrs	r7, r1, #16
    617c:	fb02 7000 	mla	r0, r2, r0, r7
    6180:	b289      	uxth	r1, r1
    6182:	eb01 4100 	add.w	r1, r1, r0, lsl #16
    6186:	429d      	cmp	r5, r3
    6188:	ea4f 4710 	mov.w	r7, r0, lsr #16
    618c:	f84e 1b04 	str.w	r1, [lr], #4
    6190:	dcec      	bgt.n	616c <__multadd+0x12>
    6192:	b1d7      	cbz	r7, 61ca <__multadd+0x70>
    6194:	68a3      	ldr	r3, [r4, #8]
    6196:	429d      	cmp	r5, r3
    6198:	db12      	blt.n	61c0 <__multadd+0x66>
    619a:	6861      	ldr	r1, [r4, #4]
    619c:	4630      	mov	r0, r6
    619e:	3101      	adds	r1, #1
    61a0:	f7ff ff90 	bl	60c4 <_Balloc>
    61a4:	4680      	mov	r8, r0
    61a6:	6922      	ldr	r2, [r4, #16]
    61a8:	f104 010c 	add.w	r1, r4, #12
    61ac:	3202      	adds	r2, #2
    61ae:	0092      	lsls	r2, r2, #2
    61b0:	300c      	adds	r0, #12
    61b2:	f7fd fc7b 	bl	3aac <memcpy>
    61b6:	4621      	mov	r1, r4
    61b8:	4630      	mov	r0, r6
    61ba:	f7ff ffb7 	bl	612c <_Bfree>
    61be:	4644      	mov	r4, r8
    61c0:	eb04 0385 	add.w	r3, r4, r5, lsl #2
    61c4:	3501      	adds	r5, #1
    61c6:	615f      	str	r7, [r3, #20]
    61c8:	6125      	str	r5, [r4, #16]
    61ca:	4620      	mov	r0, r4
    61cc:	e8bd 81f0 	ldmia.w	sp!, {r4, r5, r6, r7, r8, pc}

000061d0 <__hi0bits>:
    61d0:	0c02      	lsrs	r2, r0, #16
    61d2:	0412      	lsls	r2, r2, #16
    61d4:	4603      	mov	r3, r0
    61d6:	b9b2      	cbnz	r2, 6206 <__hi0bits+0x36>
    61d8:	0403      	lsls	r3, r0, #16
    61da:	2010      	movs	r0, #16
    61dc:	f013 4f7f 	tst.w	r3, #4278190080	; 0xff000000
    61e0:	bf04      	itt	eq
    61e2:	021b      	lsleq	r3, r3, #8
    61e4:	3008      	addeq	r0, #8
    61e6:	f013 4f70 	tst.w	r3, #4026531840	; 0xf0000000
    61ea:	bf04      	itt	eq
    61ec:	011b      	lsleq	r3, r3, #4
    61ee:	3004      	addeq	r0, #4
    61f0:	f013 4f40 	tst.w	r3, #3221225472	; 0xc0000000
    61f4:	bf04      	itt	eq
    61f6:	009b      	lsleq	r3, r3, #2
    61f8:	3002      	addeq	r0, #2
    61fa:	2b00      	cmp	r3, #0
    61fc:	db06      	blt.n	620c <__hi0bits+0x3c>
    61fe:	005b      	lsls	r3, r3, #1
    6200:	d503      	bpl.n	620a <__hi0bits+0x3a>
    6202:	3001      	adds	r0, #1
    6204:	4770      	bx	lr
    6206:	2000      	movs	r0, #0
    6208:	e7e8      	b.n	61dc <__hi0bits+0xc>
    620a:	2020      	movs	r0, #32
    620c:	4770      	bx	lr

0000620e <__lo0bits>:
    620e:	6803      	ldr	r3, [r0, #0]
    6210:	4601      	mov	r1, r0
    6212:	f013 0207 	ands.w	r2, r3, #7
    6216:	d00b      	beq.n	6230 <__lo0bits+0x22>
    6218:	07da      	lsls	r2, r3, #31
    621a:	d423      	bmi.n	6264 <__lo0bits+0x56>
    621c:	0798      	lsls	r0, r3, #30
    621e:	bf49      	itett	mi
    6220:	085b      	lsrmi	r3, r3, #1
    6222:	089b      	lsrpl	r3, r3, #2
    6224:	2001      	movmi	r0, #1
    6226:	600b      	strmi	r3, [r1, #0]
    6228:	bf5c      	itt	pl
    622a:	600b      	strpl	r3, [r1, #0]
    622c:	2002      	movpl	r0, #2
    622e:	4770      	bx	lr
    6230:	b298      	uxth	r0, r3
    6232:	b9a8      	cbnz	r0, 6260 <__lo0bits+0x52>
    6234:	2010      	movs	r0, #16
    6236:	0c1b      	lsrs	r3, r3, #16
    6238:	f013 0fff 	tst.w	r3, #255	; 0xff
    623c:	bf04      	itt	eq
    623e:	0a1b      	lsreq	r3, r3, #8
    6240:	3008      	addeq	r0, #8
    6242:	071a      	lsls	r2, r3, #28
    6244:	bf04      	itt	eq
    6246:	091b      	lsreq	r3, r3, #4
    6248:	3004      	addeq	r0, #4
    624a:	079a      	lsls	r2, r3, #30
    624c:	bf04      	itt	eq
    624e:	089b      	lsreq	r3, r3, #2
    6250:	3002      	addeq	r0, #2
    6252:	07da      	lsls	r2, r3, #31
    6254:	d402      	bmi.n	625c <__lo0bits+0x4e>
    6256:	085b      	lsrs	r3, r3, #1
    6258:	d006      	beq.n	6268 <__lo0bits+0x5a>
    625a:	3001      	adds	r0, #1
    625c:	600b      	str	r3, [r1, #0]
    625e:	4770      	bx	lr
    6260:	4610      	mov	r0, r2
    6262:	e7e9      	b.n	6238 <__lo0bits+0x2a>
    6264:	2000      	movs	r0, #0
    6266:	4770      	bx	lr
    6268:	2020      	movs	r0, #32
    626a:	4770      	bx	lr

0000626c <__i2b>:
    626c:	b510      	push	{r4, lr}
    626e:	460c      	mov	r4, r1
    6270:	2101      	movs	r1, #1
    6272:	f7ff ff27 	bl	60c4 <_Balloc>
    6276:	2201      	movs	r2, #1
    6278:	6144      	str	r4, [r0, #20]
    627a:	6102      	str	r2, [r0, #16]
    627c:	bd10      	pop	{r4, pc}

0000627e <__multiply>:
    627e:	e92d 4ff7 	stmdb	sp!, {r0, r1, r2, r4, r5, r6, r7, r8, r9, r10, r11, lr}
    6282:	4614      	mov	r4, r2
    6284:	690a      	ldr	r2, [r1, #16]
    6286:	6923      	ldr	r3, [r4, #16]
    6288:	4689      	mov	r9, r1
    628a:	429a      	cmp	r2, r3
    628c:	bfbe      	ittt	lt
    628e:	460b      	movlt	r3, r1
    6290:	46a1      	movlt	r9, r4
    6292:	461c      	movlt	r4, r3
    6294:	f8d9 7010 	ldr.w	r7, [r9, #16]
    6298:	f8d4 a010 	ldr.w	r10, [r4, #16]
    629c:	f8d9 3008 	ldr.w	r3, [r9, #8]
    62a0:	f8d9 1004 	ldr.w	r1, [r9, #4]
    62a4:	eb07 060a 	add.w	r6, r7, r10
    62a8:	429e      	cmp	r6, r3
    62aa:	bfc8      	it	gt
    62ac:	3101      	addgt	r1, #1
    62ae:	f7ff ff09 	bl	60c4 <_Balloc>
    62b2:	f100 0514 	add.w	r5, r0, #20
    62b6:	462b      	mov	r3, r5
    62b8:	2200      	movs	r2, #0
    62ba:	eb05 0886 	add.w	r8, r5, r6, lsl #2
    62be:	4543      	cmp	r3, r8
    62c0:	d316      	bcc.n	62f0 <__multiply+0x72>
    62c2:	f104 0214 	add.w	r2, r4, #20
    62c6:	f109 0114 	add.w	r1, r9, #20
    62ca:	eb02 038a 	add.w	r3, r2, r10, lsl #2
    62ce:	eb01 0787 	add.w	r7, r1, r7, lsl #2
    62d2:	9301      	str	r3, [sp, #4]
    62d4:	9c01      	ldr	r4, [sp, #4]
    62d6:	4613      	mov	r3, r2
    62d8:	4294      	cmp	r4, r2
    62da:	d80c      	bhi.n	62f6 <__multiply+0x78>
    62dc:	2e00      	cmp	r6, #0
    62de:	dd03      	ble.n	62e8 <__multiply+0x6a>
    62e0:	f858 3d04 	ldr.w	r3, [r8, #-4]!
    62e4:	2b00      	cmp	r3, #0
    62e6:	d054      	beq.n	6392 <__multiply+0x114>
    62e8:	6106      	str	r6, [r0, #16]
    62ea:	b003      	add	sp, #12
    62ec:	e8bd 8ff0 	ldmia.w	sp!, {r4, r5, r6, r7, r8, r9, r10, r11, pc}
    62f0:	f843 2b04 	str.w	r2, [r3], #4
    62f4:	e7e3      	b.n	62be <__multiply+0x40>
    62f6:	f8b3 a000 	ldrh.w	r10, [r3]
    62fa:	3204      	adds	r2, #4
    62fc:	f1ba 0f00 	cmp.w	r10, #0
    6300:	d020      	beq.n	6344 <__multiply+0xc6>
    6302:	46ae      	mov	lr, r5
    6304:	4689      	mov	r9, r1
    6306:	f04f 0c00 	mov.w	r12, #0
    630a:	f859 4b04 	ldr.w	r4, [r9], #4
    630e:	f8be b000 	ldrh.w	r11, [lr]
    6312:	b2a3      	uxth	r3, r4
    6314:	fb0a b303 	mla	r3, r10, r3, r11
    6318:	ea4f 4b14 	mov.w	r11, r4, lsr #16
    631c:	f8de 4000 	ldr.w	r4, [lr]
    6320:	4463      	add	r3, r12
    6322:	ea4f 4c14 	mov.w	r12, r4, lsr #16
    6326:	fb0a c40b 	mla	r4, r10, r11, r12
    632a:	eb04 4413 	add.w	r4, r4, r3, lsr #16
    632e:	b29b      	uxth	r3, r3
    6330:	ea43 4304 	orr.w	r3, r3, r4, lsl #16
    6334:	454f      	cmp	r7, r9
    6336:	ea4f 4c14 	mov.w	r12, r4, lsr #16
    633a:	f84e 3b04 	str.w	r3, [lr], #4
    633e:	d8e4      	bhi.n	630a <__multiply+0x8c>
    6340:	f8ce c000 	str.w	r12, [lr]
    6344:	f832 9c02 	ldrh.w	r9, [r2, #-2]
    6348:	f1b9 0f00 	cmp.w	r9, #0
    634c:	d01f      	beq.n	638e <__multiply+0x110>
    634e:	46ae      	mov	lr, r5
    6350:	468c      	mov	r12, r1
    6352:	f04f 0a00 	mov.w	r10, #0
    6356:	682b      	ldr	r3, [r5, #0]
    6358:	f8bc 4000 	ldrh.w	r4, [r12]
    635c:	f8be b002 	ldrh.w	r11, [lr, #2]
    6360:	b29b      	uxth	r3, r3
    6362:	fb09 b404 	mla	r4, r9, r4, r11
    6366:	44a2      	add	r10, r4
    6368:	ea43 430a 	orr.w	r3, r3, r10, lsl #16
    636c:	f84e 3b04 	str.w	r3, [lr], #4
    6370:	f85c 3b04 	ldr.w	r3, [r12], #4
    6374:	f8be 4000 	ldrh.w	r4, [lr]
    6378:	0c1b      	lsrs	r3, r3, #16
    637a:	fb09 4303 	mla	r3, r9, r3, r4
    637e:	4567      	cmp	r7, r12
    6380:	eb03 431a 	add.w	r3, r3, r10, lsr #16
    6384:	ea4f 4a13 	mov.w	r10, r3, lsr #16
    6388:	d8e6      	bhi.n	6358 <__multiply+0xda>
    638a:	f8ce 3000 	str.w	r3, [lr]
    638e:	3504      	adds	r5, #4
    6390:	e7a0      	b.n	62d4 <__multiply+0x56>
    6392:	3e01      	subs	r6, #1
    6394:	e7a2      	b.n	62dc <__multiply+0x5e>
	...

00006398 <__pow5mult>:
    6398:	e92d 43f8 	stmdb	sp!, {r3, r4, r5, r6, r7, r8, r9, lr}
    639c:	4615      	mov	r5, r2
    639e:	f012 0203 	ands.w	r2, r2, #3
    63a2:	4606      	mov	r6, r0
    63a4:	460f      	mov	r7, r1
    63a6:	d007      	beq.n	63b8 <__pow5mult+0x20>
    63a8:	4c21      	ldr	r4, [pc, #132]	; (6430 <__pow5mult+0x98>)
    63aa:	3a01      	subs	r2, #1
    63ac:	2300      	movs	r3, #0
    63ae:	f854 2022 	ldr.w	r2, [r4, r2, lsl #2]
    63b2:	f7ff fed2 	bl	615a <__multadd>
    63b6:	4607      	mov	r7, r0
    63b8:	10ad      	asrs	r5, r5, #2
    63ba:	d035      	beq.n	6428 <__pow5mult+0x90>
    63bc:	6a74      	ldr	r4, [r6, #36]	; 0x24
    63be:	b93c      	cbnz	r4, 63d0 <__pow5mult+0x38>
    63c0:	2010      	movs	r0, #16
    63c2:	f7fd fb55 	bl	3a70 <malloc>
    63c6:	6270      	str	r0, [r6, #36]	; 0x24
    63c8:	6044      	str	r4, [r0, #4]
    63ca:	6084      	str	r4, [r0, #8]
    63cc:	6004      	str	r4, [r0, #0]
    63ce:	60c4      	str	r4, [r0, #12]
    63d0:	f8d6 8024 	ldr.w	r8, [r6, #36]	; 0x24
    63d4:	f8d8 4008 	ldr.w	r4, [r8, #8]
    63d8:	b94c      	cbnz	r4, 63ee <__pow5mult+0x56>
    63da:	f240 2171 	movw	r1, #625	; 0x271
    63de:	4630      	mov	r0, r6
    63e0:	f7ff ff44 	bl	626c <__i2b>
    63e4:	2300      	movs	r3, #0
    63e6:	4604      	mov	r4, r0
    63e8:	f8c8 0008 	str.w	r0, [r8, #8]
    63ec:	6003      	str	r3, [r0, #0]
    63ee:	f04f 0800 	mov.w	r8, #0
    63f2:	07eb      	lsls	r3, r5, #31
    63f4:	d50a      	bpl.n	640c <__pow5mult+0x74>
    63f6:	4639      	mov	r1, r7
    63f8:	4622      	mov	r2, r4
    63fa:	4630      	mov	r0, r6
    63fc:	f7ff ff3f 	bl	627e <__multiply>
    6400:	4681      	mov	r9, r0
    6402:	4639      	mov	r1, r7
    6404:	4630      	mov	r0, r6
    6406:	f7ff fe91 	bl	612c <_Bfree>
    640a:	464f      	mov	r7, r9
    640c:	106d      	asrs	r5, r5, #1
    640e:	d00b      	beq.n	6428 <__pow5mult+0x90>
    6410:	6820      	ldr	r0, [r4, #0]
    6412:	b938      	cbnz	r0, 6424 <__pow5mult+0x8c>
    6414:	4622      	mov	r2, r4
    6416:	4621      	mov	r1, r4
    6418:	4630      	mov	r0, r6
    641a:	f7ff ff30 	bl	627e <__multiply>
    641e:	6020      	str	r0, [r4, #0]
    6420:	f8c0 8000 	str.w	r8, [r0]
    6424:	4604      	mov	r4, r0
    6426:	e7e4      	b.n	63f2 <__pow5mult+0x5a>
    6428:	4638      	mov	r0, r7
    642a:	e8bd 83f8 	ldmia.w	sp!, {r3, r4, r5, r6, r7, r8, r9, pc}
    642e:	bf00      	nop
    6430:	00007510 	.word	0x00007510

00006434 <__lshift>:
    6434:	e92d 47f0 	stmdb	sp!, {r4, r5, r6, r7, r8, r9, r10, lr}
    6438:	460c      	mov	r4, r1
    643a:	4607      	mov	r7, r0
    643c:	4616      	mov	r6, r2
    643e:	6923      	ldr	r3, [r4, #16]
    6440:	ea4f 1a62 	mov.w	r10, r2, asr #5
    6444:	eb0a 0903 	add.w	r9, r10, r3
    6448:	6849      	ldr	r1, [r1, #4]
    644a:	68a3      	ldr	r3, [r4, #8]
    644c:	f109 0501 	add.w	r5, r9, #1
    6450:	42ab      	cmp	r3, r5
    6452:	db31      	blt.n	64b8 <__lshift+0x84>
    6454:	4638      	mov	r0, r7
    6456:	f7ff fe35 	bl	60c4 <_Balloc>
    645a:	2200      	movs	r2, #0
    645c:	4680      	mov	r8, r0
    645e:	4611      	mov	r1, r2
    6460:	f100 0314 	add.w	r3, r0, #20
    6464:	4552      	cmp	r2, r10
    6466:	db2a      	blt.n	64be <__lshift+0x8a>
    6468:	6920      	ldr	r0, [r4, #16]
    646a:	ea2a 7aea 	bic.w	r10, r10, r10, asr #31
    646e:	f104 0114 	add.w	r1, r4, #20
    6472:	f016 021f 	ands.w	r2, r6, #31
    6476:	eb03 038a 	add.w	r3, r3, r10, lsl #2
    647a:	eb01 0e80 	add.w	lr, r1, r0, lsl #2
    647e:	d022      	beq.n	64c6 <__lshift+0x92>
    6480:	2000      	movs	r0, #0
    6482:	f1c2 0c20 	rsb	r12, r2, #32
    6486:	680e      	ldr	r6, [r1, #0]
    6488:	4096      	lsls	r6, r2
    648a:	4330      	orrs	r0, r6
    648c:	f843 0b04 	str.w	r0, [r3], #4
    6490:	f851 0b04 	ldr.w	r0, [r1], #4
    6494:	458e      	cmp	lr, r1
    6496:	fa20 f00c 	lsr.w	r0, r0, r12
    649a:	d8f4      	bhi.n	6486 <__lshift+0x52>
    649c:	6018      	str	r0, [r3, #0]
    649e:	b108      	cbz	r0, 64a4 <__lshift+0x70>
    64a0:	f109 0502 	add.w	r5, r9, #2
    64a4:	3d01      	subs	r5, #1
    64a6:	4638      	mov	r0, r7
    64a8:	f8c8 5010 	str.w	r5, [r8, #16]
    64ac:	4621      	mov	r1, r4
    64ae:	f7ff fe3d 	bl	612c <_Bfree>
    64b2:	4640      	mov	r0, r8
    64b4:	e8bd 87f0 	ldmia.w	sp!, {r4, r5, r6, r7, r8, r9, r10, pc}
    64b8:	3101      	adds	r1, #1
    64ba:	005b      	lsls	r3, r3, #1
    64bc:	e7c8      	b.n	6450 <__lshift+0x1c>
    64be:	f843 1022 	str.w	r1, [r3, r2, lsl #2]
    64c2:	3201      	adds	r2, #1
    64c4:	e7ce      	b.n	6464 <__lshift+0x30>
    64c6:	3b04      	subs	r3, #4
    64c8:	f851 2b04 	ldr.w	r2, [r1], #4
    64cc:	458e      	cmp	lr, r1
    64ce:	f843 2f04 	str.w	r2, [r3, #4]!
    64d2:	d8f9      	bhi.n	64c8 <__lshift+0x94>
    64d4:	e7e6      	b.n	64a4 <__lshift+0x70>

000064d6 <__mcmp>:
    64d6:	6903      	ldr	r3, [r0, #16]
    64d8:	690a      	ldr	r2, [r1, #16]
    64da:	b530      	push	{r4, r5, lr}
    64dc:	1a9b      	subs	r3, r3, r2
    64de:	d10c      	bne.n	64fa <__mcmp+0x24>
    64e0:	0092      	lsls	r2, r2, #2
    64e2:	3014      	adds	r0, #20
    64e4:	3114      	adds	r1, #20
    64e6:	1884      	adds	r4, r0, r2
    64e8:	4411      	add	r1, r2
    64ea:	f854 5d04 	ldr.w	r5, [r4, #-4]!
    64ee:	f851 2d04 	ldr.w	r2, [r1, #-4]!
    64f2:	4295      	cmp	r5, r2
    64f4:	d003      	beq.n	64fe <__mcmp+0x28>
    64f6:	d305      	bcc.n	6504 <__mcmp+0x2e>
    64f8:	2301      	movs	r3, #1
    64fa:	4618      	mov	r0, r3
    64fc:	bd30      	pop	{r4, r5, pc}
    64fe:	42a0      	cmp	r0, r4
    6500:	d3f3      	bcc.n	64ea <__mcmp+0x14>
    6502:	e7fa      	b.n	64fa <__mcmp+0x24>
    6504:	f04f 33ff 	mov.w	r3, #4294967295	; 0xffffffff
    6508:	e7f7      	b.n	64fa <__mcmp+0x24>

0000650a <__mdiff>:
    650a:	e92d 47f0 	stmdb	sp!, {r4, r5, r6, r7, r8, r9, r10, lr}
    650e:	460d      	mov	r5, r1
    6510:	4607      	mov	r7, r0
    6512:	4611      	mov	r1, r2
    6514:	4628      	mov	r0, r5
    6516:	4614      	mov	r4, r2
    6518:	f7ff ffdd 	bl	64d6 <__mcmp>
    651c:	1e06      	subs	r6, r0, #0
    651e:	d108      	bne.n	6532 <__mdiff+0x28>
    6520:	4631      	mov	r1, r6
    6522:	4638      	mov	r0, r7
    6524:	f7ff fdce 	bl	60c4 <_Balloc>
    6528:	2301      	movs	r3, #1
    652a:	6146      	str	r6, [r0, #20]
    652c:	6103      	str	r3, [r0, #16]
    652e:	e8bd 87f0 	ldmia.w	sp!, {r4, r5, r6, r7, r8, r9, r10, pc}
    6532:	bfa4      	itt	ge
    6534:	4623      	movge	r3, r4
    6536:	462c      	movge	r4, r5
    6538:	4638      	mov	r0, r7
    653a:	6861      	ldr	r1, [r4, #4]
    653c:	bfa6      	itte	ge
    653e:	461d      	movge	r5, r3
    6540:	2600      	movge	r6, #0
    6542:	2601      	movlt	r6, #1
    6544:	f7ff fdbe 	bl	60c4 <_Balloc>
    6548:	f04f 0c00 	mov.w	r12, #0
    654c:	60c6      	str	r6, [r0, #12]
    654e:	692b      	ldr	r3, [r5, #16]
    6550:	6926      	ldr	r6, [r4, #16]
    6552:	f104 0214 	add.w	r2, r4, #20
    6556:	f105 0914 	add.w	r9, r5, #20
    655a:	eb02 0786 	add.w	r7, r2, r6, lsl #2
    655e:	eb09 0883 	add.w	r8, r9, r3, lsl #2
    6562:	f100 0114 	add.w	r1, r0, #20
    6566:	f852 ab04 	ldr.w	r10, [r2], #4
    656a:	f859 5b04 	ldr.w	r5, [r9], #4
    656e:	fa1f f38a 	uxth.w	r3, r10
    6572:	4463      	add	r3, r12
    6574:	b2ac      	uxth	r4, r5
    6576:	1b1b      	subs	r3, r3, r4
    6578:	0c2c      	lsrs	r4, r5, #16
    657a:	ebc4 441a 	rsb	r4, r4, r10, lsr #16
    657e:	eb04 4423 	add.w	r4, r4, r3, asr #16
    6582:	b29b      	uxth	r3, r3
    6584:	ea4f 4c24 	mov.w	r12, r4, asr #16
    6588:	45c8      	cmp	r8, r9
    658a:	ea43 4404 	orr.w	r4, r3, r4, lsl #16
    658e:	4696      	mov	lr, r2
    6590:	f841 4b04 	str.w	r4, [r1], #4
    6594:	d8e7      	bhi.n	6566 <__mdiff+0x5c>
    6596:	45be      	cmp	lr, r7
    6598:	d305      	bcc.n	65a6 <__mdiff+0x9c>
    659a:	f851 3d04 	ldr.w	r3, [r1, #-4]!
    659e:	b18b      	cbz	r3, 65c4 <__mdiff+0xba>
    65a0:	6106      	str	r6, [r0, #16]
    65a2:	e8bd 87f0 	ldmia.w	sp!, {r4, r5, r6, r7, r8, r9, r10, pc}
    65a6:	f85e 4b04 	ldr.w	r4, [lr], #4
    65aa:	b2a2      	uxth	r2, r4
    65ac:	4462      	add	r2, r12
    65ae:	1413      	asrs	r3, r2, #16
    65b0:	eb03 4314 	add.w	r3, r3, r4, lsr #16
    65b4:	b292      	uxth	r2, r2
    65b6:	ea42 4203 	orr.w	r2, r2, r3, lsl #16
    65ba:	ea4f 4c23 	mov.w	r12, r3, asr #16
    65be:	f841 2b04 	str.w	r2, [r1], #4
    65c2:	e7e8      	b.n	6596 <__mdiff+0x8c>
    65c4:	3e01      	subs	r6, #1
    65c6:	e7e8      	b.n	659a <__mdiff+0x90>

000065c8 <__d2b>:
    65c8:	e92d 41f3 	stmdb	sp!, {r0, r1, r4, r5, r6, r7, r8, lr}
    65cc:	461c      	mov	r4, r3
    65ce:	2101      	movs	r1, #1
    65d0:	4690      	mov	r8, r2
    65d2:	9e08      	ldr	r6, [sp, #32]
    65d4:	9d09      	ldr	r5, [sp, #36]	; 0x24
    65d6:	f7ff fd75 	bl	60c4 <_Balloc>
    65da:	f3c4 0213 	ubfx	r2, r4, #0, #20
    65de:	f3c4 540a 	ubfx	r4, r4, #20, #11
    65e2:	4607      	mov	r7, r0
    65e4:	bb34      	cbnz	r4, 6634 <__d2b+0x6c>
    65e6:	9201      	str	r2, [sp, #4]
    65e8:	f1b8 0f00 	cmp.w	r8, #0
    65ec:	d027      	beq.n	663e <__d2b+0x76>
    65ee:	a802      	add	r0, sp, #8
    65f0:	f840 8d08 	str.w	r8, [r0, #-8]!
    65f4:	f7ff fe0b 	bl	620e <__lo0bits>
    65f8:	9900      	ldr	r1, [sp, #0]
    65fa:	b1f0      	cbz	r0, 663a <__d2b+0x72>
    65fc:	9a01      	ldr	r2, [sp, #4]
    65fe:	f1c0 0320 	rsb	r3, r0, #32
    6602:	fa02 f303 	lsl.w	r3, r2, r3
    6606:	430b      	orrs	r3, r1
    6608:	40c2      	lsrs	r2, r0
    660a:	617b      	str	r3, [r7, #20]
    660c:	9201      	str	r2, [sp, #4]
    660e:	9b01      	ldr	r3, [sp, #4]
    6610:	2b00      	cmp	r3, #0
    6612:	bf14      	ite	ne
    6614:	2102      	movne	r1, #2
    6616:	2101      	moveq	r1, #1
    6618:	61bb      	str	r3, [r7, #24]
    661a:	6139      	str	r1, [r7, #16]
    661c:	b1c4      	cbz	r4, 6650 <__d2b+0x88>
    661e:	f2a4 4433 	subw	r4, r4, #1075	; 0x433
    6622:	4404      	add	r4, r0
    6624:	6034      	str	r4, [r6, #0]
    6626:	f1c0 0035 	rsb	r0, r0, #53	; 0x35
    662a:	6028      	str	r0, [r5, #0]
    662c:	4638      	mov	r0, r7
    662e:	b002      	add	sp, #8
    6630:	e8bd 81f0 	ldmia.w	sp!, {r4, r5, r6, r7, r8, pc}
    6634:	f442 1280 	orr.w	r2, r2, #1048576	; 0x100000
    6638:	e7d5      	b.n	65e6 <__d2b+0x1e>
    663a:	6179      	str	r1, [r7, #20]
    663c:	e7e7      	b.n	660e <__d2b+0x46>
    663e:	a801      	add	r0, sp, #4
    6640:	f7ff fde5 	bl	620e <__lo0bits>
    6644:	2101      	movs	r1, #1
    6646:	9b01      	ldr	r3, [sp, #4]
    6648:	6139      	str	r1, [r7, #16]
    664a:	617b      	str	r3, [r7, #20]
    664c:	3020      	adds	r0, #32
    664e:	e7e5      	b.n	661c <__d2b+0x54>
    6650:	f2a0 4032 	subw	r0, r0, #1074	; 0x432
    6654:	eb07 0381 	add.w	r3, r7, r1, lsl #2
    6658:	6030      	str	r0, [r6, #0]
    665a:	6918      	ldr	r0, [r3, #16]
    665c:	f7ff fdb8 	bl	61d0 <__hi0bits>
    6660:	ebc0 1041 	rsb	r0, r0, r1, lsl #5
    6664:	e7e1      	b.n	662a <__d2b+0x62>

00006666 <_malloc_usable_size_r>:
    6666:	f851 0c04 	ldr.w	r0, [r1, #-4]
    666a:	2800      	cmp	r0, #0
    666c:	f1a0 0004 	sub.w	r0, r0, #4
    6670:	bfbc      	itt	lt
    6672:	580b      	ldrlt	r3, [r1, r0]
    6674:	18c0      	addlt	r0, r0, r3
    6676:	4770      	bx	lr

00006678 <__ssputs_r>:
    6678:	e92d 47f0 	stmdb	sp!, {r4, r5, r6, r7, r8, r9, r10, lr}
    667c:	688e      	ldr	r6, [r1, #8]
    667e:	4682      	mov	r10, r0
    6680:	429e      	cmp	r6, r3
    6682:	460c      	mov	r4, r1
    6684:	4691      	mov	r9, r2
    6686:	4698      	mov	r8, r3
    6688:	d835      	bhi.n	66f6 <__ssputs_r+0x7e>
    668a:	898a      	ldrh	r2, [r1, #12]
    668c:	f412 6f90 	tst.w	r2, #1152	; 0x480
    6690:	d031      	beq.n	66f6 <__ssputs_r+0x7e>
    6692:	2302      	movs	r3, #2
    6694:	6825      	ldr	r5, [r4, #0]
    6696:	6909      	ldr	r1, [r1, #16]
    6698:	1a6f      	subs	r7, r5, r1
    669a:	6965      	ldr	r5, [r4, #20]
    669c:	eb05 0545 	add.w	r5, r5, r5, lsl #1
    66a0:	fb95 f5f3 	sdiv	r5, r5, r3
    66a4:	f108 0301 	add.w	r3, r8, #1
    66a8:	443b      	add	r3, r7
    66aa:	429d      	cmp	r5, r3
    66ac:	bf38      	it	cc
    66ae:	461d      	movcc	r5, r3
    66b0:	0553      	lsls	r3, r2, #21
    66b2:	d531      	bpl.n	6718 <__ssputs_r+0xa0>
    66b4:	4629      	mov	r1, r5
    66b6:	f7fb fd5f 	bl	2178 <__wrap__malloc_r>
    66ba:	4606      	mov	r6, r0
    66bc:	b950      	cbnz	r0, 66d4 <__ssputs_r+0x5c>
    66be:	230c      	movs	r3, #12
    66c0:	f8ca 3000 	str.w	r3, [r10]
    66c4:	89a3      	ldrh	r3, [r4, #12]
    66c6:	f04f 30ff 	mov.w	r0, #4294967295	; 0xffffffff
    66ca:	f043 0340 	orr.w	r3, r3, #64	; 0x40
    66ce:	81a3      	strh	r3, [r4, #12]
    66d0:	e8bd 87f0 	ldmia.w	sp!, {r4, r5, r6, r7, r8, r9, r10, pc}
    66d4:	463a      	mov	r2, r7
    66d6:	6921      	ldr	r1, [r4, #16]
    66d8:	f7fd f9e8 	bl	3aac <memcpy>
    66dc:	89a3      	ldrh	r3, [r4, #12]
    66de:	f423 6390 	bic.w	r3, r3, #1152	; 0x480
    66e2:	f043 0380 	orr.w	r3, r3, #128	; 0x80
    66e6:	81a3      	strh	r3, [r4, #12]
    66e8:	6126      	str	r6, [r4, #16]
    66ea:	443e      	add	r6, r7
    66ec:	6026      	str	r6, [r4, #0]
    66ee:	4646      	mov	r6, r8
    66f0:	6165      	str	r5, [r4, #20]
    66f2:	1bed      	subs	r5, r5, r7
    66f4:	60a5      	str	r5, [r4, #8]
    66f6:	4546      	cmp	r6, r8
    66f8:	bf28      	it	cs
    66fa:	4646      	movcs	r6, r8
    66fc:	4649      	mov	r1, r9
    66fe:	4632      	mov	r2, r6
    6700:	6820      	ldr	r0, [r4, #0]
    6702:	f7ff fcc5 	bl	6090 <memmove>
    6706:	68a3      	ldr	r3, [r4, #8]
    6708:	2000      	movs	r0, #0
    670a:	1b9b      	subs	r3, r3, r6
    670c:	60a3      	str	r3, [r4, #8]
    670e:	6823      	ldr	r3, [r4, #0]
    6710:	441e      	add	r6, r3
    6712:	6026      	str	r6, [r4, #0]
    6714:	e8bd 87f0 	ldmia.w	sp!, {r4, r5, r6, r7, r8, r9, r10, pc}
    6718:	462a      	mov	r2, r5
    671a:	f7fb fd2f 	bl	217c <__wrap__realloc_r>
    671e:	4606      	mov	r6, r0
    6720:	2800      	cmp	r0, #0
    6722:	d1e1      	bne.n	66e8 <__ssputs_r+0x70>
    6724:	6921      	ldr	r1, [r4, #16]
    6726:	4650      	mov	r0, r10
    6728:	f7fb fd2a 	bl	2180 <__wrap__free_r>
    672c:	e7c7      	b.n	66be <__ssputs_r+0x46>
	...

00006730 <_svfiprintf_r>:
    6730:	e92d 4ff0 	stmdb	sp!, {r4, r5, r6, r7, r8, r9, r10, r11, lr}
    6734:	b09d      	sub	sp, #116	; 0x74
    6736:	9303      	str	r3, [sp, #12]
    6738:	898b      	ldrh	r3, [r1, #12]
    673a:	4680      	mov	r8, r0
    673c:	061c      	lsls	r4, r3, #24
    673e:	460d      	mov	r5, r1
    6740:	4616      	mov	r6, r2
    6742:	d50f      	bpl.n	6764 <_svfiprintf_r+0x34>
    6744:	690b      	ldr	r3, [r1, #16]
    6746:	b96b      	cbnz	r3, 6764 <_svfiprintf_r+0x34>
    6748:	2140      	movs	r1, #64	; 0x40
    674a:	f7fb fd15 	bl	2178 <__wrap__malloc_r>
    674e:	6028      	str	r0, [r5, #0]
    6750:	6128      	str	r0, [r5, #16]
    6752:	b928      	cbnz	r0, 6760 <_svfiprintf_r+0x30>
    6754:	230c      	movs	r3, #12
    6756:	f8c8 3000 	str.w	r3, [r8]
    675a:	f04f 30ff 	mov.w	r0, #4294967295	; 0xffffffff
    675e:	e0c4      	b.n	68ea <_svfiprintf_r+0x1ba>
    6760:	2340      	movs	r3, #64	; 0x40
    6762:	616b      	str	r3, [r5, #20]
    6764:	2300      	movs	r3, #0
    6766:	9309      	str	r3, [sp, #36]	; 0x24
    6768:	2320      	movs	r3, #32
    676a:	f88d 3029 	strb.w	r3, [sp, #41]	; 0x29
    676e:	2330      	movs	r3, #48	; 0x30
    6770:	f04f 0b01 	mov.w	r11, #1
    6774:	f88d 302a 	strb.w	r3, [sp, #42]	; 0x2a
    6778:	4637      	mov	r7, r6
    677a:	463c      	mov	r4, r7
    677c:	f814 3b01 	ldrb.w	r3, [r4], #1
    6780:	2b00      	cmp	r3, #0
    6782:	d13c      	bne.n	67fe <_svfiprintf_r+0xce>
    6784:	ebb7 0a06 	subs.w	r10, r7, r6
    6788:	d00b      	beq.n	67a2 <_svfiprintf_r+0x72>
    678a:	4653      	mov	r3, r10
    678c:	4632      	mov	r2, r6
    678e:	4629      	mov	r1, r5
    6790:	4640      	mov	r0, r8
    6792:	f7ff ff71 	bl	6678 <__ssputs_r>
    6796:	3001      	adds	r0, #1
    6798:	f000 80a2 	beq.w	68e0 <_svfiprintf_r+0x1b0>
    679c:	9b09      	ldr	r3, [sp, #36]	; 0x24
    679e:	4453      	add	r3, r10
    67a0:	9309      	str	r3, [sp, #36]	; 0x24
    67a2:	783b      	ldrb	r3, [r7, #0]
    67a4:	2b00      	cmp	r3, #0
    67a6:	f000 809b 	beq.w	68e0 <_svfiprintf_r+0x1b0>
    67aa:	2300      	movs	r3, #0
    67ac:	f04f 32ff 	mov.w	r2, #4294967295	; 0xffffffff
    67b0:	9304      	str	r3, [sp, #16]
    67b2:	9307      	str	r3, [sp, #28]
    67b4:	9205      	str	r2, [sp, #20]
    67b6:	9306      	str	r3, [sp, #24]
    67b8:	f88d 3053 	strb.w	r3, [sp, #83]	; 0x53
    67bc:	931a      	str	r3, [sp, #104]	; 0x68
    67be:	2205      	movs	r2, #5
    67c0:	7821      	ldrb	r1, [r4, #0]
    67c2:	4850      	ldr	r0, [pc, #320]	; (6904 <_svfiprintf_r+0x1d4>)
    67c4:	f7fd f964 	bl	3a90 <memchr>
    67c8:	1c67      	adds	r7, r4, #1
    67ca:	9b04      	ldr	r3, [sp, #16]
    67cc:	b9d8      	cbnz	r0, 6806 <_svfiprintf_r+0xd6>
    67ce:	06d9      	lsls	r1, r3, #27
    67d0:	bf44      	itt	mi
    67d2:	2220      	movmi	r2, #32
    67d4:	f88d 2053 	strbmi.w	r2, [sp, #83]	; 0x53
    67d8:	071a      	lsls	r2, r3, #28
    67da:	bf44      	itt	mi
    67dc:	222b      	movmi	r2, #43	; 0x2b
    67de:	f88d 2053 	strbmi.w	r2, [sp, #83]	; 0x53
    67e2:	7822      	ldrb	r2, [r4, #0]
    67e4:	2a2a      	cmp	r2, #42	; 0x2a
    67e6:	d016      	beq.n	6816 <_svfiprintf_r+0xe6>
    67e8:	2100      	movs	r1, #0
    67ea:	200a      	movs	r0, #10
    67ec:	9a07      	ldr	r2, [sp, #28]
    67ee:	4627      	mov	r7, r4
    67f0:	783b      	ldrb	r3, [r7, #0]
    67f2:	3401      	adds	r4, #1
    67f4:	3b30      	subs	r3, #48	; 0x30
    67f6:	2b09      	cmp	r3, #9
    67f8:	d950      	bls.n	689c <_svfiprintf_r+0x16c>
    67fa:	b1c9      	cbz	r1, 6830 <_svfiprintf_r+0x100>
    67fc:	e011      	b.n	6822 <_svfiprintf_r+0xf2>
    67fe:	2b25      	cmp	r3, #37	; 0x25
    6800:	d0c0      	beq.n	6784 <_svfiprintf_r+0x54>
    6802:	4627      	mov	r7, r4
    6804:	e7b9      	b.n	677a <_svfiprintf_r+0x4a>
    6806:	4a3f      	ldr	r2, [pc, #252]	; (6904 <_svfiprintf_r+0x1d4>)
    6808:	463c      	mov	r4, r7
    680a:	1a80      	subs	r0, r0, r2
    680c:	fa0b f000 	lsl.w	r0, r11, r0
    6810:	4318      	orrs	r0, r3
    6812:	9004      	str	r0, [sp, #16]
    6814:	e7d3      	b.n	67be <_svfiprintf_r+0x8e>
    6816:	9a03      	ldr	r2, [sp, #12]
    6818:	1d11      	adds	r1, r2, #4
    681a:	6812      	ldr	r2, [r2, #0]
    681c:	9103      	str	r1, [sp, #12]
    681e:	2a00      	cmp	r2, #0
    6820:	db01      	blt.n	6826 <_svfiprintf_r+0xf6>
    6822:	9207      	str	r2, [sp, #28]
    6824:	e004      	b.n	6830 <_svfiprintf_r+0x100>
    6826:	4252      	negs	r2, r2
    6828:	f043 0302 	orr.w	r3, r3, #2
    682c:	9207      	str	r2, [sp, #28]
    682e:	9304      	str	r3, [sp, #16]
    6830:	783b      	ldrb	r3, [r7, #0]
    6832:	2b2e      	cmp	r3, #46	; 0x2e
    6834:	d10d      	bne.n	6852 <_svfiprintf_r+0x122>
    6836:	787b      	ldrb	r3, [r7, #1]
    6838:	1c79      	adds	r1, r7, #1
    683a:	2b2a      	cmp	r3, #42	; 0x2a
    683c:	d132      	bne.n	68a4 <_svfiprintf_r+0x174>
    683e:	9b03      	ldr	r3, [sp, #12]
    6840:	3702      	adds	r7, #2
    6842:	1d1a      	adds	r2, r3, #4
    6844:	681b      	ldr	r3, [r3, #0]
    6846:	9203      	str	r2, [sp, #12]
    6848:	2b00      	cmp	r3, #0
    684a:	bfb8      	it	lt
    684c:	f04f 33ff 	movlt.w	r3, #4294967295	; 0xffffffff
    6850:	9305      	str	r3, [sp, #20]
    6852:	4c2d      	ldr	r4, [pc, #180]	; (6908 <_svfiprintf_r+0x1d8>)
    6854:	2203      	movs	r2, #3
    6856:	7839      	ldrb	r1, [r7, #0]
    6858:	4620      	mov	r0, r4
    685a:	f7fd f919 	bl	3a90 <memchr>
    685e:	b138      	cbz	r0, 6870 <_svfiprintf_r+0x140>
    6860:	2340      	movs	r3, #64	; 0x40
    6862:	1b00      	subs	r0, r0, r4
    6864:	fa03 f000 	lsl.w	r0, r3, r0
    6868:	9b04      	ldr	r3, [sp, #16]
    686a:	3701      	adds	r7, #1
    686c:	4303      	orrs	r3, r0
    686e:	9304      	str	r3, [sp, #16]
    6870:	7839      	ldrb	r1, [r7, #0]
    6872:	2206      	movs	r2, #6
    6874:	4825      	ldr	r0, [pc, #148]	; (690c <_svfiprintf_r+0x1dc>)
    6876:	1c7e      	adds	r6, r7, #1
    6878:	f88d 1028 	strb.w	r1, [sp, #40]	; 0x28
    687c:	f7fd f908 	bl	3a90 <memchr>
    6880:	2800      	cmp	r0, #0
    6882:	d035      	beq.n	68f0 <_svfiprintf_r+0x1c0>
    6884:	4b22      	ldr	r3, [pc, #136]	; (6910 <_svfiprintf_r+0x1e0>)
    6886:	b9fb      	cbnz	r3, 68c8 <_svfiprintf_r+0x198>
    6888:	9b03      	ldr	r3, [sp, #12]
    688a:	3307      	adds	r3, #7
    688c:	f023 0307 	bic.w	r3, r3, #7
    6890:	3308      	adds	r3, #8
    6892:	9303      	str	r3, [sp, #12]
    6894:	9b09      	ldr	r3, [sp, #36]	; 0x24
    6896:	444b      	add	r3, r9
    6898:	9309      	str	r3, [sp, #36]	; 0x24
    689a:	e76d      	b.n	6778 <_svfiprintf_r+0x48>
    689c:	fb00 3202 	mla	r2, r0, r2, r3
    68a0:	2101      	movs	r1, #1
    68a2:	e7a4      	b.n	67ee <_svfiprintf_r+0xbe>
    68a4:	2300      	movs	r3, #0
    68a6:	240a      	movs	r4, #10
    68a8:	4618      	mov	r0, r3
    68aa:	9305      	str	r3, [sp, #20]
    68ac:	460f      	mov	r7, r1
    68ae:	783a      	ldrb	r2, [r7, #0]
    68b0:	3101      	adds	r1, #1
    68b2:	3a30      	subs	r2, #48	; 0x30
    68b4:	2a09      	cmp	r2, #9
    68b6:	d903      	bls.n	68c0 <_svfiprintf_r+0x190>
    68b8:	2b00      	cmp	r3, #0
    68ba:	d0ca      	beq.n	6852 <_svfiprintf_r+0x122>
    68bc:	9005      	str	r0, [sp, #20]
    68be:	e7c8      	b.n	6852 <_svfiprintf_r+0x122>
    68c0:	fb04 2000 	mla	r0, r4, r0, r2
    68c4:	2301      	movs	r3, #1
    68c6:	e7f1      	b.n	68ac <_svfiprintf_r+0x17c>
    68c8:	ab03      	add	r3, sp, #12
    68ca:	9300      	str	r3, [sp, #0]
    68cc:	462a      	mov	r2, r5
    68ce:	4b11      	ldr	r3, [pc, #68]	; (6914 <_svfiprintf_r+0x1e4>)
    68d0:	a904      	add	r1, sp, #16
    68d2:	4640      	mov	r0, r8
    68d4:	f7fd fbb6 	bl	4044 <_printf_float>
    68d8:	f1b0 3fff 	cmp.w	r0, #4294967295	; 0xffffffff
    68dc:	4681      	mov	r9, r0
    68de:	d1d9      	bne.n	6894 <_svfiprintf_r+0x164>
    68e0:	89ab      	ldrh	r3, [r5, #12]
    68e2:	065b      	lsls	r3, r3, #25
    68e4:	f53f af39 	bmi.w	675a <_svfiprintf_r+0x2a>
    68e8:	9809      	ldr	r0, [sp, #36]	; 0x24
    68ea:	b01d      	add	sp, #116	; 0x74
    68ec:	e8bd 8ff0 	ldmia.w	sp!, {r4, r5, r6, r7, r8, r9, r10, r11, pc}
    68f0:	ab03      	add	r3, sp, #12
    68f2:	9300      	str	r3, [sp, #0]
    68f4:	462a      	mov	r2, r5
    68f6:	4b07      	ldr	r3, [pc, #28]	; (6914 <_svfiprintf_r+0x1e4>)
    68f8:	a904      	add	r1, sp, #16
    68fa:	4640      	mov	r0, r8
    68fc:	f7fd fe52 	bl	45a4 <_printf_i>
    6900:	e7ea      	b.n	68d8 <_svfiprintf_r+0x1a8>
    6902:	bf00      	nop
    6904:	00007398 	.word	0x00007398
    6908:	0000739e 	.word	0x0000739e
    690c:	000073a2 	.word	0x000073a2
    6910:	00004045 	.word	0x00004045
    6914:	00006679 	.word	0x00006679

00006918 <_sungetc_r>:
    6918:	b538      	push	{r3, r4, r5, lr}
    691a:	1c4b      	adds	r3, r1, #1
    691c:	4614      	mov	r4, r2
    691e:	d103      	bne.n	6928 <_sungetc_r+0x10>
    6920:	f04f 35ff 	mov.w	r5, #4294967295	; 0xffffffff
    6924:	4628      	mov	r0, r5
    6926:	bd38      	pop	{r3, r4, r5, pc}
    6928:	8993      	ldrh	r3, [r2, #12]
    692a:	b2cd      	uxtb	r5, r1
    692c:	f023 0320 	bic.w	r3, r3, #32
    6930:	8193      	strh	r3, [r2, #12]
    6932:	6b53      	ldr	r3, [r2, #52]	; 0x34
    6934:	6852      	ldr	r2, [r2, #4]
    6936:	b18b      	cbz	r3, 695c <_sungetc_r+0x44>
    6938:	6ba3      	ldr	r3, [r4, #56]	; 0x38
    693a:	429a      	cmp	r2, r3
    693c:	da08      	bge.n	6950 <_sungetc_r+0x38>
    693e:	6823      	ldr	r3, [r4, #0]
    6940:	1e5a      	subs	r2, r3, #1
    6942:	6022      	str	r2, [r4, #0]
    6944:	f803 5c01 	strb.w	r5, [r3, #-1]
    6948:	6863      	ldr	r3, [r4, #4]
    694a:	3301      	adds	r3, #1
    694c:	6063      	str	r3, [r4, #4]
    694e:	e7e9      	b.n	6924 <_sungetc_r+0xc>
    6950:	4621      	mov	r1, r4
    6952:	f7fe fb83 	bl	505c <__submore>
    6956:	2800      	cmp	r0, #0
    6958:	d0f1      	beq.n	693e <_sungetc_r+0x26>
    695a:	e7e1      	b.n	6920 <_sungetc_r+0x8>
    695c:	6921      	ldr	r1, [r4, #16]
    695e:	6823      	ldr	r3, [r4, #0]
    6960:	b151      	cbz	r1, 6978 <_sungetc_r+0x60>
    6962:	4299      	cmp	r1, r3
    6964:	d208      	bcs.n	6978 <_sungetc_r+0x60>
    6966:	f813 1c01 	ldrb.w	r1, [r3, #-1]
    696a:	428d      	cmp	r5, r1
    696c:	d104      	bne.n	6978 <_sungetc_r+0x60>
    696e:	3b01      	subs	r3, #1
    6970:	3201      	adds	r2, #1
    6972:	6023      	str	r3, [r4, #0]
    6974:	6062      	str	r2, [r4, #4]
    6976:	e7d5      	b.n	6924 <_sungetc_r+0xc>
    6978:	63e3      	str	r3, [r4, #60]	; 0x3c
    697a:	f104 0344 	add.w	r3, r4, #68	; 0x44
    697e:	6363      	str	r3, [r4, #52]	; 0x34
    6980:	2303      	movs	r3, #3
    6982:	63a3      	str	r3, [r4, #56]	; 0x38
    6984:	4623      	mov	r3, r4
    6986:	6422      	str	r2, [r4, #64]	; 0x40
    6988:	f803 5f46 	strb.w	r5, [r3, #70]!
    698c:	6023      	str	r3, [r4, #0]
    698e:	2301      	movs	r3, #1
    6990:	e7dc      	b.n	694c <_sungetc_r+0x34>

00006992 <__ssrefill_r>:
    6992:	b510      	push	{r4, lr}
    6994:	460c      	mov	r4, r1
    6996:	6b49      	ldr	r1, [r1, #52]	; 0x34
    6998:	b169      	cbz	r1, 69b6 <__ssrefill_r+0x24>
    699a:	f104 0344 	add.w	r3, r4, #68	; 0x44
    699e:	4299      	cmp	r1, r3
    69a0:	d001      	beq.n	69a6 <__ssrefill_r+0x14>
    69a2:	f7fb fbed 	bl	2180 <__wrap__free_r>
    69a6:	2000      	movs	r0, #0
    69a8:	6c23      	ldr	r3, [r4, #64]	; 0x40
    69aa:	6360      	str	r0, [r4, #52]	; 0x34
    69ac:	6063      	str	r3, [r4, #4]
    69ae:	b113      	cbz	r3, 69b6 <__ssrefill_r+0x24>
    69b0:	6be3      	ldr	r3, [r4, #60]	; 0x3c
    69b2:	6023      	str	r3, [r4, #0]
    69b4:	bd10      	pop	{r4, pc}
    69b6:	6923      	ldr	r3, [r4, #16]
    69b8:	f04f 30ff 	mov.w	r0, #4294967295	; 0xffffffff
    69bc:	6023      	str	r3, [r4, #0]
    69be:	2300      	movs	r3, #0
    69c0:	6063      	str	r3, [r4, #4]
    69c2:	89a3      	ldrh	r3, [r4, #12]
    69c4:	f043 0320 	orr.w	r3, r3, #32
    69c8:	81a3      	strh	r3, [r4, #12]
    69ca:	bd10      	pop	{r4, pc}

000069cc <__ssvfiscanf_r>:
    69cc:	e92d 4ff0 	stmdb	sp!, {r4, r5, r6, r7, r8, r9, r10, r11, lr}
    69d0:	f5ad 7d25 	sub.w	sp, sp, #660	; 0x294
    69d4:	9301      	str	r3, [sp, #4]
    69d6:	2300      	movs	r3, #0
    69d8:	4606      	mov	r6, r0
    69da:	460c      	mov	r4, r1
    69dc:	4692      	mov	r10, r2
    69de:	270a      	movs	r7, #10
    69e0:	9346      	str	r3, [sp, #280]	; 0x118
    69e2:	9347      	str	r3, [sp, #284]	; 0x11c
    69e4:	4b9f      	ldr	r3, [pc, #636]	; (6c64 <__ssvfiscanf_r+0x298>)
    69e6:	f10d 080c 	add.w	r8, sp, #12
    69ea:	93a2      	str	r3, [sp, #648]	; 0x288
    69ec:	4b9e      	ldr	r3, [pc, #632]	; (6c68 <__ssvfiscanf_r+0x29c>)
    69ee:	f8df 927c 	ldr.w	r9, [pc, #636]	; 6c6c <__ssvfiscanf_r+0x2a0>
    69f2:	f8cd 8120 	str.w	r8, [sp, #288]	; 0x120
    69f6:	93a3      	str	r3, [sp, #652]	; 0x28c
    69f8:	f89a 3000 	ldrb.w	r3, [r10]
    69fc:	2b00      	cmp	r3, #0
    69fe:	f000 812f 	beq.w	6c60 <__ssvfiscanf_r+0x294>
    6a02:	f7ff fb05 	bl	6010 <__locale_ctype_ptr>
    6a06:	f89a b000 	ldrb.w	r11, [r10]
    6a0a:	4458      	add	r0, r11
    6a0c:	7843      	ldrb	r3, [r0, #1]
    6a0e:	f013 0308 	ands.w	r3, r3, #8
    6a12:	d143      	bne.n	6a9c <__ssvfiscanf_r+0xd0>
    6a14:	f1bb 0f25 	cmp.w	r11, #37	; 0x25
    6a18:	f10a 0501 	add.w	r5, r10, #1
    6a1c:	f040 8099 	bne.w	6b52 <__ssvfiscanf_r+0x186>
    6a20:	9345      	str	r3, [sp, #276]	; 0x114
    6a22:	9343      	str	r3, [sp, #268]	; 0x10c
    6a24:	f89a 3001 	ldrb.w	r3, [r10, #1]
    6a28:	2b2a      	cmp	r3, #42	; 0x2a
    6a2a:	d103      	bne.n	6a34 <__ssvfiscanf_r+0x68>
    6a2c:	2310      	movs	r3, #16
    6a2e:	f10a 0502 	add.w	r5, r10, #2
    6a32:	9343      	str	r3, [sp, #268]	; 0x10c
    6a34:	7829      	ldrb	r1, [r5, #0]
    6a36:	46aa      	mov	r10, r5
    6a38:	f1a1 0230 	sub.w	r2, r1, #48	; 0x30
    6a3c:	2a09      	cmp	r2, #9
    6a3e:	f105 0501 	add.w	r5, r5, #1
    6a42:	d941      	bls.n	6ac8 <__ssvfiscanf_r+0xfc>
    6a44:	2203      	movs	r2, #3
    6a46:	4889      	ldr	r0, [pc, #548]	; (6c6c <__ssvfiscanf_r+0x2a0>)
    6a48:	f7fd f822 	bl	3a90 <memchr>
    6a4c:	b138      	cbz	r0, 6a5e <__ssvfiscanf_r+0x92>
    6a4e:	eba0 0309 	sub.w	r3, r0, r9
    6a52:	2001      	movs	r0, #1
    6a54:	46aa      	mov	r10, r5
    6a56:	4098      	lsls	r0, r3
    6a58:	9b43      	ldr	r3, [sp, #268]	; 0x10c
    6a5a:	4318      	orrs	r0, r3
    6a5c:	9043      	str	r0, [sp, #268]	; 0x10c
    6a5e:	f89a 3000 	ldrb.w	r3, [r10]
    6a62:	f10a 0501 	add.w	r5, r10, #1
    6a66:	2b67      	cmp	r3, #103	; 0x67
    6a68:	d84a      	bhi.n	6b00 <__ssvfiscanf_r+0x134>
    6a6a:	2b65      	cmp	r3, #101	; 0x65
    6a6c:	f080 80b7 	bcs.w	6bde <__ssvfiscanf_r+0x212>
    6a70:	2b47      	cmp	r3, #71	; 0x47
    6a72:	d82f      	bhi.n	6ad4 <__ssvfiscanf_r+0x108>
    6a74:	2b45      	cmp	r3, #69	; 0x45
    6a76:	f080 80b2 	bcs.w	6bde <__ssvfiscanf_r+0x212>
    6a7a:	2b00      	cmp	r3, #0
    6a7c:	f000 8082 	beq.w	6b84 <__ssvfiscanf_r+0x1b8>
    6a80:	2b25      	cmp	r3, #37	; 0x25
    6a82:	d066      	beq.n	6b52 <__ssvfiscanf_r+0x186>
    6a84:	2303      	movs	r3, #3
    6a86:	9744      	str	r7, [sp, #272]	; 0x110
    6a88:	9349      	str	r3, [sp, #292]	; 0x124
    6a8a:	e045      	b.n	6b18 <__ssvfiscanf_r+0x14c>
    6a8c:	9947      	ldr	r1, [sp, #284]	; 0x11c
    6a8e:	3301      	adds	r3, #1
    6a90:	3101      	adds	r1, #1
    6a92:	9147      	str	r1, [sp, #284]	; 0x11c
    6a94:	6861      	ldr	r1, [r4, #4]
    6a96:	6023      	str	r3, [r4, #0]
    6a98:	3901      	subs	r1, #1
    6a9a:	6061      	str	r1, [r4, #4]
    6a9c:	6863      	ldr	r3, [r4, #4]
    6a9e:	2b00      	cmp	r3, #0
    6aa0:	dd0b      	ble.n	6aba <__ssvfiscanf_r+0xee>
    6aa2:	f7ff fab5 	bl	6010 <__locale_ctype_ptr>
    6aa6:	6823      	ldr	r3, [r4, #0]
    6aa8:	7819      	ldrb	r1, [r3, #0]
    6aaa:	4408      	add	r0, r1
    6aac:	7841      	ldrb	r1, [r0, #1]
    6aae:	070d      	lsls	r5, r1, #28
    6ab0:	d4ec      	bmi.n	6a8c <__ssvfiscanf_r+0xc0>
    6ab2:	f10a 0501 	add.w	r5, r10, #1
    6ab6:	46aa      	mov	r10, r5
    6ab8:	e79e      	b.n	69f8 <__ssvfiscanf_r+0x2c>
    6aba:	9ba3      	ldr	r3, [sp, #652]	; 0x28c
    6abc:	4621      	mov	r1, r4
    6abe:	4630      	mov	r0, r6
    6ac0:	4798      	blx	r3
    6ac2:	2800      	cmp	r0, #0
    6ac4:	d0ed      	beq.n	6aa2 <__ssvfiscanf_r+0xd6>
    6ac6:	e7f4      	b.n	6ab2 <__ssvfiscanf_r+0xe6>
    6ac8:	9b45      	ldr	r3, [sp, #276]	; 0x114
    6aca:	fb07 1303 	mla	r3, r7, r3, r1
    6ace:	3b30      	subs	r3, #48	; 0x30
    6ad0:	9345      	str	r3, [sp, #276]	; 0x114
    6ad2:	e7af      	b.n	6a34 <__ssvfiscanf_r+0x68>
    6ad4:	2b5b      	cmp	r3, #91	; 0x5b
    6ad6:	d061      	beq.n	6b9c <__ssvfiscanf_r+0x1d0>
    6ad8:	d80c      	bhi.n	6af4 <__ssvfiscanf_r+0x128>
    6ada:	2b58      	cmp	r3, #88	; 0x58
    6adc:	d1d2      	bne.n	6a84 <__ssvfiscanf_r+0xb8>
    6ade:	9a43      	ldr	r2, [sp, #268]	; 0x10c
    6ae0:	f442 7200 	orr.w	r2, r2, #512	; 0x200
    6ae4:	9243      	str	r2, [sp, #268]	; 0x10c
    6ae6:	2210      	movs	r2, #16
    6ae8:	9244      	str	r2, [sp, #272]	; 0x110
    6aea:	2b6f      	cmp	r3, #111	; 0x6f
    6aec:	bfb4      	ite	lt
    6aee:	2303      	movlt	r3, #3
    6af0:	2304      	movge	r3, #4
    6af2:	e010      	b.n	6b16 <__ssvfiscanf_r+0x14a>
    6af4:	2b63      	cmp	r3, #99	; 0x63
    6af6:	d05c      	beq.n	6bb2 <__ssvfiscanf_r+0x1e6>
    6af8:	2b64      	cmp	r3, #100	; 0x64
    6afa:	d1c3      	bne.n	6a84 <__ssvfiscanf_r+0xb8>
    6afc:	9744      	str	r7, [sp, #272]	; 0x110
    6afe:	e7f4      	b.n	6aea <__ssvfiscanf_r+0x11e>
    6b00:	2b70      	cmp	r3, #112	; 0x70
    6b02:	d042      	beq.n	6b8a <__ssvfiscanf_r+0x1be>
    6b04:	d81d      	bhi.n	6b42 <__ssvfiscanf_r+0x176>
    6b06:	2b6e      	cmp	r3, #110	; 0x6e
    6b08:	d059      	beq.n	6bbe <__ssvfiscanf_r+0x1f2>
    6b0a:	d843      	bhi.n	6b94 <__ssvfiscanf_r+0x1c8>
    6b0c:	2b69      	cmp	r3, #105	; 0x69
    6b0e:	d1b9      	bne.n	6a84 <__ssvfiscanf_r+0xb8>
    6b10:	2300      	movs	r3, #0
    6b12:	9344      	str	r3, [sp, #272]	; 0x110
    6b14:	2303      	movs	r3, #3
    6b16:	9349      	str	r3, [sp, #292]	; 0x124
    6b18:	6863      	ldr	r3, [r4, #4]
    6b1a:	2b00      	cmp	r3, #0
    6b1c:	dd61      	ble.n	6be2 <__ssvfiscanf_r+0x216>
    6b1e:	9b43      	ldr	r3, [sp, #268]	; 0x10c
    6b20:	0659      	lsls	r1, r3, #25
    6b22:	d56f      	bpl.n	6c04 <__ssvfiscanf_r+0x238>
    6b24:	9b49      	ldr	r3, [sp, #292]	; 0x124
    6b26:	2b02      	cmp	r3, #2
    6b28:	dc7c      	bgt.n	6c24 <__ssvfiscanf_r+0x258>
    6b2a:	ab01      	add	r3, sp, #4
    6b2c:	4622      	mov	r2, r4
    6b2e:	a943      	add	r1, sp, #268	; 0x10c
    6b30:	4630      	mov	r0, r6
    6b32:	f7fd fe57 	bl	47e4 <_scanf_chars>
    6b36:	2801      	cmp	r0, #1
    6b38:	f000 8092 	beq.w	6c60 <__ssvfiscanf_r+0x294>
    6b3c:	2802      	cmp	r0, #2
    6b3e:	d1ba      	bne.n	6ab6 <__ssvfiscanf_r+0xea>
    6b40:	e01d      	b.n	6b7e <__ssvfiscanf_r+0x1b2>
    6b42:	2b75      	cmp	r3, #117	; 0x75
    6b44:	d0da      	beq.n	6afc <__ssvfiscanf_r+0x130>
    6b46:	2b78      	cmp	r3, #120	; 0x78
    6b48:	d0c9      	beq.n	6ade <__ssvfiscanf_r+0x112>
    6b4a:	2b73      	cmp	r3, #115	; 0x73
    6b4c:	d19a      	bne.n	6a84 <__ssvfiscanf_r+0xb8>
    6b4e:	2302      	movs	r3, #2
    6b50:	e7e1      	b.n	6b16 <__ssvfiscanf_r+0x14a>
    6b52:	6863      	ldr	r3, [r4, #4]
    6b54:	2b00      	cmp	r3, #0
    6b56:	dd0c      	ble.n	6b72 <__ssvfiscanf_r+0x1a6>
    6b58:	6823      	ldr	r3, [r4, #0]
    6b5a:	781a      	ldrb	r2, [r3, #0]
    6b5c:	4593      	cmp	r11, r2
    6b5e:	d17f      	bne.n	6c60 <__ssvfiscanf_r+0x294>
    6b60:	3301      	adds	r3, #1
    6b62:	6862      	ldr	r2, [r4, #4]
    6b64:	6023      	str	r3, [r4, #0]
    6b66:	9b47      	ldr	r3, [sp, #284]	; 0x11c
    6b68:	3a01      	subs	r2, #1
    6b6a:	3301      	adds	r3, #1
    6b6c:	6062      	str	r2, [r4, #4]
    6b6e:	9347      	str	r3, [sp, #284]	; 0x11c
    6b70:	e7a1      	b.n	6ab6 <__ssvfiscanf_r+0xea>
    6b72:	9ba3      	ldr	r3, [sp, #652]	; 0x28c
    6b74:	4621      	mov	r1, r4
    6b76:	4630      	mov	r0, r6
    6b78:	4798      	blx	r3
    6b7a:	2800      	cmp	r0, #0
    6b7c:	d0ec      	beq.n	6b58 <__ssvfiscanf_r+0x18c>
    6b7e:	9846      	ldr	r0, [sp, #280]	; 0x118
    6b80:	2800      	cmp	r0, #0
    6b82:	d163      	bne.n	6c4c <__ssvfiscanf_r+0x280>
    6b84:	f04f 30ff 	mov.w	r0, #4294967295	; 0xffffffff
    6b88:	e066      	b.n	6c58 <__ssvfiscanf_r+0x28c>
    6b8a:	9a43      	ldr	r2, [sp, #268]	; 0x10c
    6b8c:	f042 0220 	orr.w	r2, r2, #32
    6b90:	9243      	str	r2, [sp, #268]	; 0x10c
    6b92:	e7a4      	b.n	6ade <__ssvfiscanf_r+0x112>
    6b94:	2308      	movs	r3, #8
    6b96:	9344      	str	r3, [sp, #272]	; 0x110
    6b98:	2304      	movs	r3, #4
    6b9a:	e7bc      	b.n	6b16 <__ssvfiscanf_r+0x14a>
    6b9c:	4629      	mov	r1, r5
    6b9e:	4640      	mov	r0, r8
    6ba0:	f7fd ff9c 	bl	4adc <__sccl>
    6ba4:	9b43      	ldr	r3, [sp, #268]	; 0x10c
    6ba6:	4605      	mov	r5, r0
    6ba8:	f043 0340 	orr.w	r3, r3, #64	; 0x40
    6bac:	9343      	str	r3, [sp, #268]	; 0x10c
    6bae:	2301      	movs	r3, #1
    6bb0:	e7b1      	b.n	6b16 <__ssvfiscanf_r+0x14a>
    6bb2:	9b43      	ldr	r3, [sp, #268]	; 0x10c
    6bb4:	f043 0340 	orr.w	r3, r3, #64	; 0x40
    6bb8:	9343      	str	r3, [sp, #268]	; 0x10c
    6bba:	2300      	movs	r3, #0
    6bbc:	e7ab      	b.n	6b16 <__ssvfiscanf_r+0x14a>
    6bbe:	9a43      	ldr	r2, [sp, #268]	; 0x10c
    6bc0:	06d0      	lsls	r0, r2, #27
    6bc2:	f53f af78 	bmi.w	6ab6 <__ssvfiscanf_r+0xea>
    6bc6:	f012 0f01 	tst.w	r2, #1
    6bca:	9a01      	ldr	r2, [sp, #4]
    6bcc:	9b47      	ldr	r3, [sp, #284]	; 0x11c
    6bce:	f102 0104 	add.w	r1, r2, #4
    6bd2:	9101      	str	r1, [sp, #4]
    6bd4:	6812      	ldr	r2, [r2, #0]
    6bd6:	bf14      	ite	ne
    6bd8:	8013      	strhne	r3, [r2, #0]
    6bda:	6013      	streq	r3, [r2, #0]
    6bdc:	e76b      	b.n	6ab6 <__ssvfiscanf_r+0xea>
    6bde:	2305      	movs	r3, #5
    6be0:	e799      	b.n	6b16 <__ssvfiscanf_r+0x14a>
    6be2:	9ba3      	ldr	r3, [sp, #652]	; 0x28c
    6be4:	4621      	mov	r1, r4
    6be6:	4630      	mov	r0, r6
    6be8:	4798      	blx	r3
    6bea:	2800      	cmp	r0, #0
    6bec:	d097      	beq.n	6b1e <__ssvfiscanf_r+0x152>
    6bee:	e7c6      	b.n	6b7e <__ssvfiscanf_r+0x1b2>
    6bf0:	9a47      	ldr	r2, [sp, #284]	; 0x11c
    6bf2:	3201      	adds	r2, #1
    6bf4:	9247      	str	r2, [sp, #284]	; 0x11c
    6bf6:	6862      	ldr	r2, [r4, #4]
    6bf8:	3a01      	subs	r2, #1
    6bfa:	2a00      	cmp	r2, #0
    6bfc:	6062      	str	r2, [r4, #4]
    6bfe:	dd0a      	ble.n	6c16 <__ssvfiscanf_r+0x24a>
    6c00:	3301      	adds	r3, #1
    6c02:	6023      	str	r3, [r4, #0]
    6c04:	f7ff fa04 	bl	6010 <__locale_ctype_ptr>
    6c08:	6823      	ldr	r3, [r4, #0]
    6c0a:	781a      	ldrb	r2, [r3, #0]
    6c0c:	4410      	add	r0, r2
    6c0e:	7842      	ldrb	r2, [r0, #1]
    6c10:	0712      	lsls	r2, r2, #28
    6c12:	d4ed      	bmi.n	6bf0 <__ssvfiscanf_r+0x224>
    6c14:	e786      	b.n	6b24 <__ssvfiscanf_r+0x158>
    6c16:	9ba3      	ldr	r3, [sp, #652]	; 0x28c
    6c18:	4621      	mov	r1, r4
    6c1a:	4630      	mov	r0, r6
    6c1c:	4798      	blx	r3
    6c1e:	2800      	cmp	r0, #0
    6c20:	d0f0      	beq.n	6c04 <__ssvfiscanf_r+0x238>
    6c22:	e7ac      	b.n	6b7e <__ssvfiscanf_r+0x1b2>
    6c24:	2b04      	cmp	r3, #4
    6c26:	dc06      	bgt.n	6c36 <__ssvfiscanf_r+0x26a>
    6c28:	ab01      	add	r3, sp, #4
    6c2a:	4622      	mov	r2, r4
    6c2c:	a943      	add	r1, sp, #268	; 0x10c
    6c2e:	4630      	mov	r0, r6
    6c30:	f7fd fe3c 	bl	48ac <_scanf_i>
    6c34:	e77f      	b.n	6b36 <__ssvfiscanf_r+0x16a>
    6c36:	4b0e      	ldr	r3, [pc, #56]	; (6c70 <__ssvfiscanf_r+0x2a4>)
    6c38:	2b00      	cmp	r3, #0
    6c3a:	f43f af3c 	beq.w	6ab6 <__ssvfiscanf_r+0xea>
    6c3e:	ab01      	add	r3, sp, #4
    6c40:	4622      	mov	r2, r4
    6c42:	a943      	add	r1, sp, #268	; 0x10c
    6c44:	4630      	mov	r0, r6
    6c46:	f3af 8000 	nop.w
    6c4a:	e774      	b.n	6b36 <__ssvfiscanf_r+0x16a>
    6c4c:	89a3      	ldrh	r3, [r4, #12]
    6c4e:	f013 0f40 	tst.w	r3, #64	; 0x40
    6c52:	bf18      	it	ne
    6c54:	f04f 30ff 	movne.w	r0, #4294967295	; 0xffffffff
    6c58:	f50d 7d25 	add.w	sp, sp, #660	; 0x294
    6c5c:	e8bd 8ff0 	ldmia.w	sp!, {r4, r5, r6, r7, r8, r9, r10, r11, pc}
    6c60:	9846      	ldr	r0, [sp, #280]	; 0x118
    6c62:	e7f9      	b.n	6c58 <__ssvfiscanf_r+0x28c>
    6c64:	00006919 	.word	0x00006919
    6c68:	00006993 	.word	0x00006993
    6c6c:	0000739e 	.word	0x0000739e
    6c70:	00000000 	.word	0x00000000

00006c74 <_read_r>:
    6c74:	b538      	push	{r3, r4, r5, lr}
    6c76:	4605      	mov	r5, r0
    6c78:	4608      	mov	r0, r1
    6c7a:	4611      	mov	r1, r2
    6c7c:	2200      	movs	r2, #0
    6c7e:	4c05      	ldr	r4, [pc, #20]	; (6c94 <_read_r+0x20>)
    6c80:	6022      	str	r2, [r4, #0]
    6c82:	461a      	mov	r2, r3
    6c84:	f7fb fafc 	bl	2280 <_read>
    6c88:	1c43      	adds	r3, r0, #1
    6c8a:	d102      	bne.n	6c92 <_read_r+0x1e>
    6c8c:	6823      	ldr	r3, [r4, #0]
    6c8e:	b103      	cbz	r3, 6c92 <_read_r+0x1e>
    6c90:	602b      	str	r3, [r5, #0]
    6c92:	bd38      	pop	{r3, r4, r5, pc}
    6c94:	100007c4 	.word	0x100007c4

00006c98 <__ascii_wctomb>:
    6c98:	b149      	cbz	r1, 6cae <__ascii_wctomb+0x16>
    6c9a:	2aff      	cmp	r2, #255	; 0xff
    6c9c:	bf8b      	itete	hi
    6c9e:	238a      	movhi	r3, #138	; 0x8a
    6ca0:	700a      	strbls	r2, [r1, #0]
    6ca2:	6003      	strhi	r3, [r0, #0]
    6ca4:	2001      	movls	r0, #1
    6ca6:	bf88      	it	hi
    6ca8:	f04f 30ff 	movhi.w	r0, #4294967295	; 0xffffffff
    6cac:	4770      	bx	lr
    6cae:	4608      	mov	r0, r1
    6cb0:	4770      	bx	lr
	...

00006cb4 <__gedf2>:
    6cb4:	f04f 3cff 	mov.w	r12, #4294967295	; 0xffffffff
    6cb8:	e006      	b.n	6cc8 <__cmpdf2+0x4>
    6cba:	bf00      	nop

00006cbc <__ledf2>:
    6cbc:	f04f 0c01 	mov.w	r12, #1
    6cc0:	e002      	b.n	6cc8 <__cmpdf2+0x4>
    6cc2:	bf00      	nop

00006cc4 <__cmpdf2>:
    6cc4:	f04f 0c01 	mov.w	r12, #1
    6cc8:	f84d cd04 	str.w	r12, [sp, #-4]!
    6ccc:	ea4f 0c41 	mov.w	r12, r1, lsl #1
    6cd0:	ea7f 5c6c 	mvns.w	r12, r12, asr #21
    6cd4:	ea4f 0c43 	mov.w	r12, r3, lsl #1
    6cd8:	bf18      	it	ne
    6cda:	ea7f 5c6c 	mvnsne.w	r12, r12, asr #21
    6cde:	d01b      	beq.n	6d18 <__cmpdf2+0x54>
    6ce0:	b001      	add	sp, #4
    6ce2:	ea50 0c41 	orrs.w	r12, r0, r1, lsl #1
    6ce6:	bf0c      	ite	eq
    6ce8:	ea52 0c43 	orrseq.w	r12, r2, r3, lsl #1
    6cec:	ea91 0f03 	teqne	r1, r3
    6cf0:	bf02      	ittt	eq
    6cf2:	ea90 0f02 	teqeq	r0, r2
    6cf6:	2000      	moveq	r0, #0
    6cf8:	4770      	bxeq	lr
    6cfa:	f110 0f00 	cmn.w	r0, #0
    6cfe:	ea91 0f03 	teq	r1, r3
    6d02:	bf58      	it	pl
    6d04:	4299      	cmppl	r1, r3
    6d06:	bf08      	it	eq
    6d08:	4290      	cmpeq	r0, r2
    6d0a:	bf2c      	ite	cs
    6d0c:	17d8      	asrcs	r0, r3, #31
    6d0e:	ea6f 70e3 	mvncc.w	r0, r3, asr #31
    6d12:	f040 0001 	orr.w	r0, r0, #1
    6d16:	4770      	bx	lr
    6d18:	ea4f 0c41 	mov.w	r12, r1, lsl #1
    6d1c:	ea7f 5c6c 	mvns.w	r12, r12, asr #21
    6d20:	d102      	bne.n	6d28 <__cmpdf2+0x64>
    6d22:	ea50 3c01 	orrs.w	r12, r0, r1, lsl #12
    6d26:	d107      	bne.n	6d38 <__cmpdf2+0x74>
    6d28:	ea4f 0c43 	mov.w	r12, r3, lsl #1
    6d2c:	ea7f 5c6c 	mvns.w	r12, r12, asr #21
    6d30:	d1d6      	bne.n	6ce0 <__cmpdf2+0x1c>
    6d32:	ea52 3c03 	orrs.w	r12, r2, r3, lsl #12
    6d36:	d0d3      	beq.n	6ce0 <__cmpdf2+0x1c>
    6d38:	f85d 0b04 	ldr.w	r0, [sp], #4
    6d3c:	4770      	bx	lr
    6d3e:	bf00      	nop

00006d40 <__aeabi_cdrcmple>:
    6d40:	4684      	mov	r12, r0
    6d42:	4610      	mov	r0, r2
    6d44:	4662      	mov	r2, r12
    6d46:	468c      	mov	r12, r1
    6d48:	4619      	mov	r1, r3
    6d4a:	4663      	mov	r3, r12
    6d4c:	e000      	b.n	6d50 <__aeabi_cdcmpeq>
    6d4e:	bf00      	nop

00006d50 <__aeabi_cdcmpeq>:
    6d50:	b501      	push	{r0, lr}
    6d52:	f7ff ffb7 	bl	6cc4 <__cmpdf2>
    6d56:	2800      	cmp	r0, #0
    6d58:	bf48      	it	mi
    6d5a:	f110 0f00 	cmnmi.w	r0, #0
    6d5e:	bd01      	pop	{r0, pc}

00006d60 <__aeabi_dcmpeq>:
    6d60:	f84d ed08 	str.w	lr, [sp, #-8]!
    6d64:	f7ff fff4 	bl	6d50 <__aeabi_cdcmpeq>
    6d68:	bf0c      	ite	eq
    6d6a:	2001      	moveq	r0, #1
    6d6c:	2000      	movne	r0, #0
    6d6e:	f85d fb08 	ldr.w	pc, [sp], #8
    6d72:	bf00      	nop

00006d74 <__aeabi_dcmplt>:
    6d74:	f84d ed08 	str.w	lr, [sp, #-8]!
    6d78:	f7ff ffea 	bl	6d50 <__aeabi_cdcmpeq>
    6d7c:	bf34      	ite	cc
    6d7e:	2001      	movcc	r0, #1
    6d80:	2000      	movcs	r0, #0
    6d82:	f85d fb08 	ldr.w	pc, [sp], #8
    6d86:	bf00      	nop

00006d88 <__aeabi_dcmple>:
    6d88:	f84d ed08 	str.w	lr, [sp, #-8]!
    6d8c:	f7ff ffe0 	bl	6d50 <__aeabi_cdcmpeq>
    6d90:	bf94      	ite	ls
    6d92:	2001      	movls	r0, #1
    6d94:	2000      	movhi	r0, #0
    6d96:	f85d fb08 	ldr.w	pc, [sp], #8
    6d9a:	bf00      	nop

00006d9c <__aeabi_dcmpge>:
    6d9c:	f84d ed08 	str.w	lr, [sp, #-8]!
    6da0:	f7ff ffce 	bl	6d40 <__aeabi_cdrcmple>
    6da4:	bf94      	ite	ls
    6da6:	2001      	movls	r0, #1
    6da8:	2000      	movhi	r0, #0
    6daa:	f85d fb08 	ldr.w	pc, [sp], #8
    6dae:	bf00      	nop

00006db0 <__aeabi_dcmpgt>:
    6db0:	f84d ed08 	str.w	lr, [sp, #-8]!
    6db4:	f7ff ffc4 	bl	6d40 <__aeabi_cdrcmple>
    6db8:	bf34      	ite	cc
    6dba:	2001      	movcc	r0, #1
    6dbc:	2000      	movcs	r0, #0
    6dbe:	f85d fb08 	ldr.w	pc, [sp], #8
    6dc2:	bf00      	nop

00006dc4 <__aeabi_dcmpun>:
    6dc4:	ea4f 0c41 	mov.w	r12, r1, lsl #1
    6dc8:	ea7f 5c6c 	mvns.w	r12, r12, asr #21
    6dcc:	d102      	bne.n	6dd4 <__aeabi_dcmpun+0x10>
    6dce:	ea50 3c01 	orrs.w	r12, r0, r1, lsl #12
    6dd2:	d10a      	bne.n	6dea <__aeabi_dcmpun+0x26>
    6dd4:	ea4f 0c43 	mov.w	r12, r3, lsl #1
    6dd8:	ea7f 5c6c 	mvns.w	r12, r12, asr #21
    6ddc:	d102      	bne.n	6de4 <__aeabi_dcmpun+0x20>
    6dde:	ea52 3c03 	orrs.w	r12, r2, r3, lsl #12
    6de2:	d102      	bne.n	6dea <__aeabi_dcmpun+0x26>
    6de4:	f04f 0000 	mov.w	r0, #0
    6de8:	4770      	bx	lr
    6dea:	f04f 0001 	mov.w	r0, #1
    6dee:	4770      	bx	lr

00006df0 <_init>:
    6df0:	b5f8      	push	{r3, r4, r5, r6, r7, lr}
    6df2:	bf00      	nop
    6df4:	bcf8      	pop	{r3, r4, r5, r6, r7}
    6df6:	bc08      	pop	{r3}
    6df8:	469e      	mov	lr, r3
    6dfa:	4770      	bx	lr

00006dfc <_fini>:
    6dfc:	b5f8      	push	{r3, r4, r5, r6, r7, lr}
    6dfe:	bf00      	nop
    6e00:	bcf8      	pop	{r3, r4, r5, r6, r7}
    6e02:	bc08      	pop	{r3}
    6e04:	469e      	mov	lr, r3
    6e06:	4770      	bx	lr

00006e08 <vtable for TextLCD>:
	...
    6e10:	056d 0000 0589 0000 1c83 0000 1c53 0000     m...........S...
    6e20:	1cbf 0000 1cbf 0000 1cbf 0000 1cb5 0000     ................
    6e30:	1cb9 0000 1cbd 0000 1cc3 0000 02f7 0000     ................
    6e40:	02fd 0000 0303 0000 0309 0000 030b 0000     ................
    6e50:	0509 0000 030d 0000                         ........

00006e58 <void mbed::Callback<void ()>::generate<void (*)()>(void (* const&)())::ops>:
    6e58:	05a9 0000 05ad 0000 05b5 0000 6564 6574     ............dete
    6e68:	7463 6400 7465 6365 0d74 000a 6425 002c     ct.detect...%d,.
    6e78:	3a78 3125 322e 2c66 7900 253a 2e31 6632     x:%1.2f,.y:%1.2f
    6e88:	7a00 253a 2e31 6632 002c 3a74 3225 312e     .z:%1.2f,.t:%2.1
    6e98:	0066 6e69 3a74 6425 0009 7861 253a 2e33     f.int:%d..ax:%3.
    6ea8:	6633 0009 7961 253a 2e33 6633 0009 7a61     3f..ay:%3.3f..az
    6eb8:	253a 2e33 6633 0009 6574 706d 253a 2e33     :%3.3f..temp:%3.
    6ec8:	6633 0009                                   3f..

00006ecc <us_data>:
    6ecc:	6ed4 0000 04cc 1000                         .n......

00006ed4 <us_interface>:
    6ed4:	14b1 0000 150d 0000 153d 0000 154d 0000     ........=...M...
    6ee4:	1529 0000 6970 6d6e 7061 6d20 7369 6d2d     )...pinmap mis-m
    6ef4:	7461 6863 7000 6e69 616d 2070 6f6e 2074     atch.pinmap not 
    6f04:	6f66 6e75 2064 6f66 2072 6570 6972 6870     found for periph
    6f14:	7265 6c61 6300 756f 646c 6e20 746f 7020     eral.could not p
    6f24:	6e69 756f 0074 6970 736e 6f20 206e 6874     inout.pins on th
    6f34:	7369 7020 726f 2074 6163 6e6e 746f 6720     is port cannot g
    6f44:	6e65 7265 7461 2065 6e69 6574 7272 7075     enerate interrup
    6f54:	7374 0000                                   ts..

00006f58 <PinMap_UART_CTS>:
    6f58:	c011 2009 0000 4001 0001 0000 c042 2009     ... ...@....B.. 
    6f68:	0000 4001 0002 0000 ffff ffff ffff ffff     ...@............
    6f78:	0000 0000                                   ....

00006f7c <PinMap_UART_RTS>:
    6f7c:	c016 2009 0000 4001 0001 0000 c047 2009     ... ...@....G.. 
    6f8c:	0000 4001 0002 0000 ffff ffff ffff ffff     ...@............
    6f9c:	0000 0000                                   ....

00006fa0 <PinMap_UART_RX>:
    6fa0:	c001 2009 c000 4009 0002 0000 c003 2009     ... ...@....... 
    6fb0:	c000 4000 0001 0000 c00b 2009 8000 4009     ...@....... ...@
    6fc0:	0001 0000 c010 2009 0000 4001 0001 0000     ....... ...@....
    6fd0:	c01a 2009 c000 4009 0003 0000 c041 2009     ... ...@....A.. 
    6fe0:	0000 4001 0002 0000 c049 2009 8000 4009     ...@....I.. ...@
    6ff0:	0002 0000 c09d 2009 c000 4009 0003 0000     ....... ...@....
    7000:	ffff ffff ffff ffff 0000 0000               ............

0000700c <PinMap_UART_TX>:
    700c:	c000 2009 c000 4009 0002 0000 c002 2009     ... ...@....... 
    701c:	c000 4000 0001 0000 c00a 2009 8000 4009     ...@....... ...@
    702c:	0001 0000 c00f 2009 0000 4001 0001 0000     ....... ...@....
    703c:	c019 2009 c000 4009 0003 0000 c040 2009     ... ...@....@.. 
    704c:	0000 4001 0002 0000 c048 2009 8000 4009     ...@....H.. ...@
    705c:	0002 0000 c09c 2009 c000 4009 0003 0000     ....... ...@....
    706c:	ffff ffff ffff ffff 0000 0000               ............

00007078 <PinMap_I2C_SCL>:
    7078:	c001 2009 c000 4005 0003 0000 c00b 2009     ... ...@....... 
    7088:	0000 400a 0002 0000 c014 2009 c000 4005     ...@....... ...@
    7098:	0003 0000 c01c 2009 c000 4001 0001 0000     ....... ...@....
    70a8:	ffff ffff ffff ffff 0000 0000               ............

000070b4 <PinMap_I2C_SDA>:
    70b4:	c000 2009 c000 4005 0003 0000 c00a 2009     ... ...@....... 
    70c4:	0000 400a 0002 0000 c013 2009 c000 4005     ...@....... ...@
    70d4:	0003 0000 c01b 2009 c000 4001 0001 0000     ....... ...@....
    70e4:	ffff ffff ffff ffff 0000 0000               ............

000070f0 <vtable for mbed::Serial>:
	...
    70f8:	1931 0000 1931 0000 0605 0000 0805 0000     1...1...........
    7108:	1943 0000 194f 0000 ffd0 ffff 0000 0000     C...O...........
    7118:	0625 0000 0817 0000 1c83 0000 1c53 0000     %...........S...
    7128:	1cbf 0000 1cbf 0000 1cbf 0000 1cb5 0000     ................
    7138:	1cb9 0000 1cbd 0000 1cc3 0000 02f7 0000     ................
    7148:	02fd 0000 0303 0000 1933 0000 193b 0000     ........3...;...
    7158:	1953 0000 1947 0000                         S...G...

00007160 <vtable for mbed::I2C>:
	...
    7168:	1989 0000 1989 0000 1985 0000 1999 0000     ................

00007178 <vtable for mbed::BusOut>:
	...
    7180:	1aad 0000 1ad5 0000 1aa9 0000 1aa9 0000     ................

00007190 <vtable for mbed::FileLike>:
	...
    71a0:	0915 0000 0915 0000 0915 0000 0915 0000     ................
    71b0:	0915 0000 0915 0000 0915 0000 0915 0000     ................
    71c0:	0915 0000 02f7 0000 02fd 0000 0303 0000     ................
    71d0:	0309 0000 030b 0000 253a 0070 2b77 0000     ........:%p.w+..

000071e0 <vtable for mbed::Stream>:
	...
    71f0:	1c83 0000 1c53 0000 1cbf 0000 1cbf 0000     ....S...........
    7200:	1cbf 0000 1cb5 0000 1cb9 0000 1cbd 0000     ................
    7210:	1cc3 0000 02f7 0000 02fd 0000 0303 0000     ................
    7220:	0309 0000 030b 0000 0915 0000 0915 0000     ................

00007230 <vtable for mbed::FileBase>:
	...
    7238:	1dd5 0000 1e21 0000                         ....!...

00007240 <vtable for mbed::InterruptIn>:
	...
    7248:	1e8d 0000 1eb5 0000                         ........

00007250 <vtable for mbed::SerialBase>:
	...
    7258:	1fbd 0000 1fbf 0000 05c9 0000 05f1 0000     ................

00007268 <vtable for mbed::File>:
	...
    7270:	211d 0000 2145 0000 207d 0000 2093 0000     .!..E!..} ... ..
    7280:	2061 0000 20a9 0000 20b5 0000 20c1 0000     a ... ... ... ..
    7290:	20d7 0000 20e3 0000 20ef 0000 02f7 0000     . ... ... ......
    72a0:	02fd 0000 0303 0000 0309 0000 030b 0000     ................
    72b0:	20fb 0000                                   . ..

000072b4 <vtable for ManagedFile>:
	...
    72bc:	2189 0000 244d 0000 207d 0000 2093 0000     .!..M$..} ... ..
    72cc:	25e5 0000 20a9 0000 20b5 0000 20c1 0000     .%... ... ... ..
    72dc:	20d7 0000 20e3 0000 20ef 0000 02f7 0000     . ... ... ......
    72ec:	02fd 0000 0303 0000 0309 0000 030b 0000     ................
    72fc:	20fb 0000 704f 7265 7461 726f 6e20 7765     . ..Operator new
    730c:	6f20 7475 6f20 2066 656d 6f6d 7972 0a0d      out of memory..
	...

0000731d <__stderr_name>:
    731d:	732f 6474 7265 0072                         /stderr.

00007325 <__stdin_name>:
    7325:	732f 6474 6e69 2f00                              /stdin.

0000732c <__stdout_name>:
    732c:	732f 6474 756f 0074                         /stdout.

00007334 <__sf_fake_stderr>:
	...

00007354 <__sf_fake_stdin>:
	...

00007374 <__sf_fake_stdout>:
	...

00007394 <_global_impure_ptr>:
    7394:	00d8 1000 2d23 2b30 0020 6c68 004c 6665     ....#-0+ .hlL.ef
    73a4:	4567 4746 4900 464e 6900 666e 4e00 4e41     gEFG.INF.inf.NAN
    73b4:	6e00 6e61 3000 3231 3433 3635 3837 4139     .nan.0123456789A
    73c4:	4342 4544 0046 3130 3332 3534 3736 3938     BCDEF.0123456789
    73d4:	6261 6463 6665 0000 73fa 0000 73fd 0000     abcdef...s...s..
    73e4:	7400 0000 2d41 6146 662d 3938 3130 3332     .t..A-Fa-f890123
    73f4:	3534 3736 005d 2d2b 3000 0030 5878 4900     4567].+-.00.xX.I
    7404:	666e 6e69 7469 0079 614e 004e 0043 4f50     nfinity.NaN.C.PO
    7414:	4953 0058 002e 0000 0000 0000               SIX.........

00007420 <__mprec_bigtens>:
    7420:	8000 37e0 c379 4341 6e17 b505 b8b5 4693     ...7y.AC.n.....F
    7430:	f9f5 e93f 4f03 4d38 1d32 f930 7748 5a82     ..?..O8M2.0.Hw.Z
    7440:	bf3c 7f73 4fdd 7515                         <.s..O.u

00007448 <__mprec_tens>:
    7448:	0000 0000 0000 3ff0 0000 0000 0000 4024     .......?......$@
    7458:	0000 0000 0000 4059 0000 0000 4000 408f     ......Y@.....@.@
    7468:	0000 0000 8800 40c3 0000 0000 6a00 40f8     .......@.....j.@
    7478:	0000 0000 8480 412e 0000 0000 12d0 4163     .......A......cA
    7488:	0000 0000 d784 4197 0000 0000 cd65 41cd     .......A....e..A
    7498:	0000 2000 a05f 4202 0000 e800 4876 4237     ... _..B....vH7B
    74a8:	0000 a200 1a94 426d 0000 e540 309c 42a2     ......mB..@..0.B
    74b8:	0000 1e90 bcc4 42d6 0000 2634 6bf5 430c     .......B..4&.k.C
    74c8:	8000 37e0 c379 4341 a000 85d8 3457 4376     ...7y.AC....W4vC
    74d8:	c800 674e c16d 43ab 3d00 6091 58e4 43e1     ..Ngm..C.=.`.X.C
    74e8:	8c40 78b5 af1d 4415 ef50 d6e2 1ae4 444b     @..x...DP.....KD
    74f8:	d592 064d f0cf 4480 4af6 c7e1 2d02 44b5     ..M....D.J...-.D
    7508:	9db4 79d9 7843 44ea                         ...yCx.D

00007510 <p05.6052>:
    7510:	0005 0000 0019 0000 007d 0000               ........}...

0000751c <_ctype_>:
    751c:	2000 2020 2020 2020 2020 2828 2828 2028     .         ((((( 
    752c:	2020 2020 2020 2020 2020 2020 2020 2020                     
    753c:	8820 1010 1010 1010 1010 1010 1010 1010      ...............
    754c:	0410 0404 0404 0404 0404 1004 1010 1010     ................
    755c:	1010 4141 4141 4141 0101 0101 0101 0101     ..AAAAAA........
    756c:	0101 0101 0101 0101 0101 0101 1010 1010     ................
    757c:	1010 4242 4242 4242 0202 0202 0202 0202     ..BBBBBB........
    758c:	0202 0202 0202 0202 0202 0202 1010 1010     ................
    759c:	0020 0000 0000 0000 0000 0000 0000 0000      ...............
	...

00007620 <__EH_FRAME_BEGIN__>:
    7620:	0000 0000                                   ....
