
LPC1768/ExperimentSPDT.elf:     file format elf32-littlearm
architecture: arm, flags 0x00000112:
EXEC_P, HAS_SYMS, D_PAGED
start address 0x000018f5


Disassembly of section .text:

00000000 <__isr_vector>:
       0:	10008000 	.word	0x10008000
       4:	000018f5 	.word	0x000018f5
       8:	00001925 	.word	0x00001925
       c:	00001927 	.word	0x00001927
      10:	00001929 	.word	0x00001929
      14:	0000192b 	.word	0x0000192b
      18:	0000192d 	.word	0x0000192d
	...
      2c:	0000192f 	.word	0x0000192f
      30:	00001931 	.word	0x00001931
      34:	00000000 	.word	0x00000000
      38:	00001933 	.word	0x00001933
      3c:	00001935 	.word	0x00001935
      40:	00001937 	.word	0x00001937
      44:	00001937 	.word	0x00001937
      48:	00001937 	.word	0x00001937
      4c:	00001937 	.word	0x00001937
      50:	00001937 	.word	0x00001937
      54:	00001937 	.word	0x00001937
      58:	00001937 	.word	0x00001937
      5c:	00001937 	.word	0x00001937
      60:	00001937 	.word	0x00001937
      64:	00001937 	.word	0x00001937
      68:	00001937 	.word	0x00001937
      6c:	00001937 	.word	0x00001937
      70:	00001937 	.word	0x00001937
      74:	00001937 	.word	0x00001937
      78:	00001937 	.word	0x00001937
      7c:	00001937 	.word	0x00001937
      80:	00001937 	.word	0x00001937
      84:	00001937 	.word	0x00001937
      88:	00001937 	.word	0x00001937
      8c:	00001937 	.word	0x00001937
      90:	00001937 	.word	0x00001937
      94:	00001937 	.word	0x00001937
      98:	00001937 	.word	0x00001937
      9c:	00001937 	.word	0x00001937
      a0:	00001937 	.word	0x00001937
      a4:	00001937 	.word	0x00001937
      a8:	00001937 	.word	0x00001937
      ac:	00001937 	.word	0x00001937
      b0:	00001937 	.word	0x00001937
      b4:	00001937 	.word	0x00001937
      b8:	00001937 	.word	0x00001937
      bc:	00001937 	.word	0x00001937
      c0:	00001937 	.word	0x00001937
      c4:	00001937 	.word	0x00001937
      c8:	00001937 	.word	0x00001937

000000cc <__do_global_dtors_aux>:
      cc:	b510      	push	{r4, lr}
      ce:	4c05      	ldr	r4, [pc, #20]	; (e4 <__do_global_dtors_aux+0x18>)
      d0:	7823      	ldrb	r3, [r4, #0]
      d2:	b933      	cbnz	r3, e2 <__do_global_dtors_aux+0x16>
      d4:	4b04      	ldr	r3, [pc, #16]	; (e8 <__do_global_dtors_aux+0x1c>)
      d6:	b113      	cbz	r3, de <__do_global_dtors_aux+0x12>
      d8:	4804      	ldr	r0, [pc, #16]	; (ec <__do_global_dtors_aux+0x20>)
      da:	f3af 8000 	nop.w
      de:	2301      	movs	r3, #1
      e0:	7023      	strb	r3, [r4, #0]
      e2:	bd10      	pop	{r4, pc}
      e4:	100002b4 	.word	0x100002b4
      e8:	00000000 	.word	0x00000000
      ec:	00006218 	.word	0x00006218

000000f0 <frame_dummy>:
      f0:	4b0c      	ldr	r3, [pc, #48]	; (124 <frame_dummy+0x34>)
      f2:	b143      	cbz	r3, 106 <frame_dummy+0x16>
      f4:	480c      	ldr	r0, [pc, #48]	; (128 <frame_dummy+0x38>)
      f6:	b510      	push	{r4, lr}
      f8:	490c      	ldr	r1, [pc, #48]	; (12c <frame_dummy+0x3c>)
      fa:	f3af 8000 	nop.w
      fe:	480c      	ldr	r0, [pc, #48]	; (130 <frame_dummy+0x40>)
     100:	6803      	ldr	r3, [r0, #0]
     102:	b923      	cbnz	r3, 10e <frame_dummy+0x1e>
     104:	bd10      	pop	{r4, pc}
     106:	480a      	ldr	r0, [pc, #40]	; (130 <frame_dummy+0x40>)
     108:	6803      	ldr	r3, [r0, #0]
     10a:	b933      	cbnz	r3, 11a <frame_dummy+0x2a>
     10c:	4770      	bx	lr
     10e:	4b09      	ldr	r3, [pc, #36]	; (134 <frame_dummy+0x44>)
     110:	2b00      	cmp	r3, #0
     112:	d0f7      	beq.n	104 <frame_dummy+0x14>
     114:	e8bd 4010 	ldmia.w	sp!, {r4, lr}
     118:	4718      	bx	r3
     11a:	4b06      	ldr	r3, [pc, #24]	; (134 <frame_dummy+0x44>)
     11c:	2b00      	cmp	r3, #0
     11e:	d0f5      	beq.n	10c <frame_dummy+0x1c>
     120:	4718      	bx	r3
     122:	bf00      	nop
     124:	00000000 	.word	0x00000000
     128:	00006218 	.word	0x00006218
     12c:	100002b8 	.word	0x100002b8
     130:	100002b4 	.word	0x100002b4
     134:	00000000 	.word	0x00000000

00000138 <mbed::SerialBase::~SerialBase()>:
     138:	b570      	push	{r4, r5, r6, lr}
     13a:	4605      	mov	r5, r0
     13c:	4b09      	ldr	r3, [pc, #36]	; (164 <mbed::SerialBase::~SerialBase()+0x2c>)
     13e:	4606      	mov	r6, r0
     140:	f845 3b0c 	str.w	r3, [r5], #12
     144:	b15d      	cbz	r5, 15e <mbed::SerialBase::~SerialBase()+0x26>
     146:	f100 042c 	add.w	r4, r0, #44	; 0x2c
     14a:	42ac      	cmp	r4, r5
     14c:	d007      	beq.n	15e <mbed::SerialBase::~SerialBase()+0x26>
     14e:	3c10      	subs	r4, #16
     150:	68e3      	ldr	r3, [r4, #12]
     152:	2b00      	cmp	r3, #0
     154:	d0f9      	beq.n	14a <mbed::SerialBase::~SerialBase()+0x12>
     156:	689b      	ldr	r3, [r3, #8]
     158:	4620      	mov	r0, r4
     15a:	4798      	blx	r3
     15c:	e7f5      	b.n	14a <mbed::SerialBase::~SerialBase()+0x12>
     15e:	4630      	mov	r0, r6
     160:	bd70      	pop	{r4, r5, r6, pc}
     162:	bf00      	nop
     164:	00005e54 	.word	0x00005e54

00000168 <mbed::Serial::~Serial()>:
     168:	b510      	push	{r4, lr}
     16a:	4604      	mov	r4, r0
     16c:	4b05      	ldr	r3, [pc, #20]	; (184 <mbed::Serial::~Serial()+0x1c>)
     16e:	6003      	str	r3, [r0, #0]
     170:	3320      	adds	r3, #32
     172:	f840 3f30 	str.w	r3, [r0, #48]!
     176:	f000 ff95 	bl	10a4 <mbed::Stream::~Stream()>
     17a:	4620      	mov	r0, r4
     17c:	f7ff ffdc 	bl	138 <mbed::SerialBase::~SerialBase()>
     180:	4620      	mov	r0, r4
     182:	bd10      	pop	{r4, pc}
     184:	00005d28 	.word	0x00005d28

00000188 <non-virtual thunk to mbed::Serial::~Serial()>:
     188:	f1a0 0030 	sub.w	r0, r0, #48	; 0x30
     18c:	e7ec      	b.n	168 <mbed::Serial::~Serial()>
     18e:	bf00      	nop

00000190 <mbed::SerialBase::~SerialBase()>:
     190:	b510      	push	{r4, lr}
     192:	4604      	mov	r4, r0
     194:	f7ff ffd0 	bl	138 <mbed::SerialBase::~SerialBase()>
     198:	4620      	mov	r0, r4
     19a:	f001 fadc 	bl	1756 <operator delete(void*)>
     19e:	4620      	mov	r0, r4
     1a0:	bd10      	pop	{r4, pc}
	...

000001a4 <main>:
     1a4:	e92d 4ff0 	stmdb	sp!, {r4, r5, r6, r7, r8, r9, r10, r11, lr}
     1a8:	f5ad 4d80 	sub.w	sp, sp, #16384	; 0x4000
     1ac:	b085      	sub	sp, #20
     1ae:	4942      	ldr	r1, [pc, #264]	; (2b8 <main+0x114>)
     1b0:	4842      	ldr	r0, [pc, #264]	; (2bc <main+0x118>)
     1b2:	f000 ff89 	bl	10c8 <mbed::Stream::printf(char const*, ...)>
     1b6:	4842      	ldr	r0, [pc, #264]	; (2c0 <main+0x11c>)
     1b8:	f001 f834 	bl	1224 <mbed::Timer::start()>
     1bc:	f000 f9b8 	bl	530 <core_util_critical_section_enter>
     1c0:	2103      	movs	r1, #3
     1c2:	4840      	ldr	r0, [pc, #256]	; (2c4 <main+0x120>)
     1c4:	f000 fa55 	bl	672 <gpio_mode>
     1c8:	f8df 80f8 	ldr.w	r8, [pc, #248]	; 2c4 <main+0x120>
     1cc:	f000 f9c6 	bl	55c <core_util_critical_section_exit>
     1d0:	493d      	ldr	r1, [pc, #244]	; (2c8 <main+0x124>)
     1d2:	483a      	ldr	r0, [pc, #232]	; (2bc <main+0x118>)
     1d4:	f000 ff78 	bl	10c8 <mbed::Stream::printf(char const*, ...)>
     1d8:	4839      	ldr	r0, [pc, #228]	; (2c0 <main+0x11c>)
     1da:	f001 f84f 	bl	127c <mbed::Timer::reset()>
     1de:	46c3      	mov	r11, r8
     1e0:	4d3a      	ldr	r5, [pc, #232]	; (2cc <main+0x128>)
     1e2:	f10d 0a10 	add.w	r10, sp, #16
     1e6:	f50d 5700 	add.w	r7, sp, #8192	; 0x2000
     1ea:	f44f 5200 	mov.w	r2, #8192	; 0x2000
     1ee:	2100      	movs	r1, #0
     1f0:	4650      	mov	r0, r10
     1f2:	3710      	adds	r7, #16
     1f4:	f002 f8fb 	bl	23ee <memset>
     1f8:	2100      	movs	r1, #0
     1fa:	f44f 5200 	mov.w	r2, #8192	; 0x2000
     1fe:	4638      	mov	r0, r7
     200:	f002 f8f5 	bl	23ee <memset>
     204:	f8d8 0014 	ldr.w	r0, [r8, #20]
     208:	f8d8 1004 	ldr.w	r1, [r8, #4]
     20c:	786b      	ldrb	r3, [r5, #1]
     20e:	6802      	ldr	r2, [r0, #0]
     210:	420a      	tst	r2, r1
     212:	bf14      	ite	ne
     214:	2201      	movne	r2, #1
     216:	2200      	moveq	r2, #0
     218:	429a      	cmp	r2, r3
     21a:	d0f8      	beq.n	20e <main+0x6a>
     21c:	2400      	movs	r4, #0
     21e:	4e28      	ldr	r6, [pc, #160]	; (2c0 <main+0x11c>)
     220:	f8db 3014 	ldr.w	r3, [r11, #20]
     224:	4630      	mov	r0, r6
     226:	681a      	ldr	r2, [r3, #0]
     228:	f8db 3004 	ldr.w	r3, [r11, #4]
     22c:	421a      	tst	r2, r3
     22e:	bf14      	ite	ne
     230:	2301      	movne	r3, #1
     232:	2300      	moveq	r3, #0
     234:	f84a 3024 	str.w	r3, [r10, r4, lsl #2]
     238:	f001 f813 	bl	1262 <mbed::Timer::read_us()>
     23c:	f847 0024 	str.w	r0, [r7, r4, lsl #2]
     240:	3401      	adds	r4, #1
     242:	f5b4 6f00 	cmp.w	r4, #2048	; 0x800
     246:	d1eb      	bne.n	220 <main+0x7c>
     248:	2400      	movs	r4, #0
     24a:	4626      	mov	r6, r4
     24c:	f815 3f01 	ldrb.w	r3, [r5, #1]!
     250:	9403      	str	r4, [sp, #12]
     252:	9402      	str	r4, [sp, #8]
     254:	f85a 9024 	ldr.w	r9, [r10, r4, lsl #2]
     258:	454b      	cmp	r3, r9
     25a:	d00e      	beq.n	27a <main+0xd6>
     25c:	b90c      	cbnz	r4, 262 <main+0xbe>
     25e:	683b      	ldr	r3, [r7, #0]
     260:	9303      	str	r3, [sp, #12]
     262:	f857 6024 	ldr.w	r6, [r7, r4, lsl #2]
     266:	4623      	mov	r3, r4
     268:	9600      	str	r6, [sp, #0]
     26a:	464a      	mov	r2, r9
     26c:	4918      	ldr	r1, [pc, #96]	; (2d0 <main+0x12c>)
     26e:	4813      	ldr	r0, [pc, #76]	; (2bc <main+0x118>)
     270:	f000 ff2a 	bl	10c8 <mbed::Stream::printf(char const*, ...)>
     274:	9b02      	ldr	r3, [sp, #8]
     276:	3301      	adds	r3, #1
     278:	9302      	str	r3, [sp, #8]
     27a:	f119 0300 	adds.w	r3, r9, #0
     27e:	f104 0401 	add.w	r4, r4, #1
     282:	bf18      	it	ne
     284:	2301      	movne	r3, #1
     286:	f5b4 6f00 	cmp.w	r4, #2048	; 0x800
     28a:	d1e3      	bne.n	254 <main+0xb0>
     28c:	9b03      	ldr	r3, [sp, #12]
     28e:	782a      	ldrb	r2, [r5, #0]
     290:	1af6      	subs	r6, r6, r3
     292:	9b02      	ldr	r3, [sp, #8]
     294:	9601      	str	r6, [sp, #4]
     296:	9300      	str	r3, [sp, #0]
     298:	490e      	ldr	r1, [pc, #56]	; (2d4 <main+0x130>)
     29a:	f082 0301 	eor.w	r3, r2, #1
     29e:	4807      	ldr	r0, [pc, #28]	; (2bc <main+0x118>)
     2a0:	f000 ff12 	bl	10c8 <mbed::Stream::printf(char const*, ...)>
     2a4:	4b0c      	ldr	r3, [pc, #48]	; (2d8 <main+0x134>)
     2a6:	42ab      	cmp	r3, r5
     2a8:	d19b      	bne.n	1e2 <main+0x3e>
     2aa:	2000      	movs	r0, #0
     2ac:	f50d 4d80 	add.w	sp, sp, #16384	; 0x4000
     2b0:	b005      	add	sp, #20
     2b2:	e8bd 8ff0 	ldmia.w	sp!, {r4, r5, r6, r7, r8, r9, r10, r11, pc}
     2b6:	bf00      	nop
     2b8:	00005b54 	.word	0x00005b54
     2bc:	10000300 	.word	0x10000300
     2c0:	10000330 	.word	0x10000330
     2c4:	10000318 	.word	0x10000318
     2c8:	00005b61 	.word	0x00005b61
     2cc:	100000cb 	.word	0x100000cb
     2d0:	00005b73 	.word	0x00005b73
     2d4:	00005b7e 	.word	0x00005b7e
     2d8:	100000cd 	.word	0x100000cd

000002dc <mbed::Serial::~Serial()>:
     2dc:	b510      	push	{r4, lr}
     2de:	4604      	mov	r4, r0
     2e0:	f7ff ff42 	bl	168 <mbed::Serial::~Serial()>
     2e4:	4620      	mov	r0, r4
     2e6:	f001 fa36 	bl	1756 <operator delete(void*)>
     2ea:	4620      	mov	r0, r4
     2ec:	bd10      	pop	{r4, pc}

000002ee <non-virtual thunk to mbed::Serial::~Serial()>:
     2ee:	f1a0 0030 	sub.w	r0, r0, #48	; 0x30
     2f2:	e7f3      	b.n	2dc <mbed::Serial::~Serial()>

000002f4 <_GLOBAL__sub_I_sw>:
     2f4:	b510      	push	{r4, lr}
     2f6:	4c0e      	ldr	r4, [pc, #56]	; (330 <_GLOBAL__sub_I_sw+0x3c>)
     2f8:	2218      	movs	r2, #24
     2fa:	2100      	movs	r1, #0
     2fc:	4620      	mov	r0, r4
     2fe:	f002 f876 	bl	23ee <memset>
     302:	4620      	mov	r0, r4
     304:	4c0b      	ldr	r4, [pc, #44]	; (334 <_GLOBAL__sub_I_sw+0x40>)
     306:	490c      	ldr	r1, [pc, #48]	; (338 <_GLOBAL__sub_I_sw+0x44>)
     308:	f000 f869 	bl	3de <gpio_init_in>
     30c:	f44f 33e1 	mov.w	r3, #115200	; 0x1c200
     310:	4a0a      	ldr	r2, [pc, #40]	; (33c <_GLOBAL__sub_I_sw+0x48>)
     312:	490b      	ldr	r1, [pc, #44]	; (340 <_GLOBAL__sub_I_sw+0x4c>)
     314:	4620      	mov	r0, r4
     316:	f000 fe09 	bl	f2c <mbed::Serial::Serial(PinName, PinName, int)>
     31a:	4620      	mov	r0, r4
     31c:	4a09      	ldr	r2, [pc, #36]	; (344 <_GLOBAL__sub_I_sw+0x50>)
     31e:	490a      	ldr	r1, [pc, #40]	; (348 <_GLOBAL__sub_I_sw+0x54>)
     320:	f001 f9ee 	bl	1700 <__aeabi_atexit>
     324:	e8bd 4010 	ldmia.w	sp!, {r4, lr}
     328:	4808      	ldr	r0, [pc, #32]	; (34c <_GLOBAL__sub_I_sw+0x58>)
     32a:	f000 bfb5 	b.w	1298 <mbed::Timer::Timer()>
     32e:	bf00      	nop
     330:	10000318 	.word	0x10000318
     334:	100002d0 	.word	0x100002d0
     338:	2009c001 	.word	0x2009c001
     33c:	2009c003 	.word	0x2009c003
     340:	2009c002 	.word	0x2009c002
     344:	100000c8 	.word	0x100000c8
     348:	00000169 	.word	0x00000169
     34c:	10000330 	.word	0x10000330

00000350 <_start>:
     350:	4807      	ldr	r0, [pc, #28]	; (370 <_start+0x20>)
     352:	4a08      	ldr	r2, [pc, #32]	; (374 <_start+0x24>)
     354:	b508      	push	{r3, lr}
     356:	1a12      	subs	r2, r2, r0
     358:	2100      	movs	r1, #0
     35a:	f002 f848 	bl	23ee <memset>
     35e:	f001 f989 	bl	1674 <software_init_hook>
     362:	f001 ff93 	bl	228c <__libc_init_array>
     366:	f001 f98c 	bl	1682 <__wrap_main>
     36a:	f001 f9cb 	bl	1704 <__wrap_exit>
     36e:	bf00      	nop
     370:	100002b4 	.word	0x100002b4
     374:	1000056c 	.word	0x1000056c

00000378 <__wrap__isatty>:
     378:	2802      	cmp	r0, #2
     37a:	dd01      	ble.n	380 <__wrap__isatty+0x8>
     37c:	f001 b92c 	b.w	15d8 <_isatty>
     380:	2001      	movs	r0, #1
     382:	4770      	bx	lr

00000384 <abort>:
     384:	b508      	push	{r3, lr}
     386:	2001      	movs	r0, #1
     388:	f001 f9bc 	bl	1704 <__wrap_exit>

0000038c <__cxa_pure_virtual>:
     38c:	b508      	push	{r3, lr}
     38e:	f7ff fff9 	bl	384 <abort>

00000392 <_gpio_init_in>:
     392:	b570      	push	{r4, r5, r6, lr}
     394:	460e      	mov	r6, r1
     396:	4604      	mov	r4, r0
     398:	4615      	mov	r5, r2
     39a:	f000 f953 	bl	644 <gpio_init>
     39e:	3601      	adds	r6, #1
     3a0:	d009      	beq.n	3b6 <_gpio_init_in+0x24>
     3a2:	4620      	mov	r0, r4
     3a4:	2100      	movs	r1, #0
     3a6:	f000 f967 	bl	678 <gpio_dir>
     3aa:	4629      	mov	r1, r5
     3ac:	4620      	mov	r0, r4
     3ae:	e8bd 4070 	ldmia.w	sp!, {r4, r5, r6, lr}
     3b2:	f000 b95e 	b.w	672 <gpio_mode>
     3b6:	bd70      	pop	{r4, r5, r6, pc}

000003b8 <_gpio_init_out.part.1>:
     3b8:	b538      	push	{r3, r4, r5, lr}
     3ba:	4604      	mov	r4, r0
     3bc:	460d      	mov	r5, r1
     3be:	6843      	ldr	r3, [r0, #4]
     3c0:	b15a      	cbz	r2, 3da <_gpio_init_out.part.1+0x22>
     3c2:	68c2      	ldr	r2, [r0, #12]
     3c4:	4620      	mov	r0, r4
     3c6:	6013      	str	r3, [r2, #0]
     3c8:	2101      	movs	r1, #1
     3ca:	f000 f955 	bl	678 <gpio_dir>
     3ce:	4629      	mov	r1, r5
     3d0:	4620      	mov	r0, r4
     3d2:	e8bd 4038 	ldmia.w	sp!, {r3, r4, r5, lr}
     3d6:	f000 b94c 	b.w	672 <gpio_mode>
     3da:	6902      	ldr	r2, [r0, #16]
     3dc:	e7f2      	b.n	3c4 <_gpio_init_out.part.1+0xc>

000003de <gpio_init_in>:
     3de:	2203      	movs	r2, #3
     3e0:	f7ff bfd7 	b.w	392 <_gpio_init_in>

000003e4 <gpio_init_out_ex>:
     3e4:	b570      	push	{r4, r5, r6, lr}
     3e6:	460e      	mov	r6, r1
     3e8:	4604      	mov	r4, r0
     3ea:	4615      	mov	r5, r2
     3ec:	f000 f92a 	bl	644 <gpio_init>
     3f0:	3601      	adds	r6, #1
     3f2:	d006      	beq.n	402 <gpio_init_out_ex+0x1e>
     3f4:	462a      	mov	r2, r5
     3f6:	4620      	mov	r0, r4
     3f8:	e8bd 4070 	ldmia.w	sp!, {r4, r5, r6, lr}
     3fc:	2102      	movs	r1, #2
     3fe:	f7ff bfdb 	b.w	3b8 <_gpio_init_out.part.1>
     402:	bd70      	pop	{r4, r5, r6, pc}

00000404 <gpio_init_out>:
     404:	2200      	movs	r2, #0
     406:	f7ff bfed 	b.w	3e4 <gpio_init_out_ex>
	...

0000040c <get_us_ticker_data>:
     40c:	4800      	ldr	r0, [pc, #0]	; (410 <get_us_ticker_data+0x4>)
     40e:	4770      	bx	lr
     410:	00005ba0 	.word	0x00005ba0

00000414 <us_ticker_irq_handler>:
     414:	4801      	ldr	r0, [pc, #4]	; (41c <us_ticker_irq_handler+0x8>)
     416:	f000 b803 	b.w	420 <ticker_irq_handler>
     41a:	bf00      	nop
     41c:	00005ba0 	.word	0x00005ba0

00000420 <ticker_irq_handler>:
     420:	6803      	ldr	r3, [r0, #0]
     422:	b570      	push	{r4, r5, r6, lr}
     424:	68db      	ldr	r3, [r3, #12]
     426:	4604      	mov	r4, r0
     428:	4798      	blx	r3
     42a:	6863      	ldr	r3, [r4, #4]
     42c:	685a      	ldr	r2, [r3, #4]
     42e:	6823      	ldr	r3, [r4, #0]
     430:	b91a      	cbnz	r2, 43a <ticker_irq_handler+0x1a>
     432:	689b      	ldr	r3, [r3, #8]
     434:	e8bd 4070 	ldmia.w	sp!, {r4, r5, r6, lr}
     438:	4718      	bx	r3
     43a:	685b      	ldr	r3, [r3, #4]
     43c:	6815      	ldr	r5, [r2, #0]
     43e:	4798      	blx	r3
     440:	6863      	ldr	r3, [r4, #4]
     442:	1a28      	subs	r0, r5, r0
     444:	2800      	cmp	r0, #0
     446:	685a      	ldr	r2, [r3, #4]
     448:	dc07      	bgt.n	45a <ticker_irq_handler+0x3a>
     44a:	6891      	ldr	r1, [r2, #8]
     44c:	6059      	str	r1, [r3, #4]
     44e:	681b      	ldr	r3, [r3, #0]
     450:	2b00      	cmp	r3, #0
     452:	d0ea      	beq.n	42a <ticker_irq_handler+0xa>
     454:	6850      	ldr	r0, [r2, #4]
     456:	4798      	blx	r3
     458:	e7e7      	b.n	42a <ticker_irq_handler+0xa>
     45a:	6823      	ldr	r3, [r4, #0]
     45c:	6810      	ldr	r0, [r2, #0]
     45e:	691b      	ldr	r3, [r3, #16]
     460:	e8bd 4070 	ldmia.w	sp!, {r4, r5, r6, lr}
     464:	4718      	bx	r3

00000466 <ticker_read>:
     466:	6803      	ldr	r3, [r0, #0]
     468:	685b      	ldr	r3, [r3, #4]
     46a:	4718      	bx	r3

0000046c <pinmap_pinout>:
     46c:	b510      	push	{r4, lr}
     46e:	4604      	mov	r4, r0
     470:	3001      	adds	r0, #1
     472:	d10d      	bne.n	490 <pinmap_pinout+0x24>
     474:	bd10      	pop	{r4, pc}
     476:	429c      	cmp	r4, r3
     478:	d109      	bne.n	48e <pinmap_pinout+0x22>
     47a:	4620      	mov	r0, r4
     47c:	6889      	ldr	r1, [r1, #8]
     47e:	f000 fc7f 	bl	d80 <pin_function>
     482:	4620      	mov	r0, r4
     484:	e8bd 4010 	ldmia.w	sp!, {r4, lr}
     488:	2102      	movs	r1, #2
     48a:	f000 bc92 	b.w	db2 <pin_mode>
     48e:	310c      	adds	r1, #12
     490:	680b      	ldr	r3, [r1, #0]
     492:	1c5a      	adds	r2, r3, #1
     494:	d1ef      	bne.n	476 <pinmap_pinout+0xa>
     496:	4802      	ldr	r0, [pc, #8]	; (4a0 <pinmap_pinout+0x34>)
     498:	e8bd 4010 	ldmia.w	sp!, {r4, lr}
     49c:	f000 b886 	b.w	5ac <error>
     4a0:	00005bed 	.word	0x00005bed

000004a4 <pinmap_merge>:
     4a4:	4288      	cmp	r0, r1
     4a6:	b508      	push	{r3, lr}
     4a8:	d008      	beq.n	4bc <pinmap_merge+0x18>
     4aa:	1c43      	adds	r3, r0, #1
     4ac:	d006      	beq.n	4bc <pinmap_merge+0x18>
     4ae:	3101      	adds	r1, #1
     4b0:	d006      	beq.n	4c0 <pinmap_merge+0x1c>
     4b2:	4804      	ldr	r0, [pc, #16]	; (4c4 <pinmap_merge+0x20>)
     4b4:	f000 f87a 	bl	5ac <error>
     4b8:	f04f 31ff 	mov.w	r1, #4294967295	; 0xffffffff
     4bc:	4608      	mov	r0, r1
     4be:	bd08      	pop	{r3, pc}
     4c0:	4601      	mov	r1, r0
     4c2:	e7fb      	b.n	4bc <pinmap_merge+0x18>
     4c4:	00005bbc 	.word	0x00005bbc

000004c8 <pinmap_find_peripheral>:
     4c8:	680b      	ldr	r3, [r1, #0]
     4ca:	1c5a      	adds	r2, r3, #1
     4cc:	d101      	bne.n	4d2 <pinmap_find_peripheral+0xa>
     4ce:	4618      	mov	r0, r3
     4d0:	4770      	bx	lr
     4d2:	4283      	cmp	r3, r0
     4d4:	d101      	bne.n	4da <pinmap_find_peripheral+0x12>
     4d6:	6848      	ldr	r0, [r1, #4]
     4d8:	4770      	bx	lr
     4da:	310c      	adds	r1, #12
     4dc:	e7f4      	b.n	4c8 <pinmap_find_peripheral>
	...

000004e0 <pinmap_peripheral>:
     4e0:	1c42      	adds	r2, r0, #1
     4e2:	b510      	push	{r4, lr}
     4e4:	4604      	mov	r4, r0
     4e6:	d007      	beq.n	4f8 <pinmap_peripheral+0x18>
     4e8:	f7ff ffee 	bl	4c8 <pinmap_find_peripheral>
     4ec:	1c43      	adds	r3, r0, #1
     4ee:	4604      	mov	r4, r0
     4f0:	d102      	bne.n	4f8 <pinmap_peripheral+0x18>
     4f2:	4802      	ldr	r0, [pc, #8]	; (4fc <pinmap_peripheral+0x1c>)
     4f4:	f000 f85a 	bl	5ac <error>
     4f8:	4620      	mov	r0, r4
     4fa:	bd10      	pop	{r4, pc}
     4fc:	00005bcd 	.word	0x00005bcd

00000500 <wait_us>:
     500:	b538      	push	{r3, r4, r5, lr}
     502:	4604      	mov	r4, r0
     504:	f000 fc16 	bl	d34 <us_ticker_read>
     508:	4605      	mov	r5, r0
     50a:	f000 fc13 	bl	d34 <us_ticker_read>
     50e:	1b40      	subs	r0, r0, r5
     510:	42a0      	cmp	r0, r4
     512:	d3fa      	bcc.n	50a <wait_us+0xa>
     514:	bd38      	pop	{r3, r4, r5, pc}

00000516 <wait_ms>:
     516:	f44f 737a 	mov.w	r3, #1000	; 0x3e8
     51a:	4358      	muls	r0, r3
     51c:	f7ff bff0 	b.w	500 <wait_us>

00000520 <mbed_interface_connected>:
     520:	f000 b83c 	b.w	59c <semihost_connected>

00000524 <core_util_are_interrupts_enabled>:
     524:	f3ef 8010 	mrs	r0, PRIMASK
     528:	43c0      	mvns	r0, r0
     52a:	f000 0001 	and.w	r0, r0, #1
     52e:	4770      	bx	lr

00000530 <core_util_critical_section_enter>:
     530:	b508      	push	{r3, lr}
     532:	f7ff fff7 	bl	524 <core_util_are_interrupts_enabled>
     536:	b672      	cpsid	i
     538:	4b06      	ldr	r3, [pc, #24]	; (554 <core_util_critical_section_enter+0x24>)
     53a:	681a      	ldr	r2, [r3, #0]
     53c:	b922      	cbnz	r2, 548 <core_util_critical_section_enter+0x18>
     53e:	f080 0001 	eor.w	r0, r0, #1
     542:	4a05      	ldr	r2, [pc, #20]	; (558 <core_util_critical_section_enter+0x28>)
     544:	b2c0      	uxtb	r0, r0
     546:	7010      	strb	r0, [r2, #0]
     548:	681a      	ldr	r2, [r3, #0]
     54a:	681a      	ldr	r2, [r3, #0]
     54c:	3201      	adds	r2, #1
     54e:	601a      	str	r2, [r3, #0]
     550:	bd08      	pop	{r3, pc}
     552:	bf00      	nop
     554:	1000034c 	.word	0x1000034c
     558:	10000348 	.word	0x10000348

0000055c <core_util_critical_section_exit>:
     55c:	b508      	push	{r3, lr}
     55e:	4b07      	ldr	r3, [pc, #28]	; (57c <core_util_critical_section_exit+0x20>)
     560:	681a      	ldr	r2, [r3, #0]
     562:	b152      	cbz	r2, 57a <core_util_critical_section_exit+0x1e>
     564:	f7ff ffde 	bl	524 <core_util_are_interrupts_enabled>
     568:	681a      	ldr	r2, [r3, #0]
     56a:	3a01      	subs	r2, #1
     56c:	601a      	str	r2, [r3, #0]
     56e:	681b      	ldr	r3, [r3, #0]
     570:	b91b      	cbnz	r3, 57a <core_util_critical_section_exit+0x1e>
     572:	4b03      	ldr	r3, [pc, #12]	; (580 <core_util_critical_section_exit+0x24>)
     574:	781b      	ldrb	r3, [r3, #0]
     576:	b903      	cbnz	r3, 57a <core_util_critical_section_exit+0x1e>
     578:	b662      	cpsie	i
     57a:	bd08      	pop	{r3, pc}
     57c:	1000034c 	.word	0x1000034c
     580:	10000348 	.word	0x10000348

00000584 <semihost_exit>:
     584:	b530      	push	{r4, r5, lr}
     586:	b085      	sub	sp, #20
     588:	466d      	mov	r5, sp
     58a:	2418      	movs	r4, #24
     58c:	4620      	mov	r0, r4
     58e:	4629      	mov	r1, r5
     590:	beab      	bkpt	0x00ab
     592:	4604      	mov	r4, r0
     594:	4620      	mov	r0, r4
     596:	b005      	add	sp, #20
     598:	bd30      	pop	{r4, r5, pc}
	...

0000059c <semihost_connected>:
     59c:	4b02      	ldr	r3, [pc, #8]	; (5a8 <semihost_connected+0xc>)
     59e:	6818      	ldr	r0, [r3, #0]
     5a0:	f000 0001 	and.w	r0, r0, #1
     5a4:	4770      	bx	lr
     5a6:	bf00      	nop
     5a8:	e000edf0 	.word	0xe000edf0

000005ac <error>:
     5ac:	b40f      	push	{r0, r1, r2, r3}
     5ae:	2001      	movs	r0, #1
     5b0:	b508      	push	{r3, lr}
     5b2:	f001 f8a7 	bl	1704 <__wrap_exit>
	...

000005b8 <mbed_die>:
     5b8:	b500      	push	{lr}
     5ba:	b099      	sub	sp, #100	; 0x64
     5bc:	f7ff ffb8 	bl	530 <core_util_critical_section_enter>
     5c0:	4917      	ldr	r1, [pc, #92]	; (620 <mbed_die+0x68>)
     5c2:	4668      	mov	r0, sp
     5c4:	f7ff ff1e 	bl	404 <gpio_init_out>
     5c8:	4916      	ldr	r1, [pc, #88]	; (624 <mbed_die+0x6c>)
     5ca:	a806      	add	r0, sp, #24
     5cc:	f7ff ff1a 	bl	404 <gpio_init_out>
     5d0:	4915      	ldr	r1, [pc, #84]	; (628 <mbed_die+0x70>)
     5d2:	a80c      	add	r0, sp, #48	; 0x30
     5d4:	f7ff ff16 	bl	404 <gpio_init_out>
     5d8:	4914      	ldr	r1, [pc, #80]	; (62c <mbed_die+0x74>)
     5da:	a812      	add	r0, sp, #72	; 0x48
     5dc:	f7ff ff12 	bl	404 <gpio_init_out>
     5e0:	9a01      	ldr	r2, [sp, #4]
     5e2:	9b03      	ldr	r3, [sp, #12]
     5e4:	2096      	movs	r0, #150	; 0x96
     5e6:	601a      	str	r2, [r3, #0]
     5e8:	9a07      	ldr	r2, [sp, #28]
     5ea:	9b0a      	ldr	r3, [sp, #40]	; 0x28
     5ec:	601a      	str	r2, [r3, #0]
     5ee:	9a0d      	ldr	r2, [sp, #52]	; 0x34
     5f0:	9b10      	ldr	r3, [sp, #64]	; 0x40
     5f2:	601a      	str	r2, [r3, #0]
     5f4:	9a13      	ldr	r2, [sp, #76]	; 0x4c
     5f6:	9b15      	ldr	r3, [sp, #84]	; 0x54
     5f8:	601a      	str	r2, [r3, #0]
     5fa:	f7ff ff8c 	bl	516 <wait_ms>
     5fe:	9a01      	ldr	r2, [sp, #4]
     600:	9b04      	ldr	r3, [sp, #16]
     602:	2096      	movs	r0, #150	; 0x96
     604:	601a      	str	r2, [r3, #0]
     606:	9a07      	ldr	r2, [sp, #28]
     608:	9b09      	ldr	r3, [sp, #36]	; 0x24
     60a:	601a      	str	r2, [r3, #0]
     60c:	9a0d      	ldr	r2, [sp, #52]	; 0x34
     60e:	9b0f      	ldr	r3, [sp, #60]	; 0x3c
     610:	601a      	str	r2, [r3, #0]
     612:	9a13      	ldr	r2, [sp, #76]	; 0x4c
     614:	9b16      	ldr	r3, [sp, #88]	; 0x58
     616:	601a      	str	r2, [r3, #0]
     618:	f7ff ff7d 	bl	516 <wait_ms>
     61c:	e7e0      	b.n	5e0 <mbed_die+0x28>
     61e:	bf00      	nop
     620:	2009c032 	.word	0x2009c032
     624:	2009c034 	.word	0x2009c034
     628:	2009c035 	.word	0x2009c035
     62c:	2009c037 	.word	0x2009c037

00000630 <gpio_set>:
     630:	b510      	push	{r4, lr}
     632:	2100      	movs	r1, #0
     634:	4604      	mov	r4, r0
     636:	f000 fba3 	bl	d80 <pin_function>
     63a:	2001      	movs	r0, #1
     63c:	f004 041f 	and.w	r4, r4, #31
     640:	40a0      	lsls	r0, r4
     642:	bd10      	pop	{r4, pc}

00000644 <gpio_init>:
     644:	b538      	push	{r3, r4, r5, lr}
     646:	4605      	mov	r5, r0
     648:	1c4b      	adds	r3, r1, #1
     64a:	460c      	mov	r4, r1
     64c:	6029      	str	r1, [r5, #0]
     64e:	d00f      	beq.n	670 <gpio_init+0x2c>
     650:	4608      	mov	r0, r1
     652:	f7ff ffed 	bl	630 <gpio_set>
     656:	f024 041f 	bic.w	r4, r4, #31
     65a:	f104 0318 	add.w	r3, r4, #24
     65e:	60eb      	str	r3, [r5, #12]
     660:	f104 031c 	add.w	r3, r4, #28
     664:	612b      	str	r3, [r5, #16]
     666:	f104 0314 	add.w	r3, r4, #20
     66a:	6068      	str	r0, [r5, #4]
     66c:	616b      	str	r3, [r5, #20]
     66e:	60ac      	str	r4, [r5, #8]
     670:	bd38      	pop	{r3, r4, r5, pc}

00000672 <gpio_mode>:
     672:	6800      	ldr	r0, [r0, #0]
     674:	f000 bb9d 	b.w	db2 <pin_mode>

00000678 <gpio_dir>:
     678:	b111      	cbz	r1, 680 <gpio_dir+0x8>
     67a:	2901      	cmp	r1, #1
     67c:	d007      	beq.n	68e <gpio_dir+0x16>
     67e:	4770      	bx	lr
     680:	6882      	ldr	r2, [r0, #8]
     682:	6841      	ldr	r1, [r0, #4]
     684:	6813      	ldr	r3, [r2, #0]
     686:	ea23 0301 	bic.w	r3, r3, r1
     68a:	6013      	str	r3, [r2, #0]
     68c:	4770      	bx	lr
     68e:	6882      	ldr	r2, [r0, #8]
     690:	6841      	ldr	r1, [r0, #4]
     692:	6813      	ldr	r3, [r2, #0]
     694:	430b      	orrs	r3, r1
     696:	e7f8      	b.n	68a <gpio_dir+0x12>

00000698 <uart_irq>:
     698:	2801      	cmp	r0, #1
     69a:	b410      	push	{r4}
     69c:	d008      	beq.n	6b0 <uart_irq+0x18>
     69e:	2802      	cmp	r0, #2
     6a0:	d008      	beq.n	6b4 <uart_irq+0x1c>
     6a2:	bc10      	pop	{r4}
     6a4:	4770      	bx	lr
     6a6:	6850      	ldr	r0, [r2, #4]
     6a8:	f020 0001 	bic.w	r0, r0, #1
     6ac:	6050      	str	r0, [r2, #4]
     6ae:	e010      	b.n	6d2 <uart_irq+0x3a>
     6b0:	4603      	mov	r3, r0
     6b2:	e00e      	b.n	6d2 <uart_irq+0x3a>
     6b4:	2338      	movs	r3, #56	; 0x38
     6b6:	480f      	ldr	r0, [pc, #60]	; (6f4 <uart_irq+0x5c>)
     6b8:	fb03 0301 	mla	r3, r3, r1, r0
     6bc:	6858      	ldr	r0, [r3, #4]
     6be:	3001      	adds	r0, #1
     6c0:	d006      	beq.n	6d0 <uart_irq+0x38>
     6c2:	6918      	ldr	r0, [r3, #16]
     6c4:	689c      	ldr	r4, [r3, #8]
     6c6:	6004      	str	r4, [r0, #0]
     6c8:	f893 3036 	ldrb.w	r3, [r3, #54]	; 0x36
     6cc:	2b00      	cmp	r3, #0
     6ce:	d0ea      	beq.n	6a6 <uart_irq+0xe>
     6d0:	2300      	movs	r3, #0
     6d2:	2238      	movs	r2, #56	; 0x38
     6d4:	4351      	muls	r1, r2
     6d6:	4807      	ldr	r0, [pc, #28]	; (6f4 <uart_irq+0x5c>)
     6d8:	1842      	adds	r2, r0, r1
     6da:	5840      	ldr	r0, [r0, r1]
     6dc:	2800      	cmp	r0, #0
     6de:	d0e0      	beq.n	6a2 <uart_irq+0xa>
     6e0:	b91b      	cbnz	r3, 6ea <uart_irq+0x52>
     6e2:	f892 2036 	ldrb.w	r2, [r2, #54]	; 0x36
     6e6:	2a00      	cmp	r2, #0
     6e8:	d0db      	beq.n	6a2 <uart_irq+0xa>
     6ea:	4a03      	ldr	r2, [pc, #12]	; (6f8 <uart_irq+0x60>)
     6ec:	4619      	mov	r1, r3
     6ee:	6812      	ldr	r2, [r2, #0]
     6f0:	bc10      	pop	{r4}
     6f2:	4710      	bx	r2
     6f4:	10000358 	.word	0x10000358
     6f8:	10000350 	.word	0x10000350

000006fc <uart0_irq>:
     6fc:	4a03      	ldr	r2, [pc, #12]	; (70c <uart0_irq+0x10>)
     6fe:	2100      	movs	r1, #0
     700:	6890      	ldr	r0, [r2, #8]
     702:	f3c0 0042 	ubfx	r0, r0, #1, #3
     706:	f7ff bfc7 	b.w	698 <uart_irq>
     70a:	bf00      	nop
     70c:	4000c000 	.word	0x4000c000

00000710 <uart1_irq>:
     710:	4a03      	ldr	r2, [pc, #12]	; (720 <uart1_irq+0x10>)
     712:	2101      	movs	r1, #1
     714:	6890      	ldr	r0, [r2, #8]
     716:	f3c0 0042 	ubfx	r0, r0, #1, #3
     71a:	f7ff bfbd 	b.w	698 <uart_irq>
     71e:	bf00      	nop
     720:	40010000 	.word	0x40010000

00000724 <uart2_irq>:
     724:	4a03      	ldr	r2, [pc, #12]	; (734 <uart2_irq+0x10>)
     726:	2102      	movs	r1, #2
     728:	6890      	ldr	r0, [r2, #8]
     72a:	f3c0 0042 	ubfx	r0, r0, #1, #3
     72e:	f7ff bfb3 	b.w	698 <uart_irq>
     732:	bf00      	nop
     734:	40098000 	.word	0x40098000

00000738 <uart3_irq>:
     738:	4a03      	ldr	r2, [pc, #12]	; (748 <uart3_irq+0x10>)
     73a:	2103      	movs	r1, #3
     73c:	6890      	ldr	r0, [r2, #8]
     73e:	f3c0 0042 	ubfx	r0, r0, #1, #3
     742:	f7ff bfa9 	b.w	698 <uart_irq>
     746:	bf00      	nop
     748:	4009c000 	.word	0x4009c000

0000074c <serial_irq_set_internal>:
     74c:	b570      	push	{r4, r5, r6, lr}
     74e:	460b      	mov	r3, r1
     750:	6806      	ldr	r6, [r0, #0]
     752:	4929      	ldr	r1, [pc, #164]	; (7f8 <serial_irq_set_internal+0xac>)
     754:	428e      	cmp	r6, r1
     756:	d022      	beq.n	79e <serial_irq_set_internal+0x52>
     758:	dc06      	bgt.n	768 <serial_irq_set_internal+0x1c>
     75a:	f5a1 4180 	sub.w	r1, r1, #16384	; 0x4000
     75e:	428e      	cmp	r6, r1
     760:	d00c      	beq.n	77c <serial_irq_set_internal+0x30>
     762:	2100      	movs	r1, #0
     764:	460c      	mov	r4, r1
     766:	e00b      	b.n	780 <serial_irq_set_internal+0x34>
     768:	4924      	ldr	r1, [pc, #144]	; (7fc <serial_irq_set_internal+0xb0>)
     76a:	428e      	cmp	r6, r1
     76c:	d01a      	beq.n	7a4 <serial_irq_set_internal+0x58>
     76e:	f501 4180 	add.w	r1, r1, #16384	; 0x4000
     772:	428e      	cmp	r6, r1
     774:	d1f5      	bne.n	762 <serial_irq_set_internal+0x16>
     776:	4922      	ldr	r1, [pc, #136]	; (800 <Heap_Size>)
     778:	2408      	movs	r4, #8
     77a:	e001      	b.n	780 <serial_irq_set_internal+0x34>
     77c:	2405      	movs	r4, #5
     77e:	4921      	ldr	r1, [pc, #132]	; (804 <Heap_Size+0x4>)
     780:	b19a      	cbz	r2, 7aa <serial_irq_set_internal+0x5e>
     782:	2501      	movs	r5, #1
     784:	6872      	ldr	r2, [r6, #4]
     786:	fa05 f303 	lsl.w	r3, r5, r3
     78a:	4313      	orrs	r3, r2
     78c:	6073      	str	r3, [r6, #4]
     78e:	4620      	mov	r0, r4
     790:	f000 fb3c 	bl	e0c <__NVIC_SetVector>
     794:	4b1c      	ldr	r3, [pc, #112]	; (808 <Heap_Size+0x8>)
     796:	fa05 f404 	lsl.w	r4, r5, r4
     79a:	601c      	str	r4, [r3, #0]
     79c:	bd70      	pop	{r4, r5, r6, pc}
     79e:	491b      	ldr	r1, [pc, #108]	; (80c <Heap_Size+0xc>)
     7a0:	2406      	movs	r4, #6
     7a2:	e7ed      	b.n	780 <serial_irq_set_internal+0x34>
     7a4:	491a      	ldr	r1, [pc, #104]	; (810 <Heap_Size+0x10>)
     7a6:	2407      	movs	r4, #7
     7a8:	e7ea      	b.n	780 <serial_irq_set_internal+0x34>
     7aa:	2b01      	cmp	r3, #1
     7ac:	d00a      	beq.n	7c4 <serial_irq_set_internal+0x78>
     7ae:	6842      	ldr	r2, [r0, #4]
     7b0:	2038      	movs	r0, #56	; 0x38
     7b2:	4918      	ldr	r1, [pc, #96]	; (814 <Heap_Size+0x14>)
     7b4:	fb00 1202 	mla	r2, r0, r2, r1
     7b8:	f892 1036 	ldrb.w	r1, [r2, #54]	; 0x36
     7bc:	f892 2035 	ldrb.w	r2, [r2, #53]	; 0x35
     7c0:	42d1      	cmn	r1, r2
     7c2:	d117      	bne.n	7f4 <serial_irq_set_internal+0xa8>
     7c4:	2201      	movs	r2, #1
     7c6:	fa02 f003 	lsl.w	r0, r2, r3
     7ca:	fab3 f383 	clz	r3, r3
     7ce:	6871      	ldr	r1, [r6, #4]
     7d0:	095b      	lsrs	r3, r3, #5
     7d2:	ea21 0100 	bic.w	r1, r1, r0
     7d6:	6071      	str	r1, [r6, #4]
     7d8:	6871      	ldr	r1, [r6, #4]
     7da:	fa02 f303 	lsl.w	r3, r2, r3
     7de:	420b      	tst	r3, r1
     7e0:	d108      	bne.n	7f4 <serial_irq_set_internal+0xa8>
     7e2:	4b09      	ldr	r3, [pc, #36]	; (808 <Heap_Size+0x8>)
     7e4:	fa02 f404 	lsl.w	r4, r2, r4
     7e8:	f8c3 4080 	str.w	r4, [r3, #128]	; 0x80
     7ec:	f3bf 8f4f 	dsb	sy
     7f0:	f3bf 8f6f 	isb	sy
     7f4:	bd70      	pop	{r4, r5, r6, pc}
     7f6:	bf00      	nop
     7f8:	40010000 	.word	0x40010000
     7fc:	40098000 	.word	0x40098000
     800:	00000739 	.word	0x00000739
     804:	000006fd 	.word	0x000006fd
     808:	e000e100 	.word	0xe000e100
     80c:	00000711 	.word	0x00000711
     810:	00000725 	.word	0x00000725
     814:	10000358 	.word	0x10000358

00000818 <serial_baud>:
     818:	e92d 4ff0 	stmdb	sp!, {r4, r5, r6, r7, r8, r9, r10, r11, lr}
     81c:	4b64      	ldr	r3, [pc, #400]	; (9b0 <serial_baud+0x198>)
     81e:	6804      	ldr	r4, [r0, #0]
     820:	b087      	sub	sp, #28
     822:	429c      	cmp	r4, r3
     824:	f000 808d 	beq.w	942 <serial_baud+0x12a>
     828:	dc6a      	bgt.n	900 <serial_baud+0xe8>
     82a:	f5a3 4380 	sub.w	r3, r3, #16384	; 0x4000
     82e:	429c      	cmp	r4, r3
     830:	d079      	beq.n	926 <serial_baud+0x10e>
     832:	4b60      	ldr	r3, [pc, #384]	; (9b4 <serial_baud+0x19c>)
     834:	0108      	lsls	r0, r1, #4
     836:	f8d3 c000 	ldr.w	r12, [r3]
     83a:	fbbc f2f0 	udiv	r2, r12, r0
     83e:	b293      	uxth	r3, r2
     840:	fb00 c212 	mls	r2, r0, r2, r12
     844:	2a00      	cmp	r2, #0
     846:	f000 80aa 	beq.w	99e <serial_baud+0x186>
     84a:	2501      	movs	r5, #1
     84c:	46e6      	mov	lr, r12
     84e:	4699      	mov	r9, r3
     850:	46ab      	mov	r11, r5
     852:	f04f 0a00 	mov.w	r10, #0
     856:	9101      	str	r1, [sp, #4]
     858:	9103      	str	r1, [sp, #12]
     85a:	2600      	movs	r6, #0
     85c:	ea4f 034e 	mov.w	r3, lr, lsl #1
     860:	9304      	str	r3, [sp, #16]
     862:	f8dd 8004 	ldr.w	r8, [sp, #4]
     866:	ea4f 038e 	mov.w	r3, lr, lsl #2
     86a:	b2ef      	uxtb	r7, r5
     86c:	9305      	str	r3, [sp, #20]
     86e:	b2f3      	uxtb	r3, r6
     870:	9300      	str	r3, [sp, #0]
     872:	9b04      	ldr	r3, [sp, #16]
     874:	2b00      	cmp	r3, #0
     876:	bfab      	itete	ge
     878:	9b05      	ldrge	r3, [sp, #20]
     87a:	fbb3 f3f8 	udivlt	r3, r3, r8
     87e:	fbb3 f3f8 	udivge	r3, r3, r8
     882:	091b      	lsrlt	r3, r3, #4
     884:	bfa8      	it	ge
     886:	095b      	lsrge	r3, r3, #5
     888:	3301      	adds	r3, #1
     88a:	f3c3 034f 	ubfx	r3, r3, #1, #16
     88e:	2b00      	cmp	r3, #0
     890:	f000 8088 	beq.w	9a4 <serial_baud+0x18c>
     894:	b116      	cbz	r6, 89c <serial_baud+0x84>
     896:	2b01      	cmp	r3, #1
     898:	bf08      	it	eq
     89a:	2302      	moveq	r3, #2
     89c:	19a8      	adds	r0, r5, r6
     89e:	4358      	muls	r0, r3
     8a0:	00c0      	lsls	r0, r0, #3
     8a2:	fbbe f0f0 	udiv	r0, lr, r0
     8a6:	3001      	adds	r0, #1
     8a8:	ebc1 0050 	rsb	r0, r1, r0, lsr #1
     8ac:	2800      	cmp	r0, #0
     8ae:	bfb8      	it	lt
     8b0:	4240      	neglt	r0, r0
     8b2:	9002      	str	r0, [sp, #8]
     8b4:	9a02      	ldr	r2, [sp, #8]
     8b6:	9803      	ldr	r0, [sp, #12]
     8b8:	4282      	cmp	r2, r0
     8ba:	da62      	bge.n	982 <serial_baud+0x16a>
     8bc:	4291      	cmp	r1, r2
     8be:	d15a      	bne.n	976 <serial_baud+0x15e>
     8c0:	2d0f      	cmp	r5, #15
     8c2:	d107      	bne.n	8d4 <serial_baud+0xbc>
     8c4:	46bb      	mov	r11, r7
     8c6:	4699      	mov	r9, r3
     8c8:	f8dd a000 	ldr.w	r10, [sp]
     8cc:	465f      	mov	r7, r11
     8ce:	464b      	mov	r3, r9
     8d0:	f8cd a000 	str.w	r10, [sp]
     8d4:	7b21      	ldrb	r1, [r4, #12]
     8d6:	f041 0180 	orr.w	r1, r1, #128	; 0x80
     8da:	7321      	strb	r1, [r4, #12]
     8dc:	f3c3 2107 	ubfx	r1, r3, #8, #8
     8e0:	b2db      	uxtb	r3, r3
     8e2:	7121      	strb	r1, [r4, #4]
     8e4:	7023      	strb	r3, [r4, #0]
     8e6:	9b00      	ldr	r3, [sp, #0]
     8e8:	ea43 1207 	orr.w	r2, r3, r7, lsl #4
     8ec:	b2d2      	uxtb	r2, r2
     8ee:	f884 2028 	strb.w	r2, [r4, #40]	; 0x28
     8f2:	7b23      	ldrb	r3, [r4, #12]
     8f4:	f003 037f 	and.w	r3, r3, #127	; 0x7f
     8f8:	7323      	strb	r3, [r4, #12]
     8fa:	b007      	add	sp, #28
     8fc:	e8bd 8ff0 	ldmia.w	sp!, {r4, r5, r6, r7, r8, r9, r10, r11, pc}
     900:	4b2d      	ldr	r3, [pc, #180]	; (9b8 <serial_baud+0x1a0>)
     902:	429c      	cmp	r4, r3
     904:	d029      	beq.n	95a <serial_baud+0x142>
     906:	f503 4380 	add.w	r3, r3, #16384	; 0x4000
     90a:	429c      	cmp	r4, r3
     90c:	d191      	bne.n	832 <serial_baud+0x1a>
     90e:	4b2b      	ldr	r3, [pc, #172]	; (9bc <serial_baud+0x1a4>)
     910:	f8d3 21ac 	ldr.w	r2, [r3, #428]	; 0x1ac
     914:	f422 2240 	bic.w	r2, r2, #786432	; 0xc0000
     918:	f8c3 21ac 	str.w	r2, [r3, #428]	; 0x1ac
     91c:	f8d3 21ac 	ldr.w	r2, [r3, #428]	; 0x1ac
     920:	f442 2280 	orr.w	r2, r2, #262144	; 0x40000
     924:	e024      	b.n	970 <serial_baud+0x158>
     926:	4b25      	ldr	r3, [pc, #148]	; (9bc <serial_baud+0x1a4>)
     928:	f8d3 21a8 	ldr.w	r2, [r3, #424]	; 0x1a8
     92c:	f022 02c0 	bic.w	r2, r2, #192	; 0xc0
     930:	f8c3 21a8 	str.w	r2, [r3, #424]	; 0x1a8
     934:	f8d3 21a8 	ldr.w	r2, [r3, #424]	; 0x1a8
     938:	f042 0240 	orr.w	r2, r2, #64	; 0x40
     93c:	f8c3 21a8 	str.w	r2, [r3, #424]	; 0x1a8
     940:	e777      	b.n	832 <serial_baud+0x1a>
     942:	4b1e      	ldr	r3, [pc, #120]	; (9bc <serial_baud+0x1a4>)
     944:	f8d3 21a8 	ldr.w	r2, [r3, #424]	; 0x1a8
     948:	f422 7240 	bic.w	r2, r2, #768	; 0x300
     94c:	f8c3 21a8 	str.w	r2, [r3, #424]	; 0x1a8
     950:	f8d3 21a8 	ldr.w	r2, [r3, #424]	; 0x1a8
     954:	f442 7280 	orr.w	r2, r2, #256	; 0x100
     958:	e7f0      	b.n	93c <serial_baud+0x124>
     95a:	4b18      	ldr	r3, [pc, #96]	; (9bc <serial_baud+0x1a4>)
     95c:	f8d3 21ac 	ldr.w	r2, [r3, #428]	; 0x1ac
     960:	f422 3240 	bic.w	r2, r2, #196608	; 0x30000
     964:	f8c3 21ac 	str.w	r2, [r3, #428]	; 0x1ac
     968:	f8d3 21ac 	ldr.w	r2, [r3, #428]	; 0x1ac
     96c:	f442 3280 	orr.w	r2, r2, #65536	; 0x10000
     970:	f8c3 21ac 	str.w	r2, [r3, #428]	; 0x1ac
     974:	e75d      	b.n	832 <serial_baud+0x1a>
     976:	46bb      	mov	r11, r7
     978:	4699      	mov	r9, r3
     97a:	9a02      	ldr	r2, [sp, #8]
     97c:	f8dd a000 	ldr.w	r10, [sp]
     980:	9203      	str	r2, [sp, #12]
     982:	3601      	adds	r6, #1
     984:	b2f3      	uxtb	r3, r6
     986:	42bb      	cmp	r3, r7
     988:	4488      	add	r8, r1
     98a:	f4ff af70 	bcc.w	86e <serial_baud+0x56>
     98e:	2d0f      	cmp	r5, #15
     990:	d09c      	beq.n	8cc <serial_baud+0xb4>
     992:	9b01      	ldr	r3, [sp, #4]
     994:	3501      	adds	r5, #1
     996:	440b      	add	r3, r1
     998:	44e6      	add	lr, r12
     99a:	9301      	str	r3, [sp, #4]
     99c:	e75d      	b.n	85a <serial_baud+0x42>
     99e:	2701      	movs	r7, #1
     9a0:	9200      	str	r2, [sp, #0]
     9a2:	e797      	b.n	8d4 <serial_baud+0xbc>
     9a4:	2e00      	cmp	r6, #0
     9a6:	bf0c      	ite	eq
     9a8:	2301      	moveq	r3, #1
     9aa:	2302      	movne	r3, #2
     9ac:	e776      	b.n	89c <serial_baud+0x84>
     9ae:	bf00      	nop
     9b0:	40010000 	.word	0x40010000
     9b4:	100000d0 	.word	0x100000d0
     9b8:	40098000 	.word	0x40098000
     9bc:	400fc000 	.word	0x400fc000

000009c0 <serial_irq_handler>:
     9c0:	4b03      	ldr	r3, [pc, #12]	; (9d0 <serial_irq_handler+0x10>)
     9c2:	6019      	str	r1, [r3, #0]
     9c4:	2338      	movs	r3, #56	; 0x38
     9c6:	6841      	ldr	r1, [r0, #4]
     9c8:	434b      	muls	r3, r1
     9ca:	4902      	ldr	r1, [pc, #8]	; (9d4 <serial_irq_handler+0x14>)
     9cc:	50ca      	str	r2, [r1, r3]
     9ce:	4770      	bx	lr
     9d0:	10000350 	.word	0x10000350
     9d4:	10000358 	.word	0x10000358

000009d8 <serial_getc>:
     9d8:	b510      	push	{r4, lr}
     9da:	6802      	ldr	r2, [r0, #0]
     9dc:	7d13      	ldrb	r3, [r2, #20]
     9de:	07db      	lsls	r3, r3, #31
     9e0:	d5fc      	bpl.n	9dc <serial_getc+0x4>
     9e2:	2438      	movs	r4, #56	; 0x38
     9e4:	6843      	ldr	r3, [r0, #4]
     9e6:	4808      	ldr	r0, [pc, #32]	; (a08 <serial_getc+0x30>)
     9e8:	7811      	ldrb	r1, [r2, #0]
     9ea:	fb04 0303 	mla	r3, r4, r3, r0
     9ee:	6858      	ldr	r0, [r3, #4]
     9f0:	b2c9      	uxtb	r1, r1
     9f2:	3001      	adds	r0, #1
     9f4:	d006      	beq.n	a04 <serial_getc+0x2c>
     9f6:	6958      	ldr	r0, [r3, #20]
     9f8:	689b      	ldr	r3, [r3, #8]
     9fa:	6003      	str	r3, [r0, #0]
     9fc:	6853      	ldr	r3, [r2, #4]
     9fe:	f043 0301 	orr.w	r3, r3, #1
     a02:	6053      	str	r3, [r2, #4]
     a04:	4608      	mov	r0, r1
     a06:	bd10      	pop	{r4, pc}
     a08:	10000358 	.word	0x10000358

00000a0c <serial_writable>:
     a0c:	2138      	movs	r1, #56	; 0x38
     a0e:	4a11      	ldr	r2, [pc, #68]	; (a54 <serial_writable+0x48>)
     a10:	6843      	ldr	r3, [r0, #4]
     a12:	fb01 2303 	mla	r3, r1, r3, r2
     a16:	69da      	ldr	r2, [r3, #28]
     a18:	3201      	adds	r2, #1
     a1a:	d009      	beq.n	a30 <serial_writable+0x24>
     a1c:	6b1a      	ldr	r2, [r3, #48]	; 0x30
     a1e:	6a1b      	ldr	r3, [r3, #32]
     a20:	6812      	ldr	r2, [r2, #0]
     a22:	421a      	tst	r2, r3
     a24:	d114      	bne.n	a50 <serial_writable+0x44>
     a26:	6803      	ldr	r3, [r0, #0]
     a28:	7d18      	ldrb	r0, [r3, #20]
     a2a:	f3c0 1080 	ubfx	r0, r0, #6, #1
     a2e:	4770      	bx	lr
     a30:	6802      	ldr	r2, [r0, #0]
     a32:	7d12      	ldrb	r2, [r2, #20]
     a34:	0692      	lsls	r2, r2, #26
     a36:	d504      	bpl.n	a42 <serial_writable+0x36>
     a38:	2200      	movs	r2, #0
     a3a:	2001      	movs	r0, #1
     a3c:	f883 2034 	strb.w	r2, [r3, #52]	; 0x34
     a40:	4770      	bx	lr
     a42:	f893 0034 	ldrb.w	r0, [r3, #52]	; 0x34
     a46:	280f      	cmp	r0, #15
     a48:	bf8c      	ite	hi
     a4a:	2000      	movhi	r0, #0
     a4c:	2001      	movls	r0, #1
     a4e:	4770      	bx	lr
     a50:	2000      	movs	r0, #0
     a52:	4770      	bx	lr
     a54:	10000358 	.word	0x10000358

00000a58 <serial_putc>:
     a58:	b538      	push	{r3, r4, r5, lr}
     a5a:	4604      	mov	r4, r0
     a5c:	460d      	mov	r5, r1
     a5e:	4620      	mov	r0, r4
     a60:	f7ff ffd4 	bl	a0c <serial_writable>
     a64:	2800      	cmp	r0, #0
     a66:	d0fa      	beq.n	a5e <serial_putc+0x6>
     a68:	2138      	movs	r1, #56	; 0x38
     a6a:	6823      	ldr	r3, [r4, #0]
     a6c:	b2ed      	uxtb	r5, r5
     a6e:	701d      	strb	r5, [r3, #0]
     a70:	6863      	ldr	r3, [r4, #4]
     a72:	4a04      	ldr	r2, [pc, #16]	; (a84 <serial_putc+0x2c>)
     a74:	fb01 2303 	mla	r3, r1, r3, r2
     a78:	f893 2034 	ldrb.w	r2, [r3, #52]	; 0x34
     a7c:	3201      	adds	r2, #1
     a7e:	f883 2034 	strb.w	r2, [r3, #52]	; 0x34
     a82:	bd38      	pop	{r3, r4, r5, pc}
     a84:	10000358 	.word	0x10000358

00000a88 <serial_set_flow_control>:
     a88:	e92d 4ff8 	stmdb	sp!, {r3, r4, r5, r6, r7, r8, r9, r10, r11, lr}
     a8c:	469a      	mov	r10, r3
     a8e:	4c3c      	ldr	r4, [pc, #240]	; (b80 <serial_set_flow_control+0xf8>)
     a90:	6803      	ldr	r3, [r0, #0]
     a92:	4605      	mov	r5, r0
     a94:	42a3      	cmp	r3, r4
     a96:	bf18      	it	ne
     a98:	2400      	movne	r4, #0
     a9a:	4689      	mov	r9, r1
     a9c:	4690      	mov	r8, r2
     a9e:	6847      	ldr	r7, [r0, #4]
     aa0:	b11c      	cbz	r4, aaa <serial_set_flow_control+0x22>
     aa2:	7c23      	ldrb	r3, [r4, #16]
     aa4:	f003 033f 	and.w	r3, r3, #63	; 0x3f
     aa8:	7423      	strb	r3, [r4, #16]
     aaa:	2338      	movs	r3, #56	; 0x38
     aac:	f04f 32ff 	mov.w	r2, #4294967295	; 0xffffffff
     ab0:	4e34      	ldr	r6, [pc, #208]	; (b84 <serial_set_flow_control+0xfc>)
     ab2:	4628      	mov	r0, r5
     ab4:	fb03 6307 	mla	r3, r3, r7, r6
     ab8:	61da      	str	r2, [r3, #28]
     aba:	605a      	str	r2, [r3, #4]
     abc:	2200      	movs	r2, #0
     abe:	f883 2035 	strb.w	r2, [r3, #53]	; 0x35
     ac2:	4611      	mov	r1, r2
     ac4:	f7ff fe42 	bl	74c <serial_irq_set_internal>
     ac8:	f1b9 0f00 	cmp.w	r9, #0
     acc:	d055      	beq.n	b7a <serial_set_flow_control+0xf2>
     ace:	492e      	ldr	r1, [pc, #184]	; (b88 <serial_set_flow_control+0x100>)
     ad0:	4640      	mov	r0, r8
     ad2:	f7ff fcf9 	bl	4c8 <pinmap_find_peripheral>
     ad6:	492d      	ldr	r1, [pc, #180]	; (b8c <serial_set_flow_control+0x104>)
     ad8:	4683      	mov	r11, r0
     ada:	4650      	mov	r0, r10
     adc:	f7ff fcf4 	bl	4c8 <pinmap_find_peripheral>
     ae0:	f1a9 0302 	sub.w	r3, r9, #2
     ae4:	2b01      	cmp	r3, #1
     ae6:	d81b      	bhi.n	b20 <serial_set_flow_control+0x98>
     ae8:	f1ba 3fff 	cmp.w	r10, #4294967295	; 0xffffffff
     aec:	d00b      	beq.n	b06 <serial_set_flow_control+0x7e>
     aee:	4b24      	ldr	r3, [pc, #144]	; (b80 <serial_set_flow_control+0xf8>)
     af0:	4298      	cmp	r0, r3
     af2:	d10d      	bne.n	b10 <serial_set_flow_control+0x88>
     af4:	b164      	cbz	r4, b10 <serial_set_flow_control+0x88>
     af6:	7c23      	ldrb	r3, [r4, #16]
     af8:	4924      	ldr	r1, [pc, #144]	; (b8c <serial_set_flow_control+0x104>)
     afa:	f043 0380 	orr.w	r3, r3, #128	; 0x80
     afe:	7423      	strb	r3, [r4, #16]
     b00:	4650      	mov	r0, r10
     b02:	f7ff fcb3 	bl	46c <pinmap_pinout>
     b06:	f1b9 0f03 	cmp.w	r9, #3
     b0a:	d00c      	beq.n	b26 <serial_set_flow_control+0x9e>
     b0c:	e8bd 8ff8 	ldmia.w	sp!, {r3, r4, r5, r6, r7, r8, r9, r10, r11, pc}
     b10:	2038      	movs	r0, #56	; 0x38
     b12:	fb00 6007 	mla	r0, r0, r7, r6
     b16:	4651      	mov	r1, r10
     b18:	301c      	adds	r0, #28
     b1a:	f7ff fc60 	bl	3de <gpio_init_in>
     b1e:	e7f2      	b.n	b06 <serial_set_flow_control+0x7e>
     b20:	f1b9 0f01 	cmp.w	r9, #1
     b24:	d129      	bne.n	b7a <serial_set_flow_control+0xf2>
     b26:	f1b8 3fff 	cmp.w	r8, #4294967295	; 0xffffffff
     b2a:	d101      	bne.n	b30 <serial_set_flow_control+0xa8>
     b2c:	e8bd 8ff8 	ldmia.w	sp!, {r3, r4, r5, r6, r7, r8, r9, r10, r11, pc}
     b30:	2207      	movs	r2, #7
     b32:	682b      	ldr	r3, [r5, #0]
     b34:	721a      	strb	r2, [r3, #8]
     b36:	4b12      	ldr	r3, [pc, #72]	; (b80 <serial_set_flow_control+0xf8>)
     b38:	459b      	cmp	r11, r3
     b3a:	d10a      	bne.n	b52 <serial_set_flow_control+0xca>
     b3c:	b14c      	cbz	r4, b52 <serial_set_flow_control+0xca>
     b3e:	7c23      	ldrb	r3, [r4, #16]
     b40:	4640      	mov	r0, r8
     b42:	f043 0340 	orr.w	r3, r3, #64	; 0x40
     b46:	7423      	strb	r3, [r4, #16]
     b48:	490f      	ldr	r1, [pc, #60]	; (b88 <serial_set_flow_control+0x100>)
     b4a:	e8bd 4ff8 	ldmia.w	sp!, {r3, r4, r5, r6, r7, r8, r9, r10, r11, lr}
     b4e:	f7ff bc8d 	b.w	46c <pinmap_pinout>
     b52:	2438      	movs	r4, #56	; 0x38
     b54:	fb04 6007 	mla	r0, r4, r7, r6
     b58:	4641      	mov	r1, r8
     b5a:	2200      	movs	r2, #0
     b5c:	3004      	adds	r0, #4
     b5e:	f7ff fc41 	bl	3e4 <gpio_init_out_ex>
     b62:	2201      	movs	r2, #1
     b64:	686b      	ldr	r3, [r5, #4]
     b66:	4628      	mov	r0, r5
     b68:	fb04 6603 	mla	r6, r4, r3, r6
     b6c:	f886 2035 	strb.w	r2, [r6, #53]	; 0x35
     b70:	2100      	movs	r1, #0
     b72:	e8bd 4ff8 	ldmia.w	sp!, {r3, r4, r5, r6, r7, r8, r9, r10, r11, lr}
     b76:	f7ff bde9 	b.w	74c <serial_irq_set_internal>
     b7a:	e8bd 8ff8 	ldmia.w	sp!, {r3, r4, r5, r6, r7, r8, r9, r10, r11, pc}
     b7e:	bf00      	nop
     b80:	40010000 	.word	0x40010000
     b84:	10000358 	.word	0x10000358
     b88:	00005c24 	.word	0x00005c24
     b8c:	00005c00 	.word	0x00005c00

00000b90 <serial_init>:
     b90:	e92d 41f0 	stmdb	sp!, {r4, r5, r6, r7, r8, lr}
     b94:	460f      	mov	r7, r1
     b96:	4605      	mov	r5, r0
     b98:	4946      	ldr	r1, [pc, #280]	; (cb4 <Stack_Size+0xb4>)
     b9a:	4638      	mov	r0, r7
     b9c:	4616      	mov	r6, r2
     b9e:	f7ff fc9f 	bl	4e0 <pinmap_peripheral>
     ba2:	4945      	ldr	r1, [pc, #276]	; (cb8 <Stack_Size+0xb8>)
     ba4:	4604      	mov	r4, r0
     ba6:	4630      	mov	r0, r6
     ba8:	f7ff fc9a 	bl	4e0 <pinmap_peripheral>
     bac:	4601      	mov	r1, r0
     bae:	4620      	mov	r0, r4
     bb0:	f7ff fc78 	bl	4a4 <pinmap_merge>
     bb4:	4b41      	ldr	r3, [pc, #260]	; (cbc <Stack_Size+0xbc>)
     bb6:	4604      	mov	r4, r0
     bb8:	4298      	cmp	r0, r3
     bba:	6028      	str	r0, [r5, #0]
     bbc:	d05d      	beq.n	c7a <Stack_Size+0x7a>
     bbe:	d847      	bhi.n	c50 <Stack_Size+0x50>
     bc0:	f5a3 4380 	sub.w	r3, r3, #16384	; 0x4000
     bc4:	4298      	cmp	r0, r3
     bc6:	d050      	beq.n	c6a <Stack_Size+0x6a>
     bc8:	2301      	movs	r3, #1
     bca:	f04f 0800 	mov.w	r8, #0
     bce:	7223      	strb	r3, [r4, #8]
     bd0:	f44f 5116 	mov.w	r1, #9600	; 0x2580
     bd4:	4628      	mov	r0, r5
     bd6:	f8c4 8004 	str.w	r8, [r4, #4]
     bda:	f7ff fe1d 	bl	818 <serial_baud>
     bde:	2203      	movs	r2, #3
     be0:	682b      	ldr	r3, [r5, #0]
     be2:	4934      	ldr	r1, [pc, #208]	; (cb4 <Stack_Size+0xb4>)
     be4:	731a      	strb	r2, [r3, #12]
     be6:	4638      	mov	r0, r7
     be8:	f7ff fc40 	bl	46c <pinmap_pinout>
     bec:	4932      	ldr	r1, [pc, #200]	; (cb8 <Stack_Size+0xb8>)
     bee:	4630      	mov	r0, r6
     bf0:	f7ff fc3c 	bl	46c <pinmap_pinout>
     bf4:	1c7a      	adds	r2, r7, #1
     bf6:	d003      	beq.n	c00 <Stack_Size>
     bf8:	4641      	mov	r1, r8
     bfa:	4638      	mov	r0, r7
     bfc:	f000 f8d9 	bl	db2 <pin_mode>
     c00:	1c73      	adds	r3, r6, #1
     c02:	d003      	beq.n	c0c <Stack_Size+0xc>
     c04:	2100      	movs	r1, #0
     c06:	4630      	mov	r0, r6
     c08:	f000 f8d3 	bl	db2 <pin_mode>
     c0c:	4b2b      	ldr	r3, [pc, #172]	; (cbc <Stack_Size+0xbc>)
     c0e:	429c      	cmp	r4, r3
     c10:	d04b      	beq.n	caa <Stack_Size+0xaa>
     c12:	d83e      	bhi.n	c92 <Stack_Size+0x92>
     c14:	f5a3 4380 	sub.w	r3, r3, #16384	; 0x4000
     c18:	429c      	cmp	r4, r3
     c1a:	d043      	beq.n	ca4 <Stack_Size+0xa4>
     c1c:	2138      	movs	r1, #56	; 0x38
     c1e:	686a      	ldr	r2, [r5, #4]
     c20:	4b27      	ldr	r3, [pc, #156]	; (cc0 <Stack_Size+0xc0>)
     c22:	4628      	mov	r0, r5
     c24:	fb01 3202 	mla	r2, r1, r2, r3
     c28:	f04f 33ff 	mov.w	r3, #4294967295	; 0xffffffff
     c2c:	2100      	movs	r1, #0
     c2e:	6053      	str	r3, [r2, #4]
     c30:	61d3      	str	r3, [r2, #28]
     c32:	461a      	mov	r2, r3
     c34:	f7ff ff28 	bl	a88 <serial_set_flow_control>
     c38:	4b22      	ldr	r3, [pc, #136]	; (cc4 <Stack_Size+0xc4>)
     c3a:	429c      	cmp	r4, r3
     c3c:	d106      	bne.n	c4c <Stack_Size+0x4c>
     c3e:	2201      	movs	r2, #1
     c40:	4b21      	ldr	r3, [pc, #132]	; (cc8 <Stack_Size+0xc8>)
     c42:	6869      	ldr	r1, [r5, #4]
     c44:	601a      	str	r2, [r3, #0]
     c46:	6828      	ldr	r0, [r5, #0]
     c48:	4b20      	ldr	r3, [pc, #128]	; (ccc <Stack_Size+0xcc>)
     c4a:	c303      	stmia	r3!, {r0, r1}
     c4c:	e8bd 81f0 	ldmia.w	sp!, {r4, r5, r6, r7, r8, pc}
     c50:	4b1f      	ldr	r3, [pc, #124]	; (cd0 <Stack_Size+0xd0>)
     c52:	4298      	cmp	r0, r3
     c54:	d017      	beq.n	c86 <Stack_Size+0x86>
     c56:	f503 4380 	add.w	r3, r3, #16384	; 0x4000
     c5a:	4298      	cmp	r0, r3
     c5c:	d1b4      	bne.n	bc8 <serial_init+0x38>
     c5e:	4a1d      	ldr	r2, [pc, #116]	; (cd4 <Stack_Size+0xd4>)
     c60:	f8d2 30c4 	ldr.w	r3, [r2, #196]	; 0xc4
     c64:	f043 7300 	orr.w	r3, r3, #33554432	; 0x2000000
     c68:	e004      	b.n	c74 <Stack_Size+0x74>
     c6a:	4a1a      	ldr	r2, [pc, #104]	; (cd4 <Stack_Size+0xd4>)
     c6c:	f8d2 30c4 	ldr.w	r3, [r2, #196]	; 0xc4
     c70:	f043 0308 	orr.w	r3, r3, #8
     c74:	f8c2 30c4 	str.w	r3, [r2, #196]	; 0xc4
     c78:	e7a6      	b.n	bc8 <serial_init+0x38>
     c7a:	4a16      	ldr	r2, [pc, #88]	; (cd4 <Stack_Size+0xd4>)
     c7c:	f8d2 30c4 	ldr.w	r3, [r2, #196]	; 0xc4
     c80:	f043 0310 	orr.w	r3, r3, #16
     c84:	e7f6      	b.n	c74 <Stack_Size+0x74>
     c86:	4a13      	ldr	r2, [pc, #76]	; (cd4 <Stack_Size+0xd4>)
     c88:	f8d2 30c4 	ldr.w	r3, [r2, #196]	; 0xc4
     c8c:	f043 7380 	orr.w	r3, r3, #16777216	; 0x1000000
     c90:	e7f0      	b.n	c74 <Stack_Size+0x74>
     c92:	4b0f      	ldr	r3, [pc, #60]	; (cd0 <Stack_Size+0xd0>)
     c94:	429c      	cmp	r4, r3
     c96:	d00a      	beq.n	cae <Stack_Size+0xae>
     c98:	f503 4380 	add.w	r3, r3, #16384	; 0x4000
     c9c:	429c      	cmp	r4, r3
     c9e:	d1bd      	bne.n	c1c <Stack_Size+0x1c>
     ca0:	2303      	movs	r3, #3
     ca2:	e000      	b.n	ca6 <Stack_Size+0xa6>
     ca4:	2300      	movs	r3, #0
     ca6:	606b      	str	r3, [r5, #4]
     ca8:	e7b8      	b.n	c1c <Stack_Size+0x1c>
     caa:	2301      	movs	r3, #1
     cac:	e7fb      	b.n	ca6 <Stack_Size+0xa6>
     cae:	2302      	movs	r3, #2
     cb0:	e7f9      	b.n	ca6 <Stack_Size+0xa6>
     cb2:	bf00      	nop
     cb4:	00005cb4 	.word	0x00005cb4
     cb8:	00005c48 	.word	0x00005c48
     cbc:	40010000 	.word	0x40010000
     cc0:	10000358 	.word	0x10000358
     cc4:	4000c000 	.word	0x4000c000
     cc8:	10000354 	.word	0x10000354
     ccc:	10000560 	.word	0x10000560
     cd0:	40098000 	.word	0x40098000
     cd4:	400fc000 	.word	0x400fc000

00000cd8 <us_ticker_init>:
     cd8:	b508      	push	{r3, lr}
     cda:	4b10      	ldr	r3, [pc, #64]	; (d1c <us_ticker_init+0x44>)
     cdc:	6818      	ldr	r0, [r3, #0]
     cde:	b9e0      	cbnz	r0, d1a <us_ticker_init+0x42>
     ce0:	2101      	movs	r1, #1
     ce2:	4a0f      	ldr	r2, [pc, #60]	; (d20 <us_ticker_init+0x48>)
     ce4:	6019      	str	r1, [r3, #0]
     ce6:	f8d2 30c4 	ldr.w	r3, [r2, #196]	; 0xc4
     cea:	f443 0300 	orr.w	r3, r3, #8388608	; 0x800000
     cee:	f8c2 30c4 	str.w	r3, [r2, #196]	; 0xc4
     cf2:	f5a2 22d0 	sub.w	r2, r2, #425984	; 0x68000
     cf6:	6710      	str	r0, [r2, #112]	; 0x70
     cf8:	2002      	movs	r0, #2
     cfa:	4b0a      	ldr	r3, [pc, #40]	; (d24 <us_ticker_init+0x4c>)
     cfc:	681b      	ldr	r3, [r3, #0]
     cfe:	6050      	str	r0, [r2, #4]
     d00:	4809      	ldr	r0, [pc, #36]	; (d28 <us_ticker_init+0x50>)
     d02:	fbb3 f3f0 	udiv	r3, r3, r0
     d06:	3b01      	subs	r3, #1
     d08:	60d3      	str	r3, [r2, #12]
     d0a:	2004      	movs	r0, #4
     d0c:	6051      	str	r1, [r2, #4]
     d0e:	4907      	ldr	r1, [pc, #28]	; (d2c <us_ticker_init+0x54>)
     d10:	f000 f87c 	bl	e0c <__NVIC_SetVector>
     d14:	2210      	movs	r2, #16
     d16:	4b06      	ldr	r3, [pc, #24]	; (d30 <us_ticker_init+0x58>)
     d18:	601a      	str	r2, [r3, #0]
     d1a:	bd08      	pop	{r3, pc}
     d1c:	10000438 	.word	0x10000438
     d20:	400fc000 	.word	0x400fc000
     d24:	100000d0 	.word	0x100000d0
     d28:	003d0900 	.word	0x003d0900
     d2c:	00000415 	.word	0x00000415
     d30:	e000e100 	.word	0xe000e100

00000d34 <us_ticker_read>:
     d34:	b508      	push	{r3, lr}
     d36:	4b04      	ldr	r3, [pc, #16]	; (d48 <us_ticker_read+0x14>)
     d38:	681b      	ldr	r3, [r3, #0]
     d3a:	b90b      	cbnz	r3, d40 <us_ticker_read+0xc>
     d3c:	f7ff ffcc 	bl	cd8 <us_ticker_init>
     d40:	4b02      	ldr	r3, [pc, #8]	; (d4c <us_ticker_read+0x18>)
     d42:	6898      	ldr	r0, [r3, #8]
     d44:	bd08      	pop	{r3, pc}
     d46:	bf00      	nop
     d48:	10000438 	.word	0x10000438
     d4c:	40094000 	.word	0x40094000

00000d50 <us_ticker_set_interrupt>:
     d50:	4b03      	ldr	r3, [pc, #12]	; (d60 <us_ticker_set_interrupt+0x10>)
     d52:	6198      	str	r0, [r3, #24]
     d54:	695a      	ldr	r2, [r3, #20]
     d56:	f042 0201 	orr.w	r2, r2, #1
     d5a:	615a      	str	r2, [r3, #20]
     d5c:	4770      	bx	lr
     d5e:	bf00      	nop
     d60:	40094000 	.word	0x40094000

00000d64 <us_ticker_disable_interrupt>:
     d64:	4a02      	ldr	r2, [pc, #8]	; (d70 <us_ticker_disable_interrupt+0xc>)
     d66:	6953      	ldr	r3, [r2, #20]
     d68:	f023 0301 	bic.w	r3, r3, #1
     d6c:	6153      	str	r3, [r2, #20]
     d6e:	4770      	bx	lr
     d70:	40094000 	.word	0x40094000

00000d74 <us_ticker_clear_interrupt>:
     d74:	2201      	movs	r2, #1
     d76:	4b01      	ldr	r3, [pc, #4]	; (d7c <us_ticker_clear_interrupt+0x8>)
     d78:	601a      	str	r2, [r3, #0]
     d7a:	4770      	bx	lr
     d7c:	40094000 	.word	0x40094000

00000d80 <pin_function>:
     d80:	b510      	push	{r4, lr}
     d82:	2403      	movs	r4, #3
     d84:	f100 4060 	add.w	r0, r0, #3758096384	; 0xe0000000
     d88:	f5a0 201c 	sub.w	r0, r0, #638976	; 0x9c000
     d8c:	0043      	lsls	r3, r0, #1
     d8e:	0900      	lsrs	r0, r0, #4
     d90:	0080      	lsls	r0, r0, #2
     d92:	f100 4080 	add.w	r0, r0, #1073741824	; 0x40000000
     d96:	f500 3030 	add.w	r0, r0, #180224	; 0x2c000
     d9a:	6802      	ldr	r2, [r0, #0]
     d9c:	f003 031e 	and.w	r3, r3, #30
     da0:	409c      	lsls	r4, r3
     da2:	ea22 0204 	bic.w	r2, r2, r4
     da6:	6002      	str	r2, [r0, #0]
     da8:	6802      	ldr	r2, [r0, #0]
     daa:	4099      	lsls	r1, r3
     dac:	4311      	orrs	r1, r2
     dae:	6001      	str	r1, [r0, #0]
     db0:	bd10      	pop	{r4, pc}

00000db2 <pin_mode>:
     db2:	f100 4060 	add.w	r0, r0, #3758096384	; 0xe0000000
     db6:	f5a0 201c 	sub.w	r0, r0, #638976	; 0x9c000
     dba:	0943      	lsrs	r3, r0, #5
     dbc:	009b      	lsls	r3, r3, #2
     dbe:	f103 4380 	add.w	r3, r3, #1073741824	; 0x40000000
     dc2:	f503 3330 	add.w	r3, r3, #180224	; 0x2c000
     dc6:	b530      	push	{r4, r5, lr}
     dc8:	f000 021f 	and.w	r2, r0, #31
     dcc:	6e9c      	ldr	r4, [r3, #104]	; 0x68
     dce:	f3c1 0580 	ubfx	r5, r1, #2, #1
     dd2:	fa05 f202 	lsl.w	r2, r5, r2
     dd6:	ea24 0402 	bic.w	r4, r4, r2
     dda:	669c      	str	r4, [r3, #104]	; 0x68
     ddc:	6e9c      	ldr	r4, [r3, #104]	; 0x68
     dde:	4322      	orrs	r2, r4
     de0:	669a      	str	r2, [r3, #104]	; 0x68
     de2:	b995      	cbnz	r5, e0a <pin_mode+0x58>
     de4:	2403      	movs	r4, #3
     de6:	0043      	lsls	r3, r0, #1
     de8:	0900      	lsrs	r0, r0, #4
     dea:	0080      	lsls	r0, r0, #2
     dec:	f100 4080 	add.w	r0, r0, #1073741824	; 0x40000000
     df0:	f500 3030 	add.w	r0, r0, #180224	; 0x2c000
     df4:	6c02      	ldr	r2, [r0, #64]	; 0x40
     df6:	f003 031e 	and.w	r3, r3, #30
     dfa:	409c      	lsls	r4, r3
     dfc:	ea22 0204 	bic.w	r2, r2, r4
     e00:	6402      	str	r2, [r0, #64]	; 0x40
     e02:	6c02      	ldr	r2, [r0, #64]	; 0x40
     e04:	4099      	lsls	r1, r3
     e06:	4311      	orrs	r1, r2
     e08:	6401      	str	r1, [r0, #64]	; 0x40
     e0a:	bd30      	pop	{r4, r5, pc}

00000e0c <__NVIC_SetVector>:
     e0c:	b530      	push	{r4, r5, lr}
     e0e:	4c0c      	ldr	r4, [pc, #48]	; (e40 <__NVIC_SetVector+0x34>)
     e10:	68a2      	ldr	r2, [r4, #8]
     e12:	68a4      	ldr	r4, [r4, #8]
     e14:	4613      	mov	r3, r2
     e16:	f1b4 5f80 	cmp.w	r4, #268435456	; 0x10000000
     e1a:	d20c      	bcs.n	e36 <__NVIC_SetVector+0x2a>
     e1c:	1f13      	subs	r3, r2, #4
     e1e:	4c09      	ldr	r4, [pc, #36]	; (e44 <__NVIC_SetVector+0x38>)
     e20:	4a09      	ldr	r2, [pc, #36]	; (e48 <__NVIC_SetVector+0x3c>)
     e22:	f853 5f04 	ldr.w	r5, [r3, #4]!
     e26:	f842 5f04 	str.w	r5, [r2, #4]!
     e2a:	42a2      	cmp	r2, r4
     e2c:	d1f9      	bne.n	e22 <__NVIC_SetVector+0x16>
     e2e:	f04f 5380 	mov.w	r3, #268435456	; 0x10000000
     e32:	4a03      	ldr	r2, [pc, #12]	; (e40 <__NVIC_SetVector+0x34>)
     e34:	6093      	str	r3, [r2, #8]
     e36:	3010      	adds	r0, #16
     e38:	f843 1020 	str.w	r1, [r3, r0, lsl #2]
     e3c:	bd30      	pop	{r4, r5, pc}
     e3e:	bf00      	nop
     e40:	e000ed00 	.word	0xe000ed00
     e44:	100000c0 	.word	0x100000c0
     e48:	0ffffffc 	.word	0x0ffffffc

00000e4c <SystemInit>:
     e4c:	2220      	movs	r2, #32
     e4e:	4b26      	ldr	r3, [pc, #152]	; (ee8 <SystemInit+0x9c>)
     e50:	f8c3 21a0 	str.w	r2, [r3, #416]	; 0x1a0
     e54:	f8d3 21a0 	ldr.w	r2, [r3, #416]	; 0x1a0
     e58:	0692      	lsls	r2, r2, #26
     e5a:	d503      	bpl.n	e64 <SystemInit+0x18>
     e5c:	f8d3 21a0 	ldr.w	r2, [r3, #416]	; 0x1a0
     e60:	0650      	lsls	r0, r2, #25
     e62:	d5fb      	bpl.n	e5c <SystemInit+0x10>
     e64:	2202      	movs	r2, #2
     e66:	f8c3 2104 	str.w	r2, [r3, #260]	; 0x104
     e6a:	2200      	movs	r2, #0
     e6c:	2001      	movs	r0, #1
     e6e:	f8c3 21a8 	str.w	r2, [r3, #424]	; 0x1a8
     e72:	f8c3 21ac 	str.w	r2, [r3, #428]	; 0x1ac
     e76:	220b      	movs	r2, #11
     e78:	f8c3 010c 	str.w	r0, [r3, #268]	; 0x10c
     e7c:	21aa      	movs	r1, #170	; 0xaa
     e7e:	f8c3 2084 	str.w	r2, [r3, #132]	; 0x84
     e82:	2255      	movs	r2, #85	; 0x55
     e84:	f8c3 108c 	str.w	r1, [r3, #140]	; 0x8c
     e88:	f8c3 208c 	str.w	r2, [r3, #140]	; 0x8c
     e8c:	f8c3 0080 	str.w	r0, [r3, #128]	; 0x80
     e90:	f8c3 108c 	str.w	r1, [r3, #140]	; 0x8c
     e94:	f8c3 208c 	str.w	r2, [r3, #140]	; 0x8c
     e98:	4b13      	ldr	r3, [pc, #76]	; (ee8 <SystemInit+0x9c>)
     e9a:	461a      	mov	r2, r3
     e9c:	f8d3 1088 	ldr.w	r1, [r3, #136]	; 0x88
     ea0:	0149      	lsls	r1, r1, #5
     ea2:	d5fb      	bpl.n	e9c <SystemInit+0x50>
     ea4:	2103      	movs	r1, #3
     ea6:	f8c3 1080 	str.w	r1, [r3, #128]	; 0x80
     eaa:	21aa      	movs	r1, #170	; 0xaa
     eac:	f8c3 108c 	str.w	r1, [r3, #140]	; 0x8c
     eb0:	2155      	movs	r1, #85	; 0x55
     eb2:	f8c3 108c 	str.w	r1, [r3, #140]	; 0x8c
     eb6:	f8d2 3088 	ldr.w	r3, [r2, #136]	; 0x88
     eba:	f013 7f40 	tst.w	r3, #50331648	; 0x3000000
     ebe:	d0fa      	beq.n	eb6 <SystemInit+0x6a>
     ec0:	2305      	movs	r3, #5
     ec2:	f8c2 3108 	str.w	r3, [r2, #264]	; 0x108
     ec6:	4b09      	ldr	r3, [pc, #36]	; (eec <SystemInit+0xa0>)
     ec8:	f8c2 30c4 	str.w	r3, [r2, #196]	; 0xc4
     ecc:	2300      	movs	r3, #0
     ece:	f8c2 31c8 	str.w	r3, [r2, #456]	; 0x1c8
     ed2:	6813      	ldr	r3, [r2, #0]
     ed4:	f423 4370 	bic.w	r3, r3, #61440	; 0xf000
     ed8:	f023 033a 	bic.w	r3, r3, #58	; 0x3a
     edc:	f443 5340 	orr.w	r3, r3, #12288	; 0x3000
     ee0:	f043 033a 	orr.w	r3, r3, #58	; 0x3a
     ee4:	6013      	str	r3, [r2, #0]
     ee6:	4770      	bx	lr
     ee8:	400fc000 	.word	0x400fc000
     eec:	042887de 	.word	0x042887de

00000ef0 <mbed::FileLike::lseek(long, int)>:
     ef0:	6803      	ldr	r3, [r0, #0]
     ef2:	69db      	ldr	r3, [r3, #28]
     ef4:	4718      	bx	r3

00000ef6 <mbed::FileLike::fsync()>:
     ef6:	6803      	ldr	r3, [r0, #0]
     ef8:	695b      	ldr	r3, [r3, #20]
     efa:	4718      	bx	r3

00000efc <mbed::FileLike::flen()>:
     efc:	6803      	ldr	r3, [r0, #0]
     efe:	6a9b      	ldr	r3, [r3, #40]	; 0x28
     f00:	4718      	bx	r3

00000f02 <mbed::Serial::lock()>:
     f02:	4770      	bx	lr

00000f04 <non-virtual thunk to mbed::Serial::lock()>:
     f04:	f1a0 0030 	sub.w	r0, r0, #48	; 0x30
     f08:	f7ff bffb 	b.w	f02 <mbed::Serial::lock()>

00000f0c <non-virtual thunk to mbed::Serial::unlock()>:
     f0c:	f1a0 0030 	sub.w	r0, r0, #48	; 0x30
     f10:	f7ff bff7 	b.w	f02 <mbed::Serial::lock()>

00000f14 <mbed::Serial::_getc()>:
     f14:	f000 b9d8 	b.w	12c8 <mbed::SerialBase::_base_getc()>

00000f18 <non-virtual thunk to mbed::Serial::_getc()>:
     f18:	f1a0 0030 	sub.w	r0, r0, #48	; 0x30
     f1c:	f7ff bffa 	b.w	f14 <mbed::Serial::_getc()>

00000f20 <mbed::Serial::_putc(int)>:
     f20:	f000 b9d5 	b.w	12ce <mbed::SerialBase::_base_putc(int)>

00000f24 <non-virtual thunk to mbed::Serial::_putc(int)>:
     f24:	f1a0 0030 	sub.w	r0, r0, #48	; 0x30
     f28:	f7ff bffa 	b.w	f20 <mbed::Serial::_putc(int)>

00000f2c <mbed::Serial::Serial(PinName, PinName, int)>:
     f2c:	b510      	push	{r4, lr}
     f2e:	4604      	mov	r4, r0
     f30:	f000 f9d4 	bl	12dc <mbed::SerialBase::SerialBase(PinName, PinName, int)>
     f34:	2100      	movs	r1, #0
     f36:	f104 0030 	add.w	r0, r4, #48	; 0x30
     f3a:	f000 f895 	bl	1068 <mbed::Stream::Stream(char const*)>
     f3e:	4b04      	ldr	r3, [pc, #16]	; (f50 <mbed::Serial::Serial(PinName, PinName, int)+0x24>)
     f40:	4620      	mov	r0, r4
     f42:	f103 0208 	add.w	r2, r3, #8
     f46:	3328      	adds	r3, #40	; 0x28
     f48:	6022      	str	r2, [r4, #0]
     f4a:	6323      	str	r3, [r4, #48]	; 0x30
     f4c:	bd10      	pop	{r4, pc}
     f4e:	bf00      	nop
     f50:	00005d20 	.word	0x00005d20

00000f54 <mbed::Callback<void ()>::~Callback()>:
     f54:	68c3      	ldr	r3, [r0, #12]
     f56:	b510      	push	{r4, lr}
     f58:	4604      	mov	r4, r0
     f5a:	b10b      	cbz	r3, f60 <mbed::Callback<void ()>::~Callback()+0xc>
     f5c:	689b      	ldr	r3, [r3, #8]
     f5e:	4798      	blx	r3
     f60:	4620      	mov	r0, r4
     f62:	bd10      	pop	{r4, pc}

00000f64 <mbed::FilePath::FilePath(char const*)>:
     f64:	2300      	movs	r3, #0
     f66:	b510      	push	{r4, lr}
     f68:	6003      	str	r3, [r0, #0]
     f6a:	6043      	str	r3, [r0, #4]
     f6c:	780a      	ldrb	r2, [r1, #0]
     f6e:	4604      	mov	r4, r0
     f70:	2a2f      	cmp	r2, #47	; 0x2f
     f72:	d10d      	bne.n	f90 <mbed::FilePath::FilePath(char const*)+0x2c>
     f74:	784a      	ldrb	r2, [r1, #1]
     f76:	b15a      	cbz	r2, f90 <mbed::FilePath::FilePath(char const*)+0x2c>
     f78:	1c48      	adds	r0, r1, #1
     f7a:	4619      	mov	r1, r3
     f7c:	6020      	str	r0, [r4, #0]
     f7e:	6823      	ldr	r3, [r4, #0]
     f80:	781a      	ldrb	r2, [r3, #0]
     f82:	2a2f      	cmp	r2, #47	; 0x2f
     f84:	d106      	bne.n	f94 <mbed::FilePath::FilePath(char const*)+0x30>
     f86:	3301      	adds	r3, #1
     f88:	6023      	str	r3, [r4, #0]
     f8a:	f000 f929 	bl	11e0 <mbed::FileBase::lookup(char const*, unsigned int)>
     f8e:	6060      	str	r0, [r4, #4]
     f90:	4620      	mov	r0, r4
     f92:	bd10      	pop	{r4, pc}
     f94:	2a00      	cmp	r2, #0
     f96:	d0f8      	beq.n	f8a <mbed::FilePath::FilePath(char const*)+0x26>
     f98:	3301      	adds	r3, #1
     f9a:	3101      	adds	r1, #1
     f9c:	6023      	str	r3, [r4, #0]
     f9e:	e7ee      	b.n	f7e <mbed::FilePath::FilePath(char const*)+0x1a>

00000fa0 <mbed::FilePath::fileName()>:
     fa0:	6800      	ldr	r0, [r0, #0]
     fa2:	4770      	bx	lr

00000fa4 <mbed::FilePath::isFileSystem()>:
     fa4:	6840      	ldr	r0, [r0, #4]
     fa6:	b508      	push	{r3, lr}
     fa8:	b120      	cbz	r0, fb4 <mbed::FilePath::isFileSystem()+0x10>
     faa:	f000 f8c3 	bl	1134 <mbed::FileBase::getPathType()>
     fae:	1e43      	subs	r3, r0, #1
     fb0:	4258      	negs	r0, r3
     fb2:	4158      	adcs	r0, r3
     fb4:	bd08      	pop	{r3, pc}

00000fb6 <mbed::FilePath::fileSystem()>:
     fb6:	b510      	push	{r4, lr}
     fb8:	4604      	mov	r4, r0
     fba:	f7ff fff3 	bl	fa4 <mbed::FilePath::isFileSystem()>
     fbe:	b100      	cbz	r0, fc2 <mbed::FilePath::fileSystem()+0xc>
     fc0:	6860      	ldr	r0, [r4, #4]
     fc2:	bd10      	pop	{r4, pc}

00000fc4 <mbed::FilePath::isFile()>:
     fc4:	6840      	ldr	r0, [r0, #4]
     fc6:	b508      	push	{r3, lr}
     fc8:	b120      	cbz	r0, fd4 <mbed::FilePath::isFile()+0x10>
     fca:	f000 f8b3 	bl	1134 <mbed::FileBase::getPathType()>
     fce:	fab0 f080 	clz	r0, r0
     fd2:	0940      	lsrs	r0, r0, #5
     fd4:	bd08      	pop	{r3, pc}

00000fd6 <mbed::FilePath::file()>:
     fd6:	b510      	push	{r4, lr}
     fd8:	4604      	mov	r4, r0
     fda:	f7ff fff3 	bl	fc4 <mbed::FilePath::isFile()>
     fde:	b100      	cbz	r0, fe2 <mbed::FilePath::file()+0xc>
     fe0:	6860      	ldr	r0, [r4, #4]
     fe2:	bd10      	pop	{r4, pc}

00000fe4 <mbed::FilePath::exists()>:
     fe4:	6840      	ldr	r0, [r0, #4]
     fe6:	3000      	adds	r0, #0
     fe8:	bf18      	it	ne
     fea:	2001      	movne	r0, #1
     fec:	4770      	bx	lr

00000fee <mbed::FileLike::lock()>:
     fee:	4770      	bx	lr

00000ff0 <mbed::FileLike::unlock()>:
     ff0:	4770      	bx	lr

00000ff2 <mbed::Stream::write(void const*, unsigned int)>:
     ff2:	b5f8      	push	{r3, r4, r5, r6, r7, lr}
     ff4:	460e      	mov	r6, r1
     ff6:	6803      	ldr	r3, [r0, #0]
     ff8:	4604      	mov	r4, r0
     ffa:	6b9b      	ldr	r3, [r3, #56]	; 0x38
     ffc:	188f      	adds	r7, r1, r2
     ffe:	4635      	mov	r5, r6
    1000:	4798      	blx	r3
    1002:	42bd      	cmp	r5, r7
    1004:	d007      	beq.n	1016 <mbed::Stream::write(void const*, unsigned int)+0x24>
    1006:	6823      	ldr	r3, [r4, #0]
    1008:	f815 1b01 	ldrb.w	r1, [r5], #1
    100c:	6c1b      	ldr	r3, [r3, #64]	; 0x40
    100e:	4620      	mov	r0, r4
    1010:	4798      	blx	r3
    1012:	3001      	adds	r0, #1
    1014:	d1f5      	bne.n	1002 <mbed::Stream::write(void const*, unsigned int)+0x10>
    1016:	6823      	ldr	r3, [r4, #0]
    1018:	4620      	mov	r0, r4
    101a:	6bdb      	ldr	r3, [r3, #60]	; 0x3c
    101c:	4798      	blx	r3
    101e:	1ba8      	subs	r0, r5, r6
    1020:	bdf8      	pop	{r3, r4, r5, r6, r7, pc}

00001022 <mbed::Stream::read(void*, unsigned int)>:
    1022:	b5f8      	push	{r3, r4, r5, r6, r7, lr}
    1024:	460e      	mov	r6, r1
    1026:	6803      	ldr	r3, [r0, #0]
    1028:	4604      	mov	r4, r0
    102a:	6b9b      	ldr	r3, [r3, #56]	; 0x38
    102c:	188f      	adds	r7, r1, r2
    102e:	4635      	mov	r5, r6
    1030:	4798      	blx	r3
    1032:	42bd      	cmp	r5, r7
    1034:	d008      	beq.n	1048 <mbed::Stream::read(void*, unsigned int)+0x26>
    1036:	6823      	ldr	r3, [r4, #0]
    1038:	4620      	mov	r0, r4
    103a:	6c5b      	ldr	r3, [r3, #68]	; 0x44
    103c:	4798      	blx	r3
    103e:	1c43      	adds	r3, r0, #1
    1040:	d002      	beq.n	1048 <mbed::Stream::read(void*, unsigned int)+0x26>
    1042:	f805 0b01 	strb.w	r0, [r5], #1
    1046:	e7f4      	b.n	1032 <mbed::Stream::read(void*, unsigned int)+0x10>
    1048:	6823      	ldr	r3, [r4, #0]
    104a:	4620      	mov	r0, r4
    104c:	6bdb      	ldr	r3, [r3, #60]	; 0x3c
    104e:	4798      	blx	r3
    1050:	1ba8      	subs	r0, r5, r6
    1052:	bdf8      	pop	{r3, r4, r5, r6, r7, pc}

00001054 <mbed::Stream::seek(long, int)>:
    1054:	2000      	movs	r0, #0
    1056:	4770      	bx	lr

00001058 <mbed::Stream::tell()>:
    1058:	2000      	movs	r0, #0
    105a:	4770      	bx	lr

0000105c <mbed::Stream::rewind()>:
    105c:	4770      	bx	lr

0000105e <mbed::Stream::sync()>:
    105e:	2000      	movs	r0, #0
    1060:	4770      	bx	lr

00001062 <mbed::Stream::size()>:
    1062:	2000      	movs	r0, #0
    1064:	4770      	bx	lr
	...

00001068 <mbed::Stream::Stream(char const*)>:
    1068:	b51f      	push	{r0, r1, r2, r3, r4, lr}
    106a:	4604      	mov	r4, r0
    106c:	2200      	movs	r2, #0
    106e:	f000 f869 	bl	1144 <mbed::FileBase::FileBase(char const*, mbed::PathType)>
    1072:	4b09      	ldr	r3, [pc, #36]	; (1098 <mbed::Stream::Stream(char const*)+0x30>)
    1074:	4622      	mov	r2, r4
    1076:	6023      	str	r3, [r4, #0]
    1078:	2300      	movs	r3, #0
    107a:	4908      	ldr	r1, [pc, #32]	; (109c <mbed::Stream::Stream(char const*)+0x34>)
    107c:	6123      	str	r3, [r4, #16]
    107e:	a801      	add	r0, sp, #4
    1080:	f002 faa8 	bl	35d4 <siprintf>
    1084:	4906      	ldr	r1, [pc, #24]	; (10a0 <mbed::Stream::Stream(char const*)+0x38>)
    1086:	a801      	add	r0, sp, #4
    1088:	f001 f848 	bl	211c <fopen>
    108c:	6120      	str	r0, [r4, #16]
    108e:	f000 fb3c 	bl	170a <mbed::mbed_set_unbuffered_stream(__sFILE*)>
    1092:	4620      	mov	r0, r4
    1094:	b004      	add	sp, #16
    1096:	bd10      	pop	{r4, pc}
    1098:	00005de8 	.word	0x00005de8
    109c:	00005dd8 	.word	0x00005dd8
    10a0:	00005ddc 	.word	0x00005ddc

000010a4 <mbed::Stream::~Stream()>:
    10a4:	b510      	push	{r4, lr}
    10a6:	4604      	mov	r4, r0
    10a8:	4b05      	ldr	r3, [pc, #20]	; (10c0 <mbed::Stream::~Stream()+0x1c>)
    10aa:	6003      	str	r3, [r0, #0]
    10ac:	6900      	ldr	r0, [r0, #16]
    10ae:	f000 fe7b 	bl	1da8 <fclose>
    10b2:	4b04      	ldr	r3, [pc, #16]	; (10c4 <mbed::Stream::~Stream()+0x20>)
    10b4:	4620      	mov	r0, r4
    10b6:	6023      	str	r3, [r4, #0]
    10b8:	f000 f862 	bl	1180 <mbed::FileBase::~FileBase()>
    10bc:	4620      	mov	r0, r4
    10be:	bd10      	pop	{r4, pc}
    10c0:	00005de8 	.word	0x00005de8
    10c4:	00005d98 	.word	0x00005d98

000010c8 <mbed::Stream::printf(char const*, ...)>:
    10c8:	b40e      	push	{r1, r2, r3}
    10ca:	b577      	push	{r0, r1, r2, r4, r5, r6, lr}
    10cc:	4604      	mov	r4, r0
    10ce:	6803      	ldr	r3, [r0, #0]
    10d0:	ad07      	add	r5, sp, #28
    10d2:	f855 6b04 	ldr.w	r6, [r5], #4
    10d6:	6b9b      	ldr	r3, [r3, #56]	; 0x38
    10d8:	4798      	blx	r3
    10da:	6920      	ldr	r0, [r4, #16]
    10dc:	9501      	str	r5, [sp, #4]
    10de:	f000 ff1d 	bl	1f1c <fflush>
    10e2:	9a01      	ldr	r2, [sp, #4]
    10e4:	4631      	mov	r1, r6
    10e6:	6920      	ldr	r0, [r4, #16]
    10e8:	f001 fba6 	bl	2838 <vfiprintf>
    10ec:	4605      	mov	r5, r0
    10ee:	6823      	ldr	r3, [r4, #0]
    10f0:	4620      	mov	r0, r4
    10f2:	6bdb      	ldr	r3, [r3, #60]	; 0x3c
    10f4:	4798      	blx	r3
    10f6:	4628      	mov	r0, r5
    10f8:	b003      	add	sp, #12
    10fa:	e8bd 4070 	ldmia.w	sp!, {r4, r5, r6, lr}
    10fe:	b003      	add	sp, #12
    1100:	4770      	bx	lr

00001102 <void mbed::Callback<void ()>::function_call<void (*)()>(void const*)>:
    1102:	6803      	ldr	r3, [r0, #0]
    1104:	4718      	bx	r3

00001106 <void mbed::Callback<void ()>::function_move<void (*)()>(void*, void const*)>:
    1106:	b108      	cbz	r0, 110c <void mbed::Callback<void ()>::function_move<void (*)()>(void*, void const*)+0x6>
    1108:	680b      	ldr	r3, [r1, #0]
    110a:	6003      	str	r3, [r0, #0]
    110c:	4770      	bx	lr

0000110e <void mbed::Callback<void ()>::function_dtor<void (*)()>(void*)>:
    110e:	4770      	bx	lr

00001110 <mbed::Callback<void ()>::operator=(mbed::Callback<void ()> const&)>:
    1110:	4288      	cmp	r0, r1
    1112:	b538      	push	{r3, r4, r5, lr}
    1114:	4604      	mov	r4, r0
    1116:	460d      	mov	r5, r1
    1118:	d00a      	beq.n	1130 <mbed::Callback<void ()>::operator=(mbed::Callback<void ()> const&)+0x20>
    111a:	f7ff ff1b 	bl	f54 <mbed::Callback<void ()>::~Callback()>
    111e:	b13c      	cbz	r4, 1130 <mbed::Callback<void ()>::operator=(mbed::Callback<void ()> const&)+0x20>
    1120:	68eb      	ldr	r3, [r5, #12]
    1122:	b11b      	cbz	r3, 112c <mbed::Callback<void ()>::operator=(mbed::Callback<void ()> const&)+0x1c>
    1124:	685b      	ldr	r3, [r3, #4]
    1126:	4629      	mov	r1, r5
    1128:	4620      	mov	r0, r4
    112a:	4798      	blx	r3
    112c:	68eb      	ldr	r3, [r5, #12]
    112e:	60e3      	str	r3, [r4, #12]
    1130:	4620      	mov	r0, r4
    1132:	bd38      	pop	{r3, r4, r5, pc}

00001134 <mbed::FileBase::getPathType()>:
    1134:	7b00      	ldrb	r0, [r0, #12]
    1136:	4770      	bx	lr

00001138 <SingletonPtr<PlatformMutex>::get()>:
    1138:	6803      	ldr	r3, [r0, #0]
    113a:	b90b      	cbnz	r3, 1140 <SingletonPtr<PlatformMutex>::get()+0x8>
    113c:	1d03      	adds	r3, r0, #4
    113e:	6003      	str	r3, [r0, #0]
    1140:	6800      	ldr	r0, [r0, #0]
    1142:	4770      	bx	lr

00001144 <mbed::FileBase::FileBase(char const*, mbed::PathType)>:
    1144:	b538      	push	{r3, r4, r5, lr}
    1146:	4b0b      	ldr	r3, [pc, #44]	; (1174 <mbed::FileBase::FileBase(char const*, mbed::PathType)+0x30>)
    1148:	4604      	mov	r4, r0
    114a:	6003      	str	r3, [r0, #0]
    114c:	2300      	movs	r3, #0
    114e:	460d      	mov	r5, r1
    1150:	6043      	str	r3, [r0, #4]
    1152:	60a1      	str	r1, [r4, #8]
    1154:	7302      	strb	r2, [r0, #12]
    1156:	4808      	ldr	r0, [pc, #32]	; (1178 <mbed::FileBase::FileBase(char const*, mbed::PathType)+0x34>)
    1158:	f7ff ffee 	bl	1138 <SingletonPtr<PlatformMutex>::get()>
    115c:	b145      	cbz	r5, 1170 <mbed::FileBase::FileBase(char const*, mbed::PathType)+0x2c>
    115e:	4b07      	ldr	r3, [pc, #28]	; (117c <mbed::FileBase::FileBase(char const*, mbed::PathType)+0x38>)
    1160:	681a      	ldr	r2, [r3, #0]
    1162:	601c      	str	r4, [r3, #0]
    1164:	6062      	str	r2, [r4, #4]
    1166:	4804      	ldr	r0, [pc, #16]	; (1178 <mbed::FileBase::FileBase(char const*, mbed::PathType)+0x34>)
    1168:	f7ff ffe6 	bl	1138 <SingletonPtr<PlatformMutex>::get()>
    116c:	4620      	mov	r0, r4
    116e:	bd38      	pop	{r3, r4, r5, pc}
    1170:	6065      	str	r5, [r4, #4]
    1172:	e7f8      	b.n	1166 <mbed::FileBase::FileBase(char const*, mbed::PathType)+0x22>
    1174:	00005e44 	.word	0x00005e44
    1178:	10000440 	.word	0x10000440
    117c:	1000043c 	.word	0x1000043c

00001180 <mbed::FileBase::~FileBase()>:
    1180:	b510      	push	{r4, lr}
    1182:	4604      	mov	r4, r0
    1184:	4b0e      	ldr	r3, [pc, #56]	; (11c0 <mbed::FileBase::~FileBase()+0x40>)
    1186:	6003      	str	r3, [r0, #0]
    1188:	480e      	ldr	r0, [pc, #56]	; (11c4 <mbed::FileBase::~FileBase()+0x44>)
    118a:	f7ff ffd5 	bl	1138 <SingletonPtr<PlatformMutex>::get()>
    118e:	68a3      	ldr	r3, [r4, #8]
    1190:	b12b      	cbz	r3, 119e <mbed::FileBase::~FileBase()+0x1e>
    1192:	4a0d      	ldr	r2, [pc, #52]	; (11c8 <mbed::FileBase::~FileBase()+0x48>)
    1194:	6813      	ldr	r3, [r2, #0]
    1196:	429c      	cmp	r4, r3
    1198:	d10c      	bne.n	11b4 <mbed::FileBase::~FileBase()+0x34>
    119a:	6863      	ldr	r3, [r4, #4]
    119c:	6013      	str	r3, [r2, #0]
    119e:	4809      	ldr	r0, [pc, #36]	; (11c4 <mbed::FileBase::~FileBase()+0x44>)
    11a0:	f7ff ffca 	bl	1138 <SingletonPtr<PlatformMutex>::get()>
    11a4:	7b23      	ldrb	r3, [r4, #12]
    11a6:	b913      	cbnz	r3, 11ae <mbed::FileBase::~FileBase()+0x2e>
    11a8:	4620      	mov	r0, r4
    11aa:	f000 fad7 	bl	175c <mbed::remove_filehandle(mbed::FileLike*)>
    11ae:	4620      	mov	r0, r4
    11b0:	bd10      	pop	{r4, pc}
    11b2:	4613      	mov	r3, r2
    11b4:	685a      	ldr	r2, [r3, #4]
    11b6:	4294      	cmp	r4, r2
    11b8:	d1fb      	bne.n	11b2 <mbed::FileBase::~FileBase()+0x32>
    11ba:	6862      	ldr	r2, [r4, #4]
    11bc:	605a      	str	r2, [r3, #4]
    11be:	e7ee      	b.n	119e <mbed::FileBase::~FileBase()+0x1e>
    11c0:	00005e44 	.word	0x00005e44
    11c4:	10000440 	.word	0x10000440
    11c8:	1000043c 	.word	0x1000043c

000011cc <mbed::FileBase::~FileBase()>:
    11cc:	b510      	push	{r4, lr}
    11ce:	4604      	mov	r4, r0
    11d0:	f7ff ffd6 	bl	1180 <mbed::FileBase::~FileBase()>
    11d4:	4620      	mov	r0, r4
    11d6:	f000 fabe 	bl	1756 <operator delete(void*)>
    11da:	4620      	mov	r0, r4
    11dc:	bd10      	pop	{r4, pc}
	...

000011e0 <mbed::FileBase::lookup(char const*, unsigned int)>:
    11e0:	b5f8      	push	{r3, r4, r5, r6, r7, lr}
    11e2:	4607      	mov	r7, r0
    11e4:	480d      	ldr	r0, [pc, #52]	; (121c <mbed::FileBase::lookup(char const*, unsigned int)+0x3c>)
    11e6:	460e      	mov	r6, r1
    11e8:	f7ff ffa6 	bl	1138 <SingletonPtr<PlatformMutex>::get()>
    11ec:	4b0c      	ldr	r3, [pc, #48]	; (1220 <mbed::FileBase::lookup(char const*, unsigned int)+0x40>)
    11ee:	681c      	ldr	r4, [r3, #0]
    11f0:	b164      	cbz	r4, 120c <mbed::FileBase::lookup(char const*, unsigned int)+0x2c>
    11f2:	68a5      	ldr	r5, [r4, #8]
    11f4:	b17d      	cbz	r5, 1216 <mbed::FileBase::lookup(char const*, unsigned int)+0x36>
    11f6:	4632      	mov	r2, r6
    11f8:	4639      	mov	r1, r7
    11fa:	4628      	mov	r0, r5
    11fc:	f002 fa8f 	bl	371e <strncmp>
    1200:	b948      	cbnz	r0, 1216 <mbed::FileBase::lookup(char const*, unsigned int)+0x36>
    1202:	4628      	mov	r0, r5
    1204:	f002 fa83 	bl	370e <strlen>
    1208:	4286      	cmp	r6, r0
    120a:	d104      	bne.n	1216 <mbed::FileBase::lookup(char const*, unsigned int)+0x36>
    120c:	4803      	ldr	r0, [pc, #12]	; (121c <mbed::FileBase::lookup(char const*, unsigned int)+0x3c>)
    120e:	f7ff ff93 	bl	1138 <SingletonPtr<PlatformMutex>::get()>
    1212:	4620      	mov	r0, r4
    1214:	bdf8      	pop	{r3, r4, r5, r6, r7, pc}
    1216:	6864      	ldr	r4, [r4, #4]
    1218:	e7ea      	b.n	11f0 <mbed::FileBase::lookup(char const*, unsigned int)+0x10>
    121a:	bf00      	nop
    121c:	10000440 	.word	0x10000440
    1220:	1000043c 	.word	0x1000043c

00001224 <mbed::Timer::start()>:
    1224:	b510      	push	{r4, lr}
    1226:	4604      	mov	r4, r0
    1228:	f7ff f982 	bl	530 <core_util_critical_section_enter>
    122c:	6823      	ldr	r3, [r4, #0]
    122e:	b92b      	cbnz	r3, 123c <mbed::Timer::start()+0x18>
    1230:	68e0      	ldr	r0, [r4, #12]
    1232:	f7ff f918 	bl	466 <ticker_read>
    1236:	2301      	movs	r3, #1
    1238:	6060      	str	r0, [r4, #4]
    123a:	6023      	str	r3, [r4, #0]
    123c:	e8bd 4010 	ldmia.w	sp!, {r4, lr}
    1240:	f7ff b98c 	b.w	55c <core_util_critical_section_exit>

00001244 <mbed::Timer::slicetime()>:
    1244:	b538      	push	{r3, r4, r5, lr}
    1246:	4605      	mov	r5, r0
    1248:	f7ff f972 	bl	530 <core_util_critical_section_enter>
    124c:	682c      	ldr	r4, [r5, #0]
    124e:	b124      	cbz	r4, 125a <mbed::Timer::slicetime()+0x16>
    1250:	68e8      	ldr	r0, [r5, #12]
    1252:	f7ff f908 	bl	466 <ticker_read>
    1256:	686c      	ldr	r4, [r5, #4]
    1258:	1b04      	subs	r4, r0, r4
    125a:	f7ff f97f 	bl	55c <core_util_critical_section_exit>
    125e:	4620      	mov	r0, r4
    1260:	bd38      	pop	{r3, r4, r5, pc}

00001262 <mbed::Timer::read_us()>:
    1262:	b538      	push	{r3, r4, r5, lr}
    1264:	4605      	mov	r5, r0
    1266:	f7ff f963 	bl	530 <core_util_critical_section_enter>
    126a:	4628      	mov	r0, r5
    126c:	68ac      	ldr	r4, [r5, #8]
    126e:	f7ff ffe9 	bl	1244 <mbed::Timer::slicetime()>
    1272:	4404      	add	r4, r0
    1274:	f7ff f972 	bl	55c <core_util_critical_section_exit>
    1278:	4620      	mov	r0, r4
    127a:	bd38      	pop	{r3, r4, r5, pc}

0000127c <mbed::Timer::reset()>:
    127c:	b510      	push	{r4, lr}
    127e:	4604      	mov	r4, r0
    1280:	f7ff f956 	bl	530 <core_util_critical_section_enter>
    1284:	68e0      	ldr	r0, [r4, #12]
    1286:	f7ff f8ee 	bl	466 <ticker_read>
    128a:	2300      	movs	r3, #0
    128c:	6060      	str	r0, [r4, #4]
    128e:	60a3      	str	r3, [r4, #8]
    1290:	e8bd 4010 	ldmia.w	sp!, {r4, lr}
    1294:	f7ff b962 	b.w	55c <core_util_critical_section_exit>

00001298 <mbed::Timer::Timer()>:
    1298:	2300      	movs	r3, #0
    129a:	b510      	push	{r4, lr}
    129c:	6003      	str	r3, [r0, #0]
    129e:	6043      	str	r3, [r0, #4]
    12a0:	6083      	str	r3, [r0, #8]
    12a2:	4604      	mov	r4, r0
    12a4:	f7ff f8b2 	bl	40c <get_us_ticker_data>
    12a8:	60e0      	str	r0, [r4, #12]
    12aa:	4620      	mov	r0, r4
    12ac:	f7ff ffe6 	bl	127c <mbed::Timer::reset()>
    12b0:	4620      	mov	r0, r4
    12b2:	bd10      	pop	{r4, pc}

000012b4 <mbed::donothing()>:
    12b4:	4770      	bx	lr

000012b6 <mbed::SerialBase::lock()>:
    12b6:	4770      	bx	lr

000012b8 <mbed::SerialBase::unlock()>:
    12b8:	4770      	bx	lr

000012ba <mbed::SerialBase::_irq_handler(unsigned long, SerialIrq)>:
    12ba:	eb00 1201 	add.w	r2, r0, r1, lsl #4
    12be:	6993      	ldr	r3, [r2, #24]
    12c0:	f102 000c 	add.w	r0, r2, #12
    12c4:	681b      	ldr	r3, [r3, #0]
    12c6:	4718      	bx	r3

000012c8 <mbed::SerialBase::_base_getc()>:
    12c8:	3004      	adds	r0, #4
    12ca:	f7ff bb85 	b.w	9d8 <serial_getc>

000012ce <mbed::SerialBase::_base_putc(int)>:
    12ce:	b510      	push	{r4, lr}
    12d0:	460c      	mov	r4, r1
    12d2:	3004      	adds	r0, #4
    12d4:	f7ff fbc0 	bl	a58 <serial_putc>
    12d8:	4620      	mov	r0, r4
    12da:	bd10      	pop	{r4, pc}

000012dc <mbed::SerialBase::SerialBase(PinName, PinName, int)>:
    12dc:	e92d 41ff 	stmdb	sp!, {r0, r1, r2, r3, r4, r5, r6, r7, r8, lr}
    12e0:	460f      	mov	r7, r1
    12e2:	2100      	movs	r1, #0
    12e4:	4604      	mov	r4, r0
    12e6:	4690      	mov	r8, r2
    12e8:	4a17      	ldr	r2, [pc, #92]	; (1348 <mbed::SerialBase::SerialBase(PinName, PinName, int)+0x6c>)
    12ea:	4e18      	ldr	r6, [pc, #96]	; (134c <mbed::SerialBase::SerialBase(PinName, PinName, int)+0x70>)
    12ec:	4d18      	ldr	r5, [pc, #96]	; (1350 <mbed::SerialBase::SerialBase(PinName, PinName, int)+0x74>)
    12ee:	62c3      	str	r3, [r0, #44]	; 0x2c
    12f0:	6002      	str	r2, [r0, #0]
    12f2:	6041      	str	r1, [r0, #4]
    12f4:	6081      	str	r1, [r0, #8]
    12f6:	6181      	str	r1, [r0, #24]
    12f8:	6281      	str	r1, [r0, #40]	; 0x28
    12fa:	4669      	mov	r1, sp
    12fc:	300c      	adds	r0, #12
    12fe:	9503      	str	r5, [sp, #12]
    1300:	9600      	str	r6, [sp, #0]
    1302:	f7ff ff05 	bl	1110 <mbed::Callback<void ()>::operator=(mbed::Callback<void ()> const&)>
    1306:	4668      	mov	r0, sp
    1308:	f7ff fe24 	bl	f54 <mbed::Callback<void ()>::~Callback()>
    130c:	4669      	mov	r1, sp
    130e:	f104 001c 	add.w	r0, r4, #28
    1312:	9503      	str	r5, [sp, #12]
    1314:	9600      	str	r6, [sp, #0]
    1316:	1d25      	adds	r5, r4, #4
    1318:	f7ff fefa 	bl	1110 <mbed::Callback<void ()>::operator=(mbed::Callback<void ()> const&)>
    131c:	4668      	mov	r0, sp
    131e:	f7ff fe19 	bl	f54 <mbed::Callback<void ()>::~Callback()>
    1322:	4642      	mov	r2, r8
    1324:	4639      	mov	r1, r7
    1326:	4628      	mov	r0, r5
    1328:	f7ff fc32 	bl	b90 <serial_init>
    132c:	6ae1      	ldr	r1, [r4, #44]	; 0x2c
    132e:	4628      	mov	r0, r5
    1330:	f7ff fa72 	bl	818 <serial_baud>
    1334:	4628      	mov	r0, r5
    1336:	4622      	mov	r2, r4
    1338:	4906      	ldr	r1, [pc, #24]	; (1354 <mbed::SerialBase::SerialBase(PinName, PinName, int)+0x78>)
    133a:	f7ff fb41 	bl	9c0 <serial_irq_handler>
    133e:	4620      	mov	r0, r4
    1340:	b004      	add	sp, #16
    1342:	e8bd 81f0 	ldmia.w	sp!, {r4, r5, r6, r7, r8, pc}
    1346:	bf00      	nop
    1348:	00005e54 	.word	0x00005e54
    134c:	000012b5 	.word	0x000012b5
    1350:	00005e30 	.word	0x00005e30
    1354:	000012bb 	.word	0x000012bb

00001358 <mbed::File::close()>:
    1358:	b510      	push	{r4, lr}
    135a:	4604      	mov	r4, r0
    135c:	6900      	ldr	r0, [r0, #16]
    135e:	b130      	cbz	r0, 136e <mbed::File::close()+0x16>
    1360:	6803      	ldr	r3, [r0, #0]
    1362:	6961      	ldr	r1, [r4, #20]
    1364:	6a5b      	ldr	r3, [r3, #36]	; 0x24
    1366:	4798      	blx	r3
    1368:	2300      	movs	r3, #0
    136a:	6123      	str	r3, [r4, #16]
    136c:	bd10      	pop	{r4, pc}
    136e:	f06f 0015 	mvn.w	r0, #21
    1372:	bd10      	pop	{r4, pc}

00001374 <mbed::File::read(void*, unsigned int)>:
    1374:	b430      	push	{r4, r5}
    1376:	4604      	mov	r4, r0
    1378:	6900      	ldr	r0, [r0, #16]
    137a:	6803      	ldr	r3, [r0, #0]
    137c:	6a9d      	ldr	r5, [r3, #40]	; 0x28
    137e:	4613      	mov	r3, r2
    1380:	46ac      	mov	r12, r5
    1382:	460a      	mov	r2, r1
    1384:	6961      	ldr	r1, [r4, #20]
    1386:	bc30      	pop	{r4, r5}
    1388:	4760      	bx	r12

0000138a <mbed::File::write(void const*, unsigned int)>:
    138a:	b430      	push	{r4, r5}
    138c:	4604      	mov	r4, r0
    138e:	6900      	ldr	r0, [r0, #16]
    1390:	6803      	ldr	r3, [r0, #0]
    1392:	6add      	ldr	r5, [r3, #44]	; 0x2c
    1394:	4613      	mov	r3, r2
    1396:	46ac      	mov	r12, r5
    1398:	460a      	mov	r2, r1
    139a:	6961      	ldr	r1, [r4, #20]
    139c:	bc30      	pop	{r4, r5}
    139e:	4760      	bx	r12

000013a0 <mbed::File::sync()>:
    13a0:	6903      	ldr	r3, [r0, #16]
    13a2:	6941      	ldr	r1, [r0, #20]
    13a4:	681a      	ldr	r2, [r3, #0]
    13a6:	4618      	mov	r0, r3
    13a8:	6b12      	ldr	r2, [r2, #48]	; 0x30
    13aa:	4710      	bx	r2

000013ac <mbed::File::isatty()>:
    13ac:	6903      	ldr	r3, [r0, #16]
    13ae:	6941      	ldr	r1, [r0, #20]
    13b0:	681a      	ldr	r2, [r3, #0]
    13b2:	4618      	mov	r0, r3
    13b4:	6b52      	ldr	r2, [r2, #52]	; 0x34
    13b6:	4710      	bx	r2

000013b8 <mbed::File::seek(long, int)>:
    13b8:	b430      	push	{r4, r5}
    13ba:	4604      	mov	r4, r0
    13bc:	6900      	ldr	r0, [r0, #16]
    13be:	6803      	ldr	r3, [r0, #0]
    13c0:	6b9d      	ldr	r5, [r3, #56]	; 0x38
    13c2:	4613      	mov	r3, r2
    13c4:	46ac      	mov	r12, r5
    13c6:	460a      	mov	r2, r1
    13c8:	6961      	ldr	r1, [r4, #20]
    13ca:	bc30      	pop	{r4, r5}
    13cc:	4760      	bx	r12

000013ce <mbed::File::tell()>:
    13ce:	6903      	ldr	r3, [r0, #16]
    13d0:	6941      	ldr	r1, [r0, #20]
    13d2:	681a      	ldr	r2, [r3, #0]
    13d4:	4618      	mov	r0, r3
    13d6:	6bd2      	ldr	r2, [r2, #60]	; 0x3c
    13d8:	4710      	bx	r2

000013da <mbed::File::rewind()>:
    13da:	6903      	ldr	r3, [r0, #16]
    13dc:	6941      	ldr	r1, [r0, #20]
    13de:	681a      	ldr	r2, [r3, #0]
    13e0:	4618      	mov	r0, r3
    13e2:	6c12      	ldr	r2, [r2, #64]	; 0x40
    13e4:	4710      	bx	r2

000013e6 <mbed::File::size()>:
    13e6:	6903      	ldr	r3, [r0, #16]
    13e8:	6941      	ldr	r1, [r0, #20]
    13ea:	681a      	ldr	r2, [r3, #0]
    13ec:	4618      	mov	r0, r3
    13ee:	6c52      	ldr	r2, [r2, #68]	; 0x44
    13f0:	4710      	bx	r2

000013f2 <mbed::File::open(mbed::FileSystem*, char const*, int)>:
    13f2:	b570      	push	{r4, r5, r6, lr}
    13f4:	460d      	mov	r5, r1
    13f6:	6901      	ldr	r1, [r0, #16]
    13f8:	4604      	mov	r4, r0
    13fa:	b941      	cbnz	r1, 140e <mbed::File::open(mbed::FileSystem*, char const*, int)+0x1c>
    13fc:	6829      	ldr	r1, [r5, #0]
    13fe:	6a0e      	ldr	r6, [r1, #32]
    1400:	f100 0114 	add.w	r1, r0, #20
    1404:	4628      	mov	r0, r5
    1406:	47b0      	blx	r6
    1408:	b918      	cbnz	r0, 1412 <mbed::File::open(mbed::FileSystem*, char const*, int)+0x20>
    140a:	6125      	str	r5, [r4, #16]
    140c:	bd70      	pop	{r4, r5, r6, pc}
    140e:	f06f 0015 	mvn.w	r0, #21
    1412:	bd70      	pop	{r4, r5, r6, pc}

00001414 <mbed::File::~File()>:
    1414:	4b07      	ldr	r3, [pc, #28]	; (1434 <mbed::File::~File()+0x20>)
    1416:	b510      	push	{r4, lr}
    1418:	6003      	str	r3, [r0, #0]
    141a:	6903      	ldr	r3, [r0, #16]
    141c:	4604      	mov	r4, r0
    141e:	b10b      	cbz	r3, 1424 <mbed::File::~File()+0x10>
    1420:	f7ff ff9a 	bl	1358 <mbed::File::close()>
    1424:	4b04      	ldr	r3, [pc, #16]	; (1438 <mbed::File::~File()+0x24>)
    1426:	4620      	mov	r0, r4
    1428:	6023      	str	r3, [r4, #0]
    142a:	f7ff fea9 	bl	1180 <mbed::FileBase::~FileBase()>
    142e:	4620      	mov	r0, r4
    1430:	bd10      	pop	{r4, pc}
    1432:	bf00      	nop
    1434:	00005e6c 	.word	0x00005e6c
    1438:	00005d98 	.word	0x00005d98

0000143c <mbed::File::~File()>:
    143c:	b510      	push	{r4, lr}
    143e:	4604      	mov	r4, r0
    1440:	f7ff ffe8 	bl	1414 <mbed::File::~File()>
    1444:	4620      	mov	r0, r4
    1446:	f000 f986 	bl	1756 <operator delete(void*)>
    144a:	4620      	mov	r0, r4
    144c:	bd10      	pop	{r4, pc}
	...

00001450 <mbed::File::File()>:
    1450:	2200      	movs	r2, #0
    1452:	b510      	push	{r4, lr}
    1454:	4604      	mov	r4, r0
    1456:	4611      	mov	r1, r2
    1458:	f7ff fe74 	bl	1144 <mbed::FileBase::FileBase(char const*, mbed::PathType)>
    145c:	4b03      	ldr	r3, [pc, #12]	; (146c <mbed::File::File()+0x1c>)
    145e:	4620      	mov	r0, r4
    1460:	6023      	str	r3, [r4, #0]
    1462:	2300      	movs	r3, #0
    1464:	6123      	str	r3, [r4, #16]
    1466:	6163      	str	r3, [r4, #20]
    1468:	bd10      	pop	{r4, pc}
    146a:	bf00      	nop
    146c:	00005e6c 	.word	0x00005e6c

00001470 <__wrap__malloc_r>:
    1470:	f001 b820 	b.w	24b4 <_malloc_r>

00001474 <__wrap__realloc_r>:
    1474:	f001 b87c 	b.w	2570 <_realloc_r>

00001478 <__wrap__free_r>:
    1478:	f000 bfd0 	b.w	241c <_free_r>

0000147c <__wrap__calloc_r>:
    147c:	f000 bfbf 	b.w	23fe <_calloc_r>

00001480 <ManagedFile::~ManagedFile()>:
    1480:	4b03      	ldr	r3, [pc, #12]	; (1490 <ManagedFile::~ManagedFile()+0x10>)
    1482:	b510      	push	{r4, lr}
    1484:	6003      	str	r3, [r0, #0]
    1486:	4604      	mov	r4, r0
    1488:	f7ff ffc4 	bl	1414 <mbed::File::~File()>
    148c:	4620      	mov	r0, r4
    148e:	bd10      	pop	{r4, pc}
    1490:	00005eb8 	.word	0x00005eb8

00001494 <init_serial()>:
    1494:	b508      	push	{r3, lr}
    1496:	4b08      	ldr	r3, [pc, #32]	; (14b8 <init_serial()+0x24>)
    1498:	681b      	ldr	r3, [r3, #0]
    149a:	b95b      	cbnz	r3, 14b4 <init_serial()+0x20>
    149c:	4907      	ldr	r1, [pc, #28]	; (14bc <init_serial()+0x28>)
    149e:	4808      	ldr	r0, [pc, #32]	; (14c0 <init_serial()+0x2c>)
    14a0:	4a08      	ldr	r2, [pc, #32]	; (14c4 <init_serial()+0x30>)
    14a2:	f7ff fb75 	bl	b90 <serial_init>
    14a6:	f44f 5116 	mov.w	r1, #9600	; 0x2580
    14aa:	e8bd 4008 	ldmia.w	sp!, {r3, lr}
    14ae:	4804      	ldr	r0, [pc, #16]	; (14c0 <init_serial()+0x2c>)
    14b0:	f7ff b9b2 	b.w	818 <serial_baud>
    14b4:	bd08      	pop	{r3, pc}
    14b6:	bf00      	nop
    14b8:	10000354 	.word	0x10000354
    14bc:	2009c002 	.word	0x2009c002
    14c0:	10000560 	.word	0x10000560
    14c4:	2009c003 	.word	0x2009c003

000014c8 <mbed_sdk_init>:
    14c8:	4770      	bx	lr
	...

000014cc <_close>:
    14cc:	2802      	cmp	r0, #2
    14ce:	b510      	push	{r4, lr}
    14d0:	4604      	mov	r4, r0
    14d2:	dc01      	bgt.n	14d8 <_close+0xc>
    14d4:	2000      	movs	r0, #0
    14d6:	bd10      	pop	{r4, pc}
    14d8:	f000 fc0e 	bl	1cf8 <__errno>
    14dc:	2309      	movs	r3, #9
    14de:	2200      	movs	r2, #0
    14e0:	6003      	str	r3, [r0, #0]
    14e2:	4b09      	ldr	r3, [pc, #36]	; (1508 <_close+0x3c>)
    14e4:	3c03      	subs	r4, #3
    14e6:	f853 0024 	ldr.w	r0, [r3, r4, lsl #2]
    14ea:	f843 2024 	str.w	r2, [r3, r4, lsl #2]
    14ee:	b140      	cbz	r0, 1502 <_close+0x36>
    14f0:	6803      	ldr	r3, [r0, #0]
    14f2:	691b      	ldr	r3, [r3, #16]
    14f4:	4798      	blx	r3
    14f6:	1e04      	subs	r4, r0, #0
    14f8:	daec      	bge.n	14d4 <_close+0x8>
    14fa:	f000 fbfd 	bl	1cf8 <__errno>
    14fe:	4264      	negs	r4, r4
    1500:	6004      	str	r4, [r0, #0]
    1502:	f04f 30ff 	mov.w	r0, #4294967295	; 0xffffffff
    1506:	bd10      	pop	{r4, pc}
    1508:	10000448 	.word	0x10000448

0000150c <_write>:
    150c:	b5f8      	push	{r3, r4, r5, r6, r7, lr}
    150e:	4605      	mov	r5, r0
    1510:	460e      	mov	r6, r1
    1512:	4614      	mov	r4, r2
    1514:	f000 fbf0 	bl	1cf8 <__errno>
    1518:	2309      	movs	r3, #9
    151a:	2d02      	cmp	r5, #2
    151c:	6003      	str	r3, [r0, #0]
    151e:	dc0f      	bgt.n	1540 <_write+0x34>
    1520:	4b12      	ldr	r3, [pc, #72]	; (156c <_write+0x60>)
    1522:	681b      	ldr	r3, [r3, #0]
    1524:	b90b      	cbnz	r3, 152a <_write+0x1e>
    1526:	f7ff ffb5 	bl	1494 <init_serial()>
    152a:	4635      	mov	r5, r6
    152c:	1937      	adds	r7, r6, r4
    152e:	4e10      	ldr	r6, [pc, #64]	; (1570 <_write+0x64>)
    1530:	42bd      	cmp	r5, r7
    1532:	d015      	beq.n	1560 <_write+0x54>
    1534:	f815 1b01 	ldrb.w	r1, [r5], #1
    1538:	4630      	mov	r0, r6
    153a:	f7ff fa8d 	bl	a58 <serial_putc>
    153e:	e7f7      	b.n	1530 <_write+0x24>
    1540:	4b0c      	ldr	r3, [pc, #48]	; (1574 <_write+0x68>)
    1542:	3d03      	subs	r5, #3
    1544:	f853 0025 	ldr.w	r0, [r3, r5, lsl #2]
    1548:	b160      	cbz	r0, 1564 <_write+0x58>
    154a:	6803      	ldr	r3, [r0, #0]
    154c:	4622      	mov	r2, r4
    154e:	68db      	ldr	r3, [r3, #12]
    1550:	4631      	mov	r1, r6
    1552:	4798      	blx	r3
    1554:	1e04      	subs	r4, r0, #0
    1556:	da03      	bge.n	1560 <_write+0x54>
    1558:	f000 fbce 	bl	1cf8 <__errno>
    155c:	4263      	negs	r3, r4
    155e:	6003      	str	r3, [r0, #0]
    1560:	4620      	mov	r0, r4
    1562:	bdf8      	pop	{r3, r4, r5, r6, r7, pc}
    1564:	f04f 34ff 	mov.w	r4, #4294967295	; 0xffffffff
    1568:	e7fa      	b.n	1560 <_write+0x54>
    156a:	bf00      	nop
    156c:	10000354 	.word	0x10000354
    1570:	10000560 	.word	0x10000560
    1574:	10000448 	.word	0x10000448

00001578 <_read>:
    1578:	b570      	push	{r4, r5, r6, lr}
    157a:	4604      	mov	r4, r0
    157c:	460d      	mov	r5, r1
    157e:	4616      	mov	r6, r2
    1580:	f000 fbba 	bl	1cf8 <__errno>
    1584:	2309      	movs	r3, #9
    1586:	2c02      	cmp	r4, #2
    1588:	6003      	str	r3, [r0, #0]
    158a:	dc0b      	bgt.n	15a4 <_read+0x2c>
    158c:	4b0f      	ldr	r3, [pc, #60]	; (15cc <_read+0x54>)
    158e:	681b      	ldr	r3, [r3, #0]
    1590:	b90b      	cbnz	r3, 1596 <_read+0x1e>
    1592:	f7ff ff7f 	bl	1494 <init_serial()>
    1596:	480e      	ldr	r0, [pc, #56]	; (15d0 <_read+0x58>)
    1598:	f7ff fa1e 	bl	9d8 <serial_getc>
    159c:	2401      	movs	r4, #1
    159e:	7028      	strb	r0, [r5, #0]
    15a0:	4620      	mov	r0, r4
    15a2:	bd70      	pop	{r4, r5, r6, pc}
    15a4:	4b0b      	ldr	r3, [pc, #44]	; (15d4 <_read+0x5c>)
    15a6:	3c03      	subs	r4, #3
    15a8:	f853 0024 	ldr.w	r0, [r3, r4, lsl #2]
    15ac:	b158      	cbz	r0, 15c6 <_read+0x4e>
    15ae:	6803      	ldr	r3, [r0, #0]
    15b0:	4632      	mov	r2, r6
    15b2:	689b      	ldr	r3, [r3, #8]
    15b4:	4629      	mov	r1, r5
    15b6:	4798      	blx	r3
    15b8:	1e04      	subs	r4, r0, #0
    15ba:	daf1      	bge.n	15a0 <_read+0x28>
    15bc:	f000 fb9c 	bl	1cf8 <__errno>
    15c0:	4263      	negs	r3, r4
    15c2:	6003      	str	r3, [r0, #0]
    15c4:	e7ec      	b.n	15a0 <_read+0x28>
    15c6:	f04f 34ff 	mov.w	r4, #4294967295	; 0xffffffff
    15ca:	e7e9      	b.n	15a0 <_read+0x28>
    15cc:	10000354 	.word	0x10000354
    15d0:	10000560 	.word	0x10000560
    15d4:	10000448 	.word	0x10000448

000015d8 <_isatty>:
    15d8:	b510      	push	{r4, lr}
    15da:	4604      	mov	r4, r0
    15dc:	f000 fb8c 	bl	1cf8 <__errno>
    15e0:	2309      	movs	r3, #9
    15e2:	2c02      	cmp	r4, #2
    15e4:	6003      	str	r3, [r0, #0]
    15e6:	dd10      	ble.n	160a <_isatty+0x32>
    15e8:	4b0a      	ldr	r3, [pc, #40]	; (1614 <_isatty+0x3c>)
    15ea:	3c03      	subs	r4, #3
    15ec:	f853 0024 	ldr.w	r0, [r3, r4, lsl #2]
    15f0:	b140      	cbz	r0, 1604 <_isatty+0x2c>
    15f2:	6803      	ldr	r3, [r0, #0]
    15f4:	699b      	ldr	r3, [r3, #24]
    15f6:	4798      	blx	r3
    15f8:	1e04      	subs	r4, r0, #0
    15fa:	da08      	bge.n	160e <_isatty+0x36>
    15fc:	f000 fb7c 	bl	1cf8 <__errno>
    1600:	4264      	negs	r4, r4
    1602:	6004      	str	r4, [r0, #0]
    1604:	f04f 30ff 	mov.w	r0, #4294967295	; 0xffffffff
    1608:	bd10      	pop	{r4, pc}
    160a:	2001      	movs	r0, #1
    160c:	bd10      	pop	{r4, pc}
    160e:	2000      	movs	r0, #0
    1610:	bd10      	pop	{r4, pc}
    1612:	bf00      	nop
    1614:	10000448 	.word	0x10000448

00001618 <_lseek>:
    1618:	b570      	push	{r4, r5, r6, lr}
    161a:	4604      	mov	r4, r0
    161c:	460d      	mov	r5, r1
    161e:	4616      	mov	r6, r2
    1620:	f000 fb6a 	bl	1cf8 <__errno>
    1624:	2309      	movs	r3, #9
    1626:	2c02      	cmp	r4, #2
    1628:	6003      	str	r3, [r0, #0]
    162a:	dd0b      	ble.n	1644 <_lseek+0x2c>
    162c:	4b08      	ldr	r3, [pc, #32]	; (1650 <_lseek+0x38>)
    162e:	3c03      	subs	r4, #3
    1630:	f853 0024 	ldr.w	r0, [r3, r4, lsl #2]
    1634:	b140      	cbz	r0, 1648 <_lseek+0x30>
    1636:	6803      	ldr	r3, [r0, #0]
    1638:	4632      	mov	r2, r6
    163a:	4629      	mov	r1, r5
    163c:	e8bd 4070 	ldmia.w	sp!, {r4, r5, r6, lr}
    1640:	69db      	ldr	r3, [r3, #28]
    1642:	4718      	bx	r3
    1644:	2000      	movs	r0, #0
    1646:	bd70      	pop	{r4, r5, r6, pc}
    1648:	f04f 30ff 	mov.w	r0, #4294967295	; 0xffffffff
    164c:	bd70      	pop	{r4, r5, r6, pc}
    164e:	bf00      	nop
    1650:	10000448 	.word	0x10000448

00001654 <_fstat>:
    1654:	2802      	cmp	r0, #2
    1656:	b508      	push	{r3, lr}
    1658:	dc04      	bgt.n	1664 <_fstat+0x10>
    165a:	f44f 5300 	mov.w	r3, #8192	; 0x2000
    165e:	2000      	movs	r0, #0
    1660:	604b      	str	r3, [r1, #4]
    1662:	bd08      	pop	{r3, pc}
    1664:	f000 fb48 	bl	1cf8 <__errno>
    1668:	2309      	movs	r3, #9
    166a:	6003      	str	r3, [r0, #0]
    166c:	f04f 30ff 	mov.w	r0, #4294967295	; 0xffffffff
    1670:	bd08      	pop	{r3, pc}

00001672 <software_init_hook_rtos>:
    1672:	4770      	bx	lr

00001674 <software_init_hook>:
    1674:	b508      	push	{r3, lr}
    1676:	f7ff ff27 	bl	14c8 <mbed_sdk_init>
    167a:	f7ff fffa 	bl	1672 <software_init_hook_rtos>
    167e:	bd08      	pop	{r3, pc}

00001680 <mbed_main>:
    1680:	4770      	bx	lr

00001682 <__wrap_main>:
    1682:	b508      	push	{r3, lr}
    1684:	f7ff fffc 	bl	1680 <mbed_main>
    1688:	e8bd 4008 	ldmia.w	sp!, {r3, lr}
    168c:	f7fe bd8a 	b.w	1a4 <main>

00001690 <_sbrk>:
    1690:	4a0c      	ldr	r2, [pc, #48]	; (16c4 <_sbrk+0x34>)
    1692:	b510      	push	{r4, lr}
    1694:	6813      	ldr	r3, [r2, #0]
    1696:	4418      	add	r0, r3
    1698:	f3ef 8108 	mrs	r1, MSP
    169c:	4288      	cmp	r0, r1
    169e:	d305      	bcc.n	16ac <_sbrk+0x1c>
    16a0:	220c      	movs	r2, #12
    16a2:	4b09      	ldr	r3, [pc, #36]	; (16c8 <_sbrk+0x38>)
    16a4:	f04f 30ff 	mov.w	r0, #4294967295	; 0xffffffff
    16a8:	601a      	str	r2, [r3, #0]
    16aa:	bd10      	pop	{r4, pc}
    16ac:	4907      	ldr	r1, [pc, #28]	; (16cc <_sbrk+0x3c>)
    16ae:	680c      	ldr	r4, [r1, #0]
    16b0:	b124      	cbz	r4, 16bc <_sbrk+0x2c>
    16b2:	4907      	ldr	r1, [pc, #28]	; (16d0 <_sbrk+0x40>)
    16b4:	6809      	ldr	r1, [r1, #0]
    16b6:	4421      	add	r1, r4
    16b8:	4288      	cmp	r0, r1
    16ba:	d2f1      	bcs.n	16a0 <_sbrk+0x10>
    16bc:	6010      	str	r0, [r2, #0]
    16be:	4618      	mov	r0, r3
    16c0:	bd10      	pop	{r4, pc}
    16c2:	bf00      	nop
    16c4:	100000d4 	.word	0x100000d4
    16c8:	10000568 	.word	0x10000568
    16cc:	10000550 	.word	0x10000550
    16d0:	10000554 	.word	0x10000554

000016d4 <_exit>:
    16d4:	4c09      	ldr	r4, [pc, #36]	; (16fc <_exit+0x28>)
    16d6:	b508      	push	{r3, lr}
    16d8:	6823      	ldr	r3, [r4, #0]
    16da:	4605      	mov	r5, r0
    16dc:	6898      	ldr	r0, [r3, #8]
    16de:	f000 fc1d 	bl	1f1c <fflush>
    16e2:	6823      	ldr	r3, [r4, #0]
    16e4:	68d8      	ldr	r0, [r3, #12]
    16e6:	f000 fc19 	bl	1f1c <fflush>
    16ea:	f7fe ff19 	bl	520 <mbed_interface_connected>
    16ee:	b108      	cbz	r0, 16f4 <_exit+0x20>
    16f0:	f7fe ff48 	bl	584 <semihost_exit>
    16f4:	b10d      	cbz	r5, 16fa <_exit+0x26>
    16f6:	f7fe ff5f 	bl	5b8 <mbed_die>
    16fa:	e7fe      	b.n	16fa <_exit+0x26>
    16fc:	100000d8 	.word	0x100000d8

00001700 <__aeabi_atexit>:
    1700:	2001      	movs	r0, #1
    1702:	4770      	bx	lr

00001704 <__wrap_exit>:
    1704:	b508      	push	{r3, lr}
    1706:	f7ff ffe5 	bl	16d4 <_exit>

0000170a <mbed::mbed_set_unbuffered_stream(__sFILE*)>:
    170a:	2100      	movs	r1, #0
    170c:	f001 beab 	b.w	3466 <setbuf>

00001710 <__rtos_malloc_lock>:
    1710:	4770      	bx	lr

00001712 <__rtos_malloc_unlock>:
    1712:	4770      	bx	lr

00001714 <__malloc_lock>:
    1714:	b508      	push	{r3, lr}
    1716:	f7ff fffb 	bl	1710 <__rtos_malloc_lock>
    171a:	bd08      	pop	{r3, pc}

0000171c <__malloc_unlock>:
    171c:	b508      	push	{r3, lr}
    171e:	f7ff fff8 	bl	1712 <__rtos_malloc_unlock>
    1722:	bd08      	pop	{r3, pc}

00001724 <operator new(unsigned int)>:
    1724:	b510      	push	{r4, lr}
    1726:	f000 fe39 	bl	239c <malloc>
    172a:	4604      	mov	r4, r0
    172c:	b910      	cbnz	r0, 1734 <operator new(unsigned int)+0x10>
    172e:	4802      	ldr	r0, [pc, #8]	; (1738 <operator new(unsigned int)+0x14>)
    1730:	f7fe ff3c 	bl	5ac <error>
    1734:	4620      	mov	r0, r4
    1736:	bd10      	pop	{r4, pc}
    1738:	00005efc 	.word	0x00005efc

0000173c <operator delete[](void*)>:
    173c:	b108      	cbz	r0, 1742 <operator delete[](void*)+0x6>
    173e:	f000 be35 	b.w	23ac <free>
    1742:	4770      	bx	lr

00001744 <ManagedFile::~ManagedFile()>:
    1744:	b510      	push	{r4, lr}
    1746:	4604      	mov	r4, r0
    1748:	f7ff fe9a 	bl	1480 <ManagedFile::~ManagedFile()>
    174c:	4620      	mov	r0, r4
    174e:	f7ff fff5 	bl	173c <operator delete[](void*)>
    1752:	4620      	mov	r0, r4
    1754:	bd10      	pop	{r4, pc}

00001756 <operator delete(void*)>:
    1756:	f7ff bff1 	b.w	173c <operator delete[](void*)>
	...

0000175c <mbed::remove_filehandle(mbed::FileLike*)>:
    175c:	b510      	push	{r4, lr}
    175e:	4604      	mov	r4, r0
    1760:	4809      	ldr	r0, [pc, #36]	; (1788 <mbed::remove_filehandle(mbed::FileLike*)+0x2c>)
    1762:	f7ff fce9 	bl	1138 <SingletonPtr<PlatformMutex>::get()>
    1766:	2300      	movs	r3, #0
    1768:	4619      	mov	r1, r3
    176a:	4a08      	ldr	r2, [pc, #32]	; (178c <mbed::remove_filehandle(mbed::FileLike*)+0x30>)
    176c:	f852 0023 	ldr.w	r0, [r2, r3, lsl #2]
    1770:	42a0      	cmp	r0, r4
    1772:	bf08      	it	eq
    1774:	f842 1023 	streq.w	r1, [r2, r3, lsl #2]
    1778:	3301      	adds	r3, #1
    177a:	2b40      	cmp	r3, #64	; 0x40
    177c:	d1f6      	bne.n	176c <mbed::remove_filehandle(mbed::FileLike*)+0x10>
    177e:	4802      	ldr	r0, [pc, #8]	; (1788 <mbed::remove_filehandle(mbed::FileLike*)+0x2c>)
    1780:	f7ff fcda 	bl	1138 <SingletonPtr<PlatformMutex>::get()>
    1784:	bd10      	pop	{r4, pc}
    1786:	bf00      	nop
    1788:	10000548 	.word	0x10000548
    178c:	10000448 	.word	0x10000448

00001790 <_open>:
    1790:	e92d 47f3 	stmdb	sp!, {r0, r1, r4, r5, r6, r7, r8, r9, r10, lr}
    1794:	4689      	mov	r9, r1
    1796:	494a      	ldr	r1, [pc, #296]	; (18c0 <_open+0x130>)
    1798:	4606      	mov	r6, r0
    179a:	f001 ffae 	bl	36fa <strcmp>
    179e:	4604      	mov	r4, r0
    17a0:	b928      	cbnz	r0, 17ae <_open+0x1e>
    17a2:	f7ff fe77 	bl	1494 <init_serial()>
    17a6:	4620      	mov	r0, r4
    17a8:	b002      	add	sp, #8
    17aa:	e8bd 87f0 	ldmia.w	sp!, {r4, r5, r6, r7, r8, r9, r10, pc}
    17ae:	4945      	ldr	r1, [pc, #276]	; (18c4 <_open+0x134>)
    17b0:	4630      	mov	r0, r6
    17b2:	f001 ffa2 	bl	36fa <strcmp>
    17b6:	b918      	cbnz	r0, 17c0 <_open+0x30>
    17b8:	f7ff fe6c 	bl	1494 <init_serial()>
    17bc:	2401      	movs	r4, #1
    17be:	e7f2      	b.n	17a6 <_open+0x16>
    17c0:	4941      	ldr	r1, [pc, #260]	; (18c8 <_open+0x138>)
    17c2:	4630      	mov	r0, r6
    17c4:	f001 ff99 	bl	36fa <strcmp>
    17c8:	b918      	cbnz	r0, 17d2 <_open+0x42>
    17ca:	f7ff fe63 	bl	1494 <init_serial()>
    17ce:	2402      	movs	r4, #2
    17d0:	e7e9      	b.n	17a6 <_open+0x16>
    17d2:	f000 fa91 	bl	1cf8 <__errno>
    17d6:	2309      	movs	r3, #9
    17d8:	4f3c      	ldr	r7, [pc, #240]	; (18cc <_open+0x13c>)
    17da:	6003      	str	r3, [r0, #0]
    17dc:	483c      	ldr	r0, [pc, #240]	; (18d0 <_open+0x140>)
    17de:	f7ff fcab 	bl	1138 <SingletonPtr<PlatformMutex>::get()>
    17e2:	2400      	movs	r4, #0
    17e4:	46b8      	mov	r8, r7
    17e6:	f857 5024 	ldr.w	r5, [r7, r4, lsl #2]
    17ea:	2d00      	cmp	r5, #0
    17ec:	d052      	beq.n	1894 <_open+0x104>
    17ee:	3401      	adds	r4, #1
    17f0:	2c40      	cmp	r4, #64	; 0x40
    17f2:	d1f8      	bne.n	17e6 <_open+0x56>
    17f4:	f000 fa80 	bl	1cf8 <__errno>
    17f8:	2318      	movs	r3, #24
    17fa:	6003      	str	r3, [r0, #0]
    17fc:	4834      	ldr	r0, [pc, #208]	; (18d0 <_open+0x140>)
    17fe:	f7ff fc9b 	bl	1138 <SingletonPtr<PlatformMutex>::get()>
    1802:	e00d      	b.n	1820 <_open+0x90>
    1804:	4631      	mov	r1, r6
    1806:	4668      	mov	r0, sp
    1808:	f7ff fbac 	bl	f64 <mbed::FilePath::FilePath(char const*)>
    180c:	4668      	mov	r0, sp
    180e:	f7ff fbe9 	bl	fe4 <mbed::FilePath::exists()>
    1812:	b940      	cbnz	r0, 1826 <_open+0x96>
    1814:	f847 0024 	str.w	r0, [r7, r4, lsl #2]
    1818:	f000 fa6e 	bl	1cf8 <__errno>
    181c:	2302      	movs	r3, #2
    181e:	6003      	str	r3, [r0, #0]
    1820:	f04f 34ff 	mov.w	r4, #4294967295	; 0xffffffff
    1824:	e7bf      	b.n	17a6 <_open+0x16>
    1826:	4668      	mov	r0, sp
    1828:	f7ff fbcc 	bl	fc4 <mbed::FilePath::isFile()>
    182c:	b120      	cbz	r0, 1838 <_open+0xa8>
    182e:	4668      	mov	r0, sp
    1830:	f7ff fbd1 	bl	fd6 <mbed::FilePath::file()>
    1834:	4605      	mov	r5, r0
    1836:	e03d      	b.n	18b4 <_open+0x124>
    1838:	4668      	mov	r0, sp
    183a:	f7ff fbbc 	bl	fb6 <mbed::FilePath::fileSystem()>
    183e:	4682      	mov	r10, r0
    1840:	b930      	cbnz	r0, 1850 <_open+0xc0>
    1842:	f000 fa59 	bl	1cf8 <__errno>
    1846:	2302      	movs	r3, #2
    1848:	6003      	str	r3, [r0, #0]
    184a:	f847 a024 	str.w	r10, [r7, r4, lsl #2]
    184e:	e7e7      	b.n	1820 <_open+0x90>
    1850:	2018      	movs	r0, #24
    1852:	f7ff ff67 	bl	1724 <operator new(unsigned int)>
    1856:	4606      	mov	r6, r0
    1858:	f7ff fdfa 	bl	1450 <mbed::File::File()>
    185c:	4b1d      	ldr	r3, [pc, #116]	; (18d4 <_open+0x144>)
    185e:	4668      	mov	r0, sp
    1860:	6033      	str	r3, [r6, #0]
    1862:	f7ff fb9d 	bl	fa0 <mbed::FilePath::fileName()>
    1866:	f429 3380 	bic.w	r3, r9, #65536	; 0x10000
    186a:	4602      	mov	r2, r0
    186c:	4651      	mov	r1, r10
    186e:	4630      	mov	r0, r6
    1870:	f7ff fdbf 	bl	13f2 <mbed::File::open(mbed::FileSystem*, char const*, int)>
    1874:	1e07      	subs	r7, r0, #0
    1876:	da0b      	bge.n	1890 <_open+0x100>
    1878:	f000 fa3e 	bl	1cf8 <__errno>
    187c:	427f      	negs	r7, r7
    187e:	6007      	str	r7, [r0, #0]
    1880:	b11e      	cbz	r6, 188a <_open+0xfa>
    1882:	6833      	ldr	r3, [r6, #0]
    1884:	4630      	mov	r0, r6
    1886:	685b      	ldr	r3, [r3, #4]
    1888:	4798      	blx	r3
    188a:	f848 5024 	str.w	r5, [r8, r4, lsl #2]
    188e:	e7c7      	b.n	1820 <_open+0x90>
    1890:	4635      	mov	r5, r6
    1892:	e00f      	b.n	18b4 <_open+0x124>
    1894:	f04f 33ff 	mov.w	r3, #4294967295	; 0xffffffff
    1898:	480d      	ldr	r0, [pc, #52]	; (18d0 <_open+0x140>)
    189a:	f847 3024 	str.w	r3, [r7, r4, lsl #2]
    189e:	f7ff fc4b 	bl	1138 <SingletonPtr<PlatformMutex>::get()>
    18a2:	7833      	ldrb	r3, [r6, #0]
    18a4:	2b3a      	cmp	r3, #58	; 0x3a
    18a6:	d1ad      	bne.n	1804 <_open+0x74>
    18a8:	466a      	mov	r2, sp
    18aa:	490b      	ldr	r1, [pc, #44]	; (18d8 <_open+0x148>)
    18ac:	4630      	mov	r0, r6
    18ae:	f001 feb5 	bl	361c <siscanf>
    18b2:	9d00      	ldr	r5, [sp, #0]
    18b4:	2d00      	cmp	r5, #0
    18b6:	d0e8      	beq.n	188a <_open+0xfa>
    18b8:	f848 5024 	str.w	r5, [r8, r4, lsl #2]
    18bc:	3403      	adds	r4, #3
    18be:	e772      	b.n	17a6 <_open+0x16>
    18c0:	00005f21 	.word	0x00005f21
    18c4:	00005f28 	.word	0x00005f28
    18c8:	00005f19 	.word	0x00005f19
    18cc:	10000448 	.word	0x10000448
    18d0:	10000548 	.word	0x10000548
    18d4:	00005eb8 	.word	0x00005eb8
    18d8:	00005dd8 	.word	0x00005dd8

000018dc <ManagedFile::close()>:
    18dc:	b538      	push	{r3, r4, r5, lr}
    18de:	4604      	mov	r4, r0
    18e0:	f7ff fd3a 	bl	1358 <mbed::File::close()>
    18e4:	4605      	mov	r5, r0
    18e6:	b11c      	cbz	r4, 18f0 <ManagedFile::close()+0x14>
    18e8:	6823      	ldr	r3, [r4, #0]
    18ea:	4620      	mov	r0, r4
    18ec:	685b      	ldr	r3, [r3, #4]
    18ee:	4798      	blx	r3
    18f0:	4628      	mov	r0, r5
    18f2:	bd38      	pop	{r3, r4, r5, pc}

000018f4 <Reset_Handler>:
    18f4:	4906      	ldr	r1, [pc, #24]	; (1910 <Reset_Handler+0x1c>)
    18f6:	4a07      	ldr	r2, [pc, #28]	; (1914 <Reset_Handler+0x20>)
    18f8:	4b07      	ldr	r3, [pc, #28]	; (1918 <Reset_Handler+0x24>)
    18fa:	429a      	cmp	r2, r3
    18fc:	bfbe      	ittt	lt
    18fe:	f851 0b04 	ldrlt.w	r0, [r1], #4
    1902:	f842 0b04 	strlt.w	r0, [r2], #4
    1906:	e7f8      	blt.n	18fa <Reset_Handler+0x6>
    1908:	4804      	ldr	r0, [pc, #16]	; (191c <Reset_Handler+0x28>)
    190a:	4780      	blx	r0
    190c:	4804      	ldr	r0, [pc, #16]	; (1920 <Reset_Handler+0x2c>)
    190e:	4700      	bx	r0
    1910:	0000621c 	.word	0x0000621c
    1914:	100000c8 	.word	0x100000c8
    1918:	100002b4 	.word	0x100002b4
    191c:	00000e4d 	.word	0x00000e4d
    1920:	00000351 	.word	0x00000351

00001924 <NMI_Handler>:
    1924:	e7fe      	b.n	1924 <NMI_Handler>

00001926 <HardFault_Handler>:
    1926:	e7fe      	b.n	1926 <HardFault_Handler>

00001928 <MemManage_Handler>:
    1928:	e7fe      	b.n	1928 <MemManage_Handler>

0000192a <BusFault_Handler>:
    192a:	e7fe      	b.n	192a <BusFault_Handler>

0000192c <UsageFault_Handler>:
    192c:	e7fe      	b.n	192c <UsageFault_Handler>

0000192e <SVC_Handler>:
    192e:	e7fe      	b.n	192e <SVC_Handler>

00001930 <DebugMon_Handler>:
    1930:	e7fe      	b.n	1930 <DebugMon_Handler>

00001932 <PendSV_Handler>:
    1932:	e7fe      	b.n	1932 <PendSV_Handler>

00001934 <SysTick_Handler>:
    1934:	e7fe      	b.n	1934 <SysTick_Handler>

00001936 <ADC_IRQHandler>:
    1936:	e7fe      	b.n	1936 <ADC_IRQHandler>

00001938 <__aeabi_drsub>:
    1938:	f081 4100 	eor.w	r1, r1, #2147483648	; 0x80000000
    193c:	e002      	b.n	1944 <__adddf3>
    193e:	bf00      	nop

00001940 <__aeabi_dsub>:
    1940:	f083 4300 	eor.w	r3, r3, #2147483648	; 0x80000000

00001944 <__adddf3>:
    1944:	b530      	push	{r4, r5, lr}
    1946:	ea4f 0441 	mov.w	r4, r1, lsl #1
    194a:	ea4f 0543 	mov.w	r5, r3, lsl #1
    194e:	ea94 0f05 	teq	r4, r5
    1952:	bf08      	it	eq
    1954:	ea90 0f02 	teqeq	r0, r2
    1958:	bf1f      	itttt	ne
    195a:	ea54 0c00 	orrsne.w	r12, r4, r0
    195e:	ea55 0c02 	orrsne.w	r12, r5, r2
    1962:	ea7f 5c64 	mvnsne.w	r12, r4, asr #21
    1966:	ea7f 5c65 	mvnsne.w	r12, r5, asr #21
    196a:	f000 80e2 	beq.w	1b32 <__adddf3+0x1ee>
    196e:	ea4f 5454 	mov.w	r4, r4, lsr #21
    1972:	ebd4 5555 	rsbs	r5, r4, r5, lsr #21
    1976:	bfb8      	it	lt
    1978:	426d      	neglt	r5, r5
    197a:	dd0c      	ble.n	1996 <__adddf3+0x52>
    197c:	442c      	add	r4, r5
    197e:	ea80 0202 	eor.w	r2, r0, r2
    1982:	ea81 0303 	eor.w	r3, r1, r3
    1986:	ea82 0000 	eor.w	r0, r2, r0
    198a:	ea83 0101 	eor.w	r1, r3, r1
    198e:	ea80 0202 	eor.w	r2, r0, r2
    1992:	ea81 0303 	eor.w	r3, r1, r3
    1996:	2d36      	cmp	r5, #54	; 0x36
    1998:	bf88      	it	hi
    199a:	bd30      	pophi	{r4, r5, pc}
    199c:	f011 4f00 	tst.w	r1, #2147483648	; 0x80000000
    19a0:	ea4f 3101 	mov.w	r1, r1, lsl #12
    19a4:	f44f 1c80 	mov.w	r12, #1048576	; 0x100000
    19a8:	ea4c 3111 	orr.w	r1, r12, r1, lsr #12
    19ac:	d002      	beq.n	19b4 <__adddf3+0x70>
    19ae:	4240      	negs	r0, r0
    19b0:	eb61 0141 	sbc.w	r1, r1, r1, lsl #1
    19b4:	f013 4f00 	tst.w	r3, #2147483648	; 0x80000000
    19b8:	ea4f 3303 	mov.w	r3, r3, lsl #12
    19bc:	ea4c 3313 	orr.w	r3, r12, r3, lsr #12
    19c0:	d002      	beq.n	19c8 <__adddf3+0x84>
    19c2:	4252      	negs	r2, r2
    19c4:	eb63 0343 	sbc.w	r3, r3, r3, lsl #1
    19c8:	ea94 0f05 	teq	r4, r5
    19cc:	f000 80a7 	beq.w	1b1e <__adddf3+0x1da>
    19d0:	f1a4 0401 	sub.w	r4, r4, #1
    19d4:	f1d5 0e20 	rsbs	lr, r5, #32
    19d8:	db0d      	blt.n	19f6 <__adddf3+0xb2>
    19da:	fa02 fc0e 	lsl.w	r12, r2, lr
    19de:	fa22 f205 	lsr.w	r2, r2, r5
    19e2:	1880      	adds	r0, r0, r2
    19e4:	f141 0100 	adc.w	r1, r1, #0
    19e8:	fa03 f20e 	lsl.w	r2, r3, lr
    19ec:	1880      	adds	r0, r0, r2
    19ee:	fa43 f305 	asr.w	r3, r3, r5
    19f2:	4159      	adcs	r1, r3
    19f4:	e00e      	b.n	1a14 <__adddf3+0xd0>
    19f6:	f1a5 0520 	sub.w	r5, r5, #32
    19fa:	f10e 0e20 	add.w	lr, lr, #32
    19fe:	2a01      	cmp	r2, #1
    1a00:	fa03 fc0e 	lsl.w	r12, r3, lr
    1a04:	bf28      	it	cs
    1a06:	f04c 0c02 	orrcs.w	r12, r12, #2
    1a0a:	fa43 f305 	asr.w	r3, r3, r5
    1a0e:	18c0      	adds	r0, r0, r3
    1a10:	eb51 71e3 	adcs.w	r1, r1, r3, asr #31
    1a14:	f001 4500 	and.w	r5, r1, #2147483648	; 0x80000000
    1a18:	d507      	bpl.n	1a2a <__adddf3+0xe6>
    1a1a:	f04f 0e00 	mov.w	lr, #0
    1a1e:	f1dc 0c00 	rsbs	r12, r12, #0
    1a22:	eb7e 0000 	sbcs.w	r0, lr, r0
    1a26:	eb6e 0101 	sbc.w	r1, lr, r1
    1a2a:	f5b1 1f80 	cmp.w	r1, #1048576	; 0x100000
    1a2e:	d31b      	bcc.n	1a68 <__adddf3+0x124>
    1a30:	f5b1 1f00 	cmp.w	r1, #2097152	; 0x200000
    1a34:	d30c      	bcc.n	1a50 <__adddf3+0x10c>
    1a36:	0849      	lsrs	r1, r1, #1
    1a38:	ea5f 0030 	movs.w	r0, r0, rrx
    1a3c:	ea4f 0c3c 	mov.w	r12, r12, rrx
    1a40:	f104 0401 	add.w	r4, r4, #1
    1a44:	ea4f 5244 	mov.w	r2, r4, lsl #21
    1a48:	f512 0f80 	cmn.w	r2, #4194304	; 0x400000
    1a4c:	f080 809a 	bcs.w	1b84 <__adddf3+0x240>
    1a50:	f1bc 4f00 	cmp.w	r12, #2147483648	; 0x80000000
    1a54:	bf08      	it	eq
    1a56:	ea5f 0c50 	movseq.w	r12, r0, lsr #1
    1a5a:	f150 0000 	adcs.w	r0, r0, #0
    1a5e:	eb41 5104 	adc.w	r1, r1, r4, lsl #20
    1a62:	ea41 0105 	orr.w	r1, r1, r5
    1a66:	bd30      	pop	{r4, r5, pc}
    1a68:	ea5f 0c4c 	movs.w	r12, r12, lsl #1
    1a6c:	4140      	adcs	r0, r0
    1a6e:	eb41 0101 	adc.w	r1, r1, r1
    1a72:	f411 1f80 	tst.w	r1, #1048576	; 0x100000
    1a76:	f1a4 0401 	sub.w	r4, r4, #1
    1a7a:	d1e9      	bne.n	1a50 <__adddf3+0x10c>
    1a7c:	f091 0f00 	teq	r1, #0
    1a80:	bf04      	itt	eq
    1a82:	4601      	moveq	r1, r0
    1a84:	2000      	moveq	r0, #0
    1a86:	fab1 f381 	clz	r3, r1
    1a8a:	bf08      	it	eq
    1a8c:	3320      	addeq	r3, #32
    1a8e:	f1a3 030b 	sub.w	r3, r3, #11
    1a92:	f1b3 0220 	subs.w	r2, r3, #32
    1a96:	da0c      	bge.n	1ab2 <__adddf3+0x16e>
    1a98:	320c      	adds	r2, #12
    1a9a:	dd08      	ble.n	1aae <__adddf3+0x16a>
    1a9c:	f102 0c14 	add.w	r12, r2, #20
    1aa0:	f1c2 020c 	rsb	r2, r2, #12
    1aa4:	fa01 f00c 	lsl.w	r0, r1, r12
    1aa8:	fa21 f102 	lsr.w	r1, r1, r2
    1aac:	e00c      	b.n	1ac8 <__adddf3+0x184>
    1aae:	f102 0214 	add.w	r2, r2, #20
    1ab2:	bfd8      	it	le
    1ab4:	f1c2 0c20 	rsble	r12, r2, #32
    1ab8:	fa01 f102 	lsl.w	r1, r1, r2
    1abc:	fa20 fc0c 	lsr.w	r12, r0, r12
    1ac0:	bfdc      	itt	le
    1ac2:	ea41 010c 	orrle.w	r1, r1, r12
    1ac6:	4090      	lslle	r0, r2
    1ac8:	1ae4      	subs	r4, r4, r3
    1aca:	bfa2      	ittt	ge
    1acc:	eb01 5104 	addge.w	r1, r1, r4, lsl #20
    1ad0:	4329      	orrge	r1, r5
    1ad2:	bd30      	popge	{r4, r5, pc}
    1ad4:	ea6f 0404 	mvn.w	r4, r4
    1ad8:	3c1f      	subs	r4, #31
    1ada:	da1c      	bge.n	1b16 <__adddf3+0x1d2>
    1adc:	340c      	adds	r4, #12
    1ade:	dc0e      	bgt.n	1afe <__adddf3+0x1ba>
    1ae0:	f104 0414 	add.w	r4, r4, #20
    1ae4:	f1c4 0220 	rsb	r2, r4, #32
    1ae8:	fa20 f004 	lsr.w	r0, r0, r4
    1aec:	fa01 f302 	lsl.w	r3, r1, r2
    1af0:	ea40 0003 	orr.w	r0, r0, r3
    1af4:	fa21 f304 	lsr.w	r3, r1, r4
    1af8:	ea45 0103 	orr.w	r1, r5, r3
    1afc:	bd30      	pop	{r4, r5, pc}
    1afe:	f1c4 040c 	rsb	r4, r4, #12
    1b02:	f1c4 0220 	rsb	r2, r4, #32
    1b06:	fa20 f002 	lsr.w	r0, r0, r2
    1b0a:	fa01 f304 	lsl.w	r3, r1, r4
    1b0e:	ea40 0003 	orr.w	r0, r0, r3
    1b12:	4629      	mov	r1, r5
    1b14:	bd30      	pop	{r4, r5, pc}
    1b16:	fa21 f004 	lsr.w	r0, r1, r4
    1b1a:	4629      	mov	r1, r5
    1b1c:	bd30      	pop	{r4, r5, pc}
    1b1e:	f094 0f00 	teq	r4, #0
    1b22:	f483 1380 	eor.w	r3, r3, #1048576	; 0x100000
    1b26:	bf06      	itte	eq
    1b28:	f481 1180 	eoreq.w	r1, r1, #1048576	; 0x100000
    1b2c:	3401      	addeq	r4, #1
    1b2e:	3d01      	subne	r5, #1
    1b30:	e74e      	b.n	19d0 <__adddf3+0x8c>
    1b32:	ea7f 5c64 	mvns.w	r12, r4, asr #21
    1b36:	bf18      	it	ne
    1b38:	ea7f 5c65 	mvnsne.w	r12, r5, asr #21
    1b3c:	d029      	beq.n	1b92 <__adddf3+0x24e>
    1b3e:	ea94 0f05 	teq	r4, r5
    1b42:	bf08      	it	eq
    1b44:	ea90 0f02 	teqeq	r0, r2
    1b48:	d005      	beq.n	1b56 <__adddf3+0x212>
    1b4a:	ea54 0c00 	orrs.w	r12, r4, r0
    1b4e:	bf04      	itt	eq
    1b50:	4619      	moveq	r1, r3
    1b52:	4610      	moveq	r0, r2
    1b54:	bd30      	pop	{r4, r5, pc}
    1b56:	ea91 0f03 	teq	r1, r3
    1b5a:	bf1e      	ittt	ne
    1b5c:	2100      	movne	r1, #0
    1b5e:	2000      	movne	r0, #0
    1b60:	bd30      	popne	{r4, r5, pc}
    1b62:	ea5f 5c54 	movs.w	r12, r4, lsr #21
    1b66:	d105      	bne.n	1b74 <__adddf3+0x230>
    1b68:	0040      	lsls	r0, r0, #1
    1b6a:	4149      	adcs	r1, r1
    1b6c:	bf28      	it	cs
    1b6e:	f041 4100 	orrcs.w	r1, r1, #2147483648	; 0x80000000
    1b72:	bd30      	pop	{r4, r5, pc}
    1b74:	f514 0480 	adds.w	r4, r4, #4194304	; 0x400000
    1b78:	bf3c      	itt	cc
    1b7a:	f501 1180 	addcc.w	r1, r1, #1048576	; 0x100000
    1b7e:	bd30      	popcc	{r4, r5, pc}
    1b80:	f001 4500 	and.w	r5, r1, #2147483648	; 0x80000000
    1b84:	f045 41fe 	orr.w	r1, r5, #2130706432	; 0x7f000000
    1b88:	f441 0170 	orr.w	r1, r1, #15728640	; 0xf00000
    1b8c:	f04f 0000 	mov.w	r0, #0
    1b90:	bd30      	pop	{r4, r5, pc}
    1b92:	ea7f 5c64 	mvns.w	r12, r4, asr #21
    1b96:	bf1a      	itte	ne
    1b98:	4619      	movne	r1, r3
    1b9a:	4610      	movne	r0, r2
    1b9c:	ea7f 5c65 	mvnseq.w	r12, r5, asr #21
    1ba0:	bf1c      	itt	ne
    1ba2:	460b      	movne	r3, r1
    1ba4:	4602      	movne	r2, r0
    1ba6:	ea50 3401 	orrs.w	r4, r0, r1, lsl #12
    1baa:	bf06      	itte	eq
    1bac:	ea52 3503 	orrseq.w	r5, r2, r3, lsl #12
    1bb0:	ea91 0f03 	teqeq	r1, r3
    1bb4:	f441 2100 	orrne.w	r1, r1, #524288	; 0x80000
    1bb8:	bd30      	pop	{r4, r5, pc}
    1bba:	bf00      	nop

00001bbc <__aeabi_ui2d>:
    1bbc:	f090 0f00 	teq	r0, #0
    1bc0:	bf04      	itt	eq
    1bc2:	2100      	moveq	r1, #0
    1bc4:	4770      	bxeq	lr
    1bc6:	b530      	push	{r4, r5, lr}
    1bc8:	f44f 6480 	mov.w	r4, #1024	; 0x400
    1bcc:	f104 0432 	add.w	r4, r4, #50	; 0x32
    1bd0:	f04f 0500 	mov.w	r5, #0
    1bd4:	f04f 0100 	mov.w	r1, #0
    1bd8:	e750      	b.n	1a7c <__adddf3+0x138>
    1bda:	bf00      	nop

00001bdc <__aeabi_i2d>:
    1bdc:	f090 0f00 	teq	r0, #0
    1be0:	bf04      	itt	eq
    1be2:	2100      	moveq	r1, #0
    1be4:	4770      	bxeq	lr
    1be6:	b530      	push	{r4, r5, lr}
    1be8:	f44f 6480 	mov.w	r4, #1024	; 0x400
    1bec:	f104 0432 	add.w	r4, r4, #50	; 0x32
    1bf0:	f010 4500 	ands.w	r5, r0, #2147483648	; 0x80000000
    1bf4:	bf48      	it	mi
    1bf6:	4240      	negmi	r0, r0
    1bf8:	f04f 0100 	mov.w	r1, #0
    1bfc:	e73e      	b.n	1a7c <__adddf3+0x138>
    1bfe:	bf00      	nop

00001c00 <__aeabi_f2d>:
    1c00:	0042      	lsls	r2, r0, #1
    1c02:	ea4f 01e2 	mov.w	r1, r2, asr #3
    1c06:	ea4f 0131 	mov.w	r1, r1, rrx
    1c0a:	ea4f 7002 	mov.w	r0, r2, lsl #28
    1c0e:	bf1f      	itttt	ne
    1c10:	f012 437f 	andsne.w	r3, r2, #4278190080	; 0xff000000
    1c14:	f093 4f7f 	teqne	r3, #4278190080	; 0xff000000
    1c18:	f081 5160 	eorne.w	r1, r1, #939524096	; 0x38000000
    1c1c:	4770      	bxne	lr
    1c1e:	f092 0f00 	teq	r2, #0
    1c22:	bf14      	ite	ne
    1c24:	f093 4f7f 	teqne	r3, #4278190080	; 0xff000000
    1c28:	4770      	bxeq	lr
    1c2a:	b530      	push	{r4, r5, lr}
    1c2c:	f44f 7460 	mov.w	r4, #896	; 0x380
    1c30:	f001 4500 	and.w	r5, r1, #2147483648	; 0x80000000
    1c34:	f021 4100 	bic.w	r1, r1, #2147483648	; 0x80000000
    1c38:	e720      	b.n	1a7c <__adddf3+0x138>
    1c3a:	bf00      	nop

00001c3c <__aeabi_ul2d>:
    1c3c:	ea50 0201 	orrs.w	r2, r0, r1
    1c40:	bf08      	it	eq
    1c42:	4770      	bxeq	lr
    1c44:	b530      	push	{r4, r5, lr}
    1c46:	f04f 0500 	mov.w	r5, #0
    1c4a:	e00a      	b.n	1c62 <__aeabi_l2d+0x16>

00001c4c <__aeabi_l2d>:
    1c4c:	ea50 0201 	orrs.w	r2, r0, r1
    1c50:	bf08      	it	eq
    1c52:	4770      	bxeq	lr
    1c54:	b530      	push	{r4, r5, lr}
    1c56:	f011 4500 	ands.w	r5, r1, #2147483648	; 0x80000000
    1c5a:	d502      	bpl.n	1c62 <__aeabi_l2d+0x16>
    1c5c:	4240      	negs	r0, r0
    1c5e:	eb61 0141 	sbc.w	r1, r1, r1, lsl #1
    1c62:	f44f 6480 	mov.w	r4, #1024	; 0x400
    1c66:	f104 0432 	add.w	r4, r4, #50	; 0x32
    1c6a:	ea5f 5c91 	movs.w	r12, r1, lsr #22
    1c6e:	f43f aedc 	beq.w	1a2a <__adddf3+0xe6>
    1c72:	f04f 0203 	mov.w	r2, #3
    1c76:	ea5f 0cdc 	movs.w	r12, r12, lsr #3
    1c7a:	bf18      	it	ne
    1c7c:	3203      	addne	r2, #3
    1c7e:	ea5f 0cdc 	movs.w	r12, r12, lsr #3
    1c82:	bf18      	it	ne
    1c84:	3203      	addne	r2, #3
    1c86:	eb02 02dc 	add.w	r2, r2, r12, lsr #3
    1c8a:	f1c2 0320 	rsb	r3, r2, #32
    1c8e:	fa00 fc03 	lsl.w	r12, r0, r3
    1c92:	fa20 f002 	lsr.w	r0, r0, r2
    1c96:	fa01 fe03 	lsl.w	lr, r1, r3
    1c9a:	ea40 000e 	orr.w	r0, r0, lr
    1c9e:	fa21 f102 	lsr.w	r1, r1, r2
    1ca2:	4414      	add	r4, r2
    1ca4:	e6c1      	b.n	1a2a <__adddf3+0xe6>
    1ca6:	bf00      	nop

00001ca8 <__aeabi_d2iz>:
    1ca8:	ea4f 0241 	mov.w	r2, r1, lsl #1
    1cac:	f512 1200 	adds.w	r2, r2, #2097152	; 0x200000
    1cb0:	d215      	bcs.n	1cde <__aeabi_d2iz+0x36>
    1cb2:	d511      	bpl.n	1cd8 <__aeabi_d2iz+0x30>
    1cb4:	f46f 7378 	mvn.w	r3, #992	; 0x3e0
    1cb8:	ebb3 5262 	subs.w	r2, r3, r2, asr #21
    1cbc:	d912      	bls.n	1ce4 <__aeabi_d2iz+0x3c>
    1cbe:	ea4f 23c1 	mov.w	r3, r1, lsl #11
    1cc2:	f043 4300 	orr.w	r3, r3, #2147483648	; 0x80000000
    1cc6:	ea43 5350 	orr.w	r3, r3, r0, lsr #21
    1cca:	f011 4f00 	tst.w	r1, #2147483648	; 0x80000000
    1cce:	fa23 f002 	lsr.w	r0, r3, r2
    1cd2:	bf18      	it	ne
    1cd4:	4240      	negne	r0, r0
    1cd6:	4770      	bx	lr
    1cd8:	f04f 0000 	mov.w	r0, #0
    1cdc:	4770      	bx	lr
    1cde:	ea50 3001 	orrs.w	r0, r0, r1, lsl #12
    1ce2:	d105      	bne.n	1cf0 <__aeabi_d2iz+0x48>
    1ce4:	f011 4000 	ands.w	r0, r1, #2147483648	; 0x80000000
    1ce8:	bf08      	it	eq
    1cea:	f06f 4000 	mvneq.w	r0, #2147483648	; 0x80000000
    1cee:	4770      	bx	lr
    1cf0:	f04f 0000 	mov.w	r0, #0
    1cf4:	4770      	bx	lr
    1cf6:	bf00      	nop

00001cf8 <__errno>:
    1cf8:	4b01      	ldr	r3, [pc, #4]	; (1d00 <__errno+0x8>)
    1cfa:	6818      	ldr	r0, [r3, #0]
    1cfc:	4770      	bx	lr
    1cfe:	bf00      	nop
    1d00:	100000d8 	.word	0x100000d8

00001d04 <_fclose_r>:
    1d04:	b570      	push	{r4, r5, r6, lr}
    1d06:	4605      	mov	r5, r0
    1d08:	460c      	mov	r4, r1
    1d0a:	b911      	cbnz	r1, 1d12 <_fclose_r+0xe>
    1d0c:	2600      	movs	r6, #0
    1d0e:	4630      	mov	r0, r6
    1d10:	bd70      	pop	{r4, r5, r6, pc}
    1d12:	b118      	cbz	r0, 1d1c <_fclose_r+0x18>
    1d14:	6983      	ldr	r3, [r0, #24]
    1d16:	b90b      	cbnz	r3, 1d1c <_fclose_r+0x18>
    1d18:	f000 f952 	bl	1fc0 <__sinit>
    1d1c:	4b1f      	ldr	r3, [pc, #124]	; (1d9c <_fclose_r+0x98>)
    1d1e:	429c      	cmp	r4, r3
    1d20:	d132      	bne.n	1d88 <_fclose_r+0x84>
    1d22:	686c      	ldr	r4, [r5, #4]
    1d24:	f9b4 300c 	ldrsh.w	r3, [r4, #12]
    1d28:	2b00      	cmp	r3, #0
    1d2a:	d0ef      	beq.n	1d0c <_fclose_r+0x8>
    1d2c:	4621      	mov	r1, r4
    1d2e:	4628      	mov	r0, r5
    1d30:	f000 f842 	bl	1db8 <__sflush_r>
    1d34:	6b23      	ldr	r3, [r4, #48]	; 0x30
    1d36:	4606      	mov	r6, r0
    1d38:	b133      	cbz	r3, 1d48 <_fclose_r+0x44>
    1d3a:	6a21      	ldr	r1, [r4, #32]
    1d3c:	4628      	mov	r0, r5
    1d3e:	4798      	blx	r3
    1d40:	2800      	cmp	r0, #0
    1d42:	bfb8      	it	lt
    1d44:	f04f 36ff 	movlt.w	r6, #4294967295	; 0xffffffff
    1d48:	89a3      	ldrh	r3, [r4, #12]
    1d4a:	061b      	lsls	r3, r3, #24
    1d4c:	d503      	bpl.n	1d56 <_fclose_r+0x52>
    1d4e:	6921      	ldr	r1, [r4, #16]
    1d50:	4628      	mov	r0, r5
    1d52:	f7ff fb91 	bl	1478 <__wrap__free_r>
    1d56:	6b61      	ldr	r1, [r4, #52]	; 0x34
    1d58:	b141      	cbz	r1, 1d6c <_fclose_r+0x68>
    1d5a:	f104 0344 	add.w	r3, r4, #68	; 0x44
    1d5e:	4299      	cmp	r1, r3
    1d60:	d002      	beq.n	1d68 <_fclose_r+0x64>
    1d62:	4628      	mov	r0, r5
    1d64:	f7ff fb88 	bl	1478 <__wrap__free_r>
    1d68:	2300      	movs	r3, #0
    1d6a:	6363      	str	r3, [r4, #52]	; 0x34
    1d6c:	6ca1      	ldr	r1, [r4, #72]	; 0x48
    1d6e:	b121      	cbz	r1, 1d7a <_fclose_r+0x76>
    1d70:	4628      	mov	r0, r5
    1d72:	f7ff fb81 	bl	1478 <__wrap__free_r>
    1d76:	2300      	movs	r3, #0
    1d78:	64a3      	str	r3, [r4, #72]	; 0x48
    1d7a:	f000 f98d 	bl	2098 <__sfp_lock_acquire>
    1d7e:	2300      	movs	r3, #0
    1d80:	81a3      	strh	r3, [r4, #12]
    1d82:	f000 f98a 	bl	209a <__sfp_lock_release>
    1d86:	e7c2      	b.n	1d0e <_fclose_r+0xa>
    1d88:	4b05      	ldr	r3, [pc, #20]	; (1da0 <_fclose_r+0x9c>)
    1d8a:	429c      	cmp	r4, r3
    1d8c:	d101      	bne.n	1d92 <_fclose_r+0x8e>
    1d8e:	68ac      	ldr	r4, [r5, #8]
    1d90:	e7c8      	b.n	1d24 <_fclose_r+0x20>
    1d92:	4b04      	ldr	r3, [pc, #16]	; (1da4 <_fclose_r+0xa0>)
    1d94:	429c      	cmp	r4, r3
    1d96:	bf08      	it	eq
    1d98:	68ec      	ldreq	r4, [r5, #12]
    1d9a:	e7c3      	b.n	1d24 <_fclose_r+0x20>
    1d9c:	00005f50 	.word	0x00005f50
    1da0:	00005f70 	.word	0x00005f70
    1da4:	00005f30 	.word	0x00005f30

00001da8 <fclose>:
    1da8:	4b02      	ldr	r3, [pc, #8]	; (1db4 <fclose+0xc>)
    1daa:	4601      	mov	r1, r0
    1dac:	6818      	ldr	r0, [r3, #0]
    1dae:	f7ff bfa9 	b.w	1d04 <_fclose_r>
    1db2:	bf00      	nop
    1db4:	100000d8 	.word	0x100000d8

00001db8 <__sflush_r>:
    1db8:	898a      	ldrh	r2, [r1, #12]
    1dba:	e92d 41f0 	stmdb	sp!, {r4, r5, r6, r7, r8, lr}
    1dbe:	4605      	mov	r5, r0
    1dc0:	0710      	lsls	r0, r2, #28
    1dc2:	460c      	mov	r4, r1
    1dc4:	d45a      	bmi.n	1e7c <__sflush_r+0xc4>
    1dc6:	684b      	ldr	r3, [r1, #4]
    1dc8:	2b00      	cmp	r3, #0
    1dca:	dc05      	bgt.n	1dd8 <__sflush_r+0x20>
    1dcc:	6c0b      	ldr	r3, [r1, #64]	; 0x40
    1dce:	2b00      	cmp	r3, #0
    1dd0:	dc02      	bgt.n	1dd8 <__sflush_r+0x20>
    1dd2:	2000      	movs	r0, #0
    1dd4:	e8bd 81f0 	ldmia.w	sp!, {r4, r5, r6, r7, r8, pc}
    1dd8:	6ae6      	ldr	r6, [r4, #44]	; 0x2c
    1dda:	2e00      	cmp	r6, #0
    1ddc:	d0f9      	beq.n	1dd2 <__sflush_r+0x1a>
    1dde:	2300      	movs	r3, #0
    1de0:	f412 5280 	ands.w	r2, r2, #4096	; 0x1000
    1de4:	682f      	ldr	r7, [r5, #0]
    1de6:	602b      	str	r3, [r5, #0]
    1de8:	d033      	beq.n	1e52 <__sflush_r+0x9a>
    1dea:	6d60      	ldr	r0, [r4, #84]	; 0x54
    1dec:	89a3      	ldrh	r3, [r4, #12]
    1dee:	075a      	lsls	r2, r3, #29
    1df0:	d505      	bpl.n	1dfe <__sflush_r+0x46>
    1df2:	6863      	ldr	r3, [r4, #4]
    1df4:	1ac0      	subs	r0, r0, r3
    1df6:	6b63      	ldr	r3, [r4, #52]	; 0x34
    1df8:	b10b      	cbz	r3, 1dfe <__sflush_r+0x46>
    1dfa:	6c23      	ldr	r3, [r4, #64]	; 0x40
    1dfc:	1ac0      	subs	r0, r0, r3
    1dfe:	2300      	movs	r3, #0
    1e00:	4602      	mov	r2, r0
    1e02:	6ae6      	ldr	r6, [r4, #44]	; 0x2c
    1e04:	6a21      	ldr	r1, [r4, #32]
    1e06:	4628      	mov	r0, r5
    1e08:	47b0      	blx	r6
    1e0a:	1c43      	adds	r3, r0, #1
    1e0c:	89a3      	ldrh	r3, [r4, #12]
    1e0e:	d106      	bne.n	1e1e <__sflush_r+0x66>
    1e10:	6829      	ldr	r1, [r5, #0]
    1e12:	291d      	cmp	r1, #29
    1e14:	d84b      	bhi.n	1eae <__sflush_r+0xf6>
    1e16:	4a2b      	ldr	r2, [pc, #172]	; (1ec4 <__sflush_r+0x10c>)
    1e18:	40ca      	lsrs	r2, r1
    1e1a:	07d6      	lsls	r6, r2, #31
    1e1c:	d547      	bpl.n	1eae <__sflush_r+0xf6>
    1e1e:	2200      	movs	r2, #0
    1e20:	6062      	str	r2, [r4, #4]
    1e22:	6922      	ldr	r2, [r4, #16]
    1e24:	04d9      	lsls	r1, r3, #19
    1e26:	6022      	str	r2, [r4, #0]
    1e28:	d504      	bpl.n	1e34 <__sflush_r+0x7c>
    1e2a:	1c42      	adds	r2, r0, #1
    1e2c:	d101      	bne.n	1e32 <__sflush_r+0x7a>
    1e2e:	682b      	ldr	r3, [r5, #0]
    1e30:	b903      	cbnz	r3, 1e34 <__sflush_r+0x7c>
    1e32:	6560      	str	r0, [r4, #84]	; 0x54
    1e34:	6b61      	ldr	r1, [r4, #52]	; 0x34
    1e36:	602f      	str	r7, [r5, #0]
    1e38:	2900      	cmp	r1, #0
    1e3a:	d0ca      	beq.n	1dd2 <__sflush_r+0x1a>
    1e3c:	f104 0344 	add.w	r3, r4, #68	; 0x44
    1e40:	4299      	cmp	r1, r3
    1e42:	d002      	beq.n	1e4a <__sflush_r+0x92>
    1e44:	4628      	mov	r0, r5
    1e46:	f7ff fb17 	bl	1478 <__wrap__free_r>
    1e4a:	2000      	movs	r0, #0
    1e4c:	6360      	str	r0, [r4, #52]	; 0x34
    1e4e:	e8bd 81f0 	ldmia.w	sp!, {r4, r5, r6, r7, r8, pc}
    1e52:	6a21      	ldr	r1, [r4, #32]
    1e54:	2301      	movs	r3, #1
    1e56:	4628      	mov	r0, r5
    1e58:	47b0      	blx	r6
    1e5a:	1c41      	adds	r1, r0, #1
    1e5c:	d1c6      	bne.n	1dec <__sflush_r+0x34>
    1e5e:	682b      	ldr	r3, [r5, #0]
    1e60:	2b00      	cmp	r3, #0
    1e62:	d0c3      	beq.n	1dec <__sflush_r+0x34>
    1e64:	2b1d      	cmp	r3, #29
    1e66:	d001      	beq.n	1e6c <__sflush_r+0xb4>
    1e68:	2b16      	cmp	r3, #22
    1e6a:	d101      	bne.n	1e70 <__sflush_r+0xb8>
    1e6c:	602f      	str	r7, [r5, #0]
    1e6e:	e7b0      	b.n	1dd2 <__sflush_r+0x1a>
    1e70:	89a3      	ldrh	r3, [r4, #12]
    1e72:	f043 0340 	orr.w	r3, r3, #64	; 0x40
    1e76:	81a3      	strh	r3, [r4, #12]
    1e78:	e8bd 81f0 	ldmia.w	sp!, {r4, r5, r6, r7, r8, pc}
    1e7c:	690f      	ldr	r7, [r1, #16]
    1e7e:	2f00      	cmp	r7, #0
    1e80:	d0a7      	beq.n	1dd2 <__sflush_r+0x1a>
    1e82:	0793      	lsls	r3, r2, #30
    1e84:	bf18      	it	ne
    1e86:	2300      	movne	r3, #0
    1e88:	680e      	ldr	r6, [r1, #0]
    1e8a:	bf08      	it	eq
    1e8c:	694b      	ldreq	r3, [r1, #20]
    1e8e:	eba6 0807 	sub.w	r8, r6, r7
    1e92:	600f      	str	r7, [r1, #0]
    1e94:	608b      	str	r3, [r1, #8]
    1e96:	f1b8 0f00 	cmp.w	r8, #0
    1e9a:	dd9a      	ble.n	1dd2 <__sflush_r+0x1a>
    1e9c:	4643      	mov	r3, r8
    1e9e:	463a      	mov	r2, r7
    1ea0:	6a21      	ldr	r1, [r4, #32]
    1ea2:	4628      	mov	r0, r5
    1ea4:	6aa6      	ldr	r6, [r4, #40]	; 0x28
    1ea6:	47b0      	blx	r6
    1ea8:	2800      	cmp	r0, #0
    1eaa:	dc07      	bgt.n	1ebc <__sflush_r+0x104>
    1eac:	89a3      	ldrh	r3, [r4, #12]
    1eae:	f043 0340 	orr.w	r3, r3, #64	; 0x40
    1eb2:	81a3      	strh	r3, [r4, #12]
    1eb4:	f04f 30ff 	mov.w	r0, #4294967295	; 0xffffffff
    1eb8:	e8bd 81f0 	ldmia.w	sp!, {r4, r5, r6, r7, r8, pc}
    1ebc:	4407      	add	r7, r0
    1ebe:	eba8 0800 	sub.w	r8, r8, r0
    1ec2:	e7e8      	b.n	1e96 <__sflush_r+0xde>
    1ec4:	20400001 	.word	0x20400001

00001ec8 <_fflush_r>:
    1ec8:	b538      	push	{r3, r4, r5, lr}
    1eca:	690b      	ldr	r3, [r1, #16]
    1ecc:	4605      	mov	r5, r0
    1ece:	460c      	mov	r4, r1
    1ed0:	b1db      	cbz	r3, 1f0a <_fflush_r+0x42>
    1ed2:	b118      	cbz	r0, 1edc <_fflush_r+0x14>
    1ed4:	6983      	ldr	r3, [r0, #24]
    1ed6:	b90b      	cbnz	r3, 1edc <_fflush_r+0x14>
    1ed8:	f000 f872 	bl	1fc0 <__sinit>
    1edc:	4b0c      	ldr	r3, [pc, #48]	; (1f10 <_fflush_r+0x48>)
    1ede:	429c      	cmp	r4, r3
    1ee0:	d109      	bne.n	1ef6 <_fflush_r+0x2e>
    1ee2:	686c      	ldr	r4, [r5, #4]
    1ee4:	f9b4 300c 	ldrsh.w	r3, [r4, #12]
    1ee8:	b17b      	cbz	r3, 1f0a <_fflush_r+0x42>
    1eea:	4621      	mov	r1, r4
    1eec:	4628      	mov	r0, r5
    1eee:	e8bd 4038 	ldmia.w	sp!, {r3, r4, r5, lr}
    1ef2:	f7ff bf61 	b.w	1db8 <__sflush_r>
    1ef6:	4b07      	ldr	r3, [pc, #28]	; (1f14 <_fflush_r+0x4c>)
    1ef8:	429c      	cmp	r4, r3
    1efa:	d101      	bne.n	1f00 <_fflush_r+0x38>
    1efc:	68ac      	ldr	r4, [r5, #8]
    1efe:	e7f1      	b.n	1ee4 <_fflush_r+0x1c>
    1f00:	4b05      	ldr	r3, [pc, #20]	; (1f18 <_fflush_r+0x50>)
    1f02:	429c      	cmp	r4, r3
    1f04:	bf08      	it	eq
    1f06:	68ec      	ldreq	r4, [r5, #12]
    1f08:	e7ec      	b.n	1ee4 <_fflush_r+0x1c>
    1f0a:	2000      	movs	r0, #0
    1f0c:	bd38      	pop	{r3, r4, r5, pc}
    1f0e:	bf00      	nop
    1f10:	00005f50 	.word	0x00005f50
    1f14:	00005f70 	.word	0x00005f70
    1f18:	00005f30 	.word	0x00005f30

00001f1c <fflush>:
    1f1c:	4601      	mov	r1, r0
    1f1e:	b920      	cbnz	r0, 1f2a <fflush+0xe>
    1f20:	4b04      	ldr	r3, [pc, #16]	; (1f34 <fflush+0x18>)
    1f22:	4905      	ldr	r1, [pc, #20]	; (1f38 <fflush+0x1c>)
    1f24:	6818      	ldr	r0, [r3, #0]
    1f26:	f000 b993 	b.w	2250 <_fwalk_reent>
    1f2a:	4b04      	ldr	r3, [pc, #16]	; (1f3c <fflush+0x20>)
    1f2c:	6818      	ldr	r0, [r3, #0]
    1f2e:	f7ff bfcb 	b.w	1ec8 <_fflush_r>
    1f32:	bf00      	nop
    1f34:	00005f90 	.word	0x00005f90
    1f38:	00001ec9 	.word	0x00001ec9
    1f3c:	100000d8 	.word	0x100000d8

00001f40 <_cleanup_r>:
    1f40:	4901      	ldr	r1, [pc, #4]	; (1f48 <_cleanup_r+0x8>)
    1f42:	f000 b985 	b.w	2250 <_fwalk_reent>
    1f46:	bf00      	nop
    1f48:	00001ec9 	.word	0x00001ec9

00001f4c <std.isra.0>:
    1f4c:	2300      	movs	r3, #0
    1f4e:	b510      	push	{r4, lr}
    1f50:	4604      	mov	r4, r0
    1f52:	6003      	str	r3, [r0, #0]
    1f54:	6043      	str	r3, [r0, #4]
    1f56:	6083      	str	r3, [r0, #8]
    1f58:	8181      	strh	r1, [r0, #12]
    1f5a:	6643      	str	r3, [r0, #100]	; 0x64
    1f5c:	81c2      	strh	r2, [r0, #14]
    1f5e:	6103      	str	r3, [r0, #16]
    1f60:	6143      	str	r3, [r0, #20]
    1f62:	6183      	str	r3, [r0, #24]
    1f64:	4619      	mov	r1, r3
    1f66:	2208      	movs	r2, #8
    1f68:	305c      	adds	r0, #92	; 0x5c
    1f6a:	f000 fa40 	bl	23ee <memset>
    1f6e:	4b05      	ldr	r3, [pc, #20]	; (1f84 <std.isra.0+0x38>)
    1f70:	6224      	str	r4, [r4, #32]
    1f72:	6263      	str	r3, [r4, #36]	; 0x24
    1f74:	4b04      	ldr	r3, [pc, #16]	; (1f88 <std.isra.0+0x3c>)
    1f76:	62a3      	str	r3, [r4, #40]	; 0x28
    1f78:	4b04      	ldr	r3, [pc, #16]	; (1f8c <std.isra.0+0x40>)
    1f7a:	62e3      	str	r3, [r4, #44]	; 0x2c
    1f7c:	4b04      	ldr	r3, [pc, #16]	; (1f90 <std.isra.0+0x44>)
    1f7e:	6323      	str	r3, [r4, #48]	; 0x30
    1f80:	bd10      	pop	{r4, pc}
    1f82:	bf00      	nop
    1f84:	00003671 	.word	0x00003671
    1f88:	00003697 	.word	0x00003697
    1f8c:	000036cf 	.word	0x000036cf
    1f90:	000036f3 	.word	0x000036f3

00001f94 <__sfmoreglue>:
    1f94:	b570      	push	{r4, r5, r6, lr}
    1f96:	2568      	movs	r5, #104	; 0x68
    1f98:	1e4a      	subs	r2, r1, #1
    1f9a:	4355      	muls	r5, r2
    1f9c:	460e      	mov	r6, r1
    1f9e:	f105 0174 	add.w	r1, r5, #116	; 0x74
    1fa2:	f7ff fa65 	bl	1470 <__wrap__malloc_r>
    1fa6:	4604      	mov	r4, r0
    1fa8:	b140      	cbz	r0, 1fbc <__sfmoreglue+0x28>
    1faa:	2100      	movs	r1, #0
    1fac:	e880 0042 	stmia.w	r0, {r1, r6}
    1fb0:	300c      	adds	r0, #12
    1fb2:	60a0      	str	r0, [r4, #8]
    1fb4:	f105 0268 	add.w	r2, r5, #104	; 0x68
    1fb8:	f000 fa19 	bl	23ee <memset>
    1fbc:	4620      	mov	r0, r4
    1fbe:	bd70      	pop	{r4, r5, r6, pc}

00001fc0 <__sinit>:
    1fc0:	6983      	ldr	r3, [r0, #24]
    1fc2:	b510      	push	{r4, lr}
    1fc4:	4604      	mov	r4, r0
    1fc6:	bb33      	cbnz	r3, 2016 <__sinit+0x56>
    1fc8:	6483      	str	r3, [r0, #72]	; 0x48
    1fca:	64c3      	str	r3, [r0, #76]	; 0x4c
    1fcc:	6503      	str	r3, [r0, #80]	; 0x50
    1fce:	4b12      	ldr	r3, [pc, #72]	; (2018 <__sinit+0x58>)
    1fd0:	4a12      	ldr	r2, [pc, #72]	; (201c <__sinit+0x5c>)
    1fd2:	681b      	ldr	r3, [r3, #0]
    1fd4:	6282      	str	r2, [r0, #40]	; 0x28
    1fd6:	4298      	cmp	r0, r3
    1fd8:	bf04      	itt	eq
    1fda:	2301      	moveq	r3, #1
    1fdc:	6183      	streq	r3, [r0, #24]
    1fde:	f000 f81f 	bl	2020 <__sfp>
    1fe2:	6060      	str	r0, [r4, #4]
    1fe4:	4620      	mov	r0, r4
    1fe6:	f000 f81b 	bl	2020 <__sfp>
    1fea:	60a0      	str	r0, [r4, #8]
    1fec:	4620      	mov	r0, r4
    1fee:	f000 f817 	bl	2020 <__sfp>
    1ff2:	2200      	movs	r2, #0
    1ff4:	60e0      	str	r0, [r4, #12]
    1ff6:	2104      	movs	r1, #4
    1ff8:	6860      	ldr	r0, [r4, #4]
    1ffa:	f7ff ffa7 	bl	1f4c <std.isra.0>
    1ffe:	2201      	movs	r2, #1
    2000:	2109      	movs	r1, #9
    2002:	68a0      	ldr	r0, [r4, #8]
    2004:	f7ff ffa2 	bl	1f4c <std.isra.0>
    2008:	2202      	movs	r2, #2
    200a:	2112      	movs	r1, #18
    200c:	68e0      	ldr	r0, [r4, #12]
    200e:	f7ff ff9d 	bl	1f4c <std.isra.0>
    2012:	2301      	movs	r3, #1
    2014:	61a3      	str	r3, [r4, #24]
    2016:	bd10      	pop	{r4, pc}
    2018:	00005f90 	.word	0x00005f90
    201c:	00001f41 	.word	0x00001f41

00002020 <__sfp>:
    2020:	b5f8      	push	{r3, r4, r5, r6, r7, lr}
    2022:	4b1c      	ldr	r3, [pc, #112]	; (2094 <__sfp+0x74>)
    2024:	4607      	mov	r7, r0
    2026:	681e      	ldr	r6, [r3, #0]
    2028:	69b3      	ldr	r3, [r6, #24]
    202a:	b913      	cbnz	r3, 2032 <__sfp+0x12>
    202c:	4630      	mov	r0, r6
    202e:	f7ff ffc7 	bl	1fc0 <__sinit>
    2032:	3648      	adds	r6, #72	; 0x48
    2034:	68b4      	ldr	r4, [r6, #8]
    2036:	6873      	ldr	r3, [r6, #4]
    2038:	3b01      	subs	r3, #1
    203a:	d503      	bpl.n	2044 <__sfp+0x24>
    203c:	6833      	ldr	r3, [r6, #0]
    203e:	b133      	cbz	r3, 204e <__sfp+0x2e>
    2040:	6836      	ldr	r6, [r6, #0]
    2042:	e7f7      	b.n	2034 <__sfp+0x14>
    2044:	f9b4 500c 	ldrsh.w	r5, [r4, #12]
    2048:	b16d      	cbz	r5, 2066 <__sfp+0x46>
    204a:	3468      	adds	r4, #104	; 0x68
    204c:	e7f4      	b.n	2038 <__sfp+0x18>
    204e:	2104      	movs	r1, #4
    2050:	4638      	mov	r0, r7
    2052:	f7ff ff9f 	bl	1f94 <__sfmoreglue>
    2056:	6030      	str	r0, [r6, #0]
    2058:	2800      	cmp	r0, #0
    205a:	d1f1      	bne.n	2040 <__sfp+0x20>
    205c:	230c      	movs	r3, #12
    205e:	4604      	mov	r4, r0
    2060:	603b      	str	r3, [r7, #0]
    2062:	4620      	mov	r0, r4
    2064:	bdf8      	pop	{r3, r4, r5, r6, r7, pc}
    2066:	f64f 73ff 	movw	r3, #65535	; 0xffff
    206a:	81e3      	strh	r3, [r4, #14]
    206c:	2301      	movs	r3, #1
    206e:	6665      	str	r5, [r4, #100]	; 0x64
    2070:	81a3      	strh	r3, [r4, #12]
    2072:	6025      	str	r5, [r4, #0]
    2074:	60a5      	str	r5, [r4, #8]
    2076:	6065      	str	r5, [r4, #4]
    2078:	6125      	str	r5, [r4, #16]
    207a:	6165      	str	r5, [r4, #20]
    207c:	61a5      	str	r5, [r4, #24]
    207e:	2208      	movs	r2, #8
    2080:	4629      	mov	r1, r5
    2082:	f104 005c 	add.w	r0, r4, #92	; 0x5c
    2086:	f000 f9b2 	bl	23ee <memset>
    208a:	6365      	str	r5, [r4, #52]	; 0x34
    208c:	63a5      	str	r5, [r4, #56]	; 0x38
    208e:	64a5      	str	r5, [r4, #72]	; 0x48
    2090:	64e5      	str	r5, [r4, #76]	; 0x4c
    2092:	e7e6      	b.n	2062 <__sfp+0x42>
    2094:	00005f90 	.word	0x00005f90

00002098 <__sfp_lock_acquire>:
    2098:	4770      	bx	lr

0000209a <__sfp_lock_release>:
    209a:	4770      	bx	lr

0000209c <_fopen_r>:
    209c:	b5f7      	push	{r0, r1, r2, r4, r5, r6, r7, lr}
    209e:	460f      	mov	r7, r1
    20a0:	4611      	mov	r1, r2
    20a2:	aa01      	add	r2, sp, #4
    20a4:	4605      	mov	r5, r0
    20a6:	f002 fbeb 	bl	4880 <__sflags>
    20aa:	4606      	mov	r6, r0
    20ac:	b918      	cbnz	r0, 20b6 <_fopen_r+0x1a>
    20ae:	2400      	movs	r4, #0
    20b0:	4620      	mov	r0, r4
    20b2:	b003      	add	sp, #12
    20b4:	bdf0      	pop	{r4, r5, r6, r7, pc}
    20b6:	4628      	mov	r0, r5
    20b8:	f7ff ffb2 	bl	2020 <__sfp>
    20bc:	4604      	mov	r4, r0
    20be:	2800      	cmp	r0, #0
    20c0:	d0f5      	beq.n	20ae <_fopen_r+0x12>
    20c2:	f44f 73db 	mov.w	r3, #438	; 0x1b6
    20c6:	9a01      	ldr	r2, [sp, #4]
    20c8:	4639      	mov	r1, r7
    20ca:	4628      	mov	r0, r5
    20cc:	f001 f97a 	bl	33c4 <_open_r>
    20d0:	2800      	cmp	r0, #0
    20d2:	da06      	bge.n	20e2 <_fopen_r+0x46>
    20d4:	2500      	movs	r5, #0
    20d6:	f7ff ffdf 	bl	2098 <__sfp_lock_acquire>
    20da:	81a5      	strh	r5, [r4, #12]
    20dc:	f7ff ffdd 	bl	209a <__sfp_lock_release>
    20e0:	e7e5      	b.n	20ae <_fopen_r+0x12>
    20e2:	4b0a      	ldr	r3, [pc, #40]	; (210c <_fopen_r+0x70>)
    20e4:	81e0      	strh	r0, [r4, #14]
    20e6:	6263      	str	r3, [r4, #36]	; 0x24
    20e8:	4b09      	ldr	r3, [pc, #36]	; (2110 <_fopen_r+0x74>)
    20ea:	81a6      	strh	r6, [r4, #12]
    20ec:	62a3      	str	r3, [r4, #40]	; 0x28
    20ee:	4b09      	ldr	r3, [pc, #36]	; (2114 <_fopen_r+0x78>)
    20f0:	6224      	str	r4, [r4, #32]
    20f2:	62e3      	str	r3, [r4, #44]	; 0x2c
    20f4:	4b08      	ldr	r3, [pc, #32]	; (2118 <_fopen_r+0x7c>)
    20f6:	6323      	str	r3, [r4, #48]	; 0x30
    20f8:	05f3      	lsls	r3, r6, #23
    20fa:	d5d9      	bpl.n	20b0 <_fopen_r+0x14>
    20fc:	2302      	movs	r3, #2
    20fe:	2200      	movs	r2, #0
    2100:	4621      	mov	r1, r4
    2102:	4628      	mov	r0, r5
    2104:	f000 f812 	bl	212c <_fseek_r>
    2108:	e7d2      	b.n	20b0 <_fopen_r+0x14>
    210a:	bf00      	nop
    210c:	00003671 	.word	0x00003671
    2110:	00003697 	.word	0x00003697
    2114:	000036cf 	.word	0x000036cf
    2118:	000036f3 	.word	0x000036f3

0000211c <fopen>:
    211c:	4b02      	ldr	r3, [pc, #8]	; (2128 <fopen+0xc>)
    211e:	460a      	mov	r2, r1
    2120:	4601      	mov	r1, r0
    2122:	6818      	ldr	r0, [r3, #0]
    2124:	f7ff bfba 	b.w	209c <_fopen_r>
    2128:	100000d8 	.word	0x100000d8

0000212c <_fseek_r>:
    212c:	f000 b800 	b.w	2130 <_fseeko_r>

00002130 <_fseeko_r>:
    2130:	e92d 43f8 	stmdb	sp!, {r3, r4, r5, r6, r7, r8, r9, lr}
    2134:	460c      	mov	r4, r1
    2136:	4691      	mov	r9, r2
    2138:	461e      	mov	r6, r3
    213a:	4605      	mov	r5, r0
    213c:	b118      	cbz	r0, 2146 <_fseeko_r+0x16>
    213e:	6983      	ldr	r3, [r0, #24]
    2140:	b90b      	cbnz	r3, 2146 <_fseeko_r+0x16>
    2142:	f7ff ff3d 	bl	1fc0 <__sinit>
    2146:	4b3f      	ldr	r3, [pc, #252]	; (2244 <_fseeko_r+0x114>)
    2148:	429c      	cmp	r4, r3
    214a:	d112      	bne.n	2172 <_fseeko_r+0x42>
    214c:	686c      	ldr	r4, [r5, #4]
    214e:	89a3      	ldrh	r3, [r4, #12]
    2150:	f403 7384 	and.w	r3, r3, #264	; 0x108
    2154:	f5b3 7f84 	cmp.w	r3, #264	; 0x108
    2158:	d103      	bne.n	2162 <_fseeko_r+0x32>
    215a:	4621      	mov	r1, r4
    215c:	4628      	mov	r0, r5
    215e:	f7ff feb3 	bl	1ec8 <_fflush_r>
    2162:	f8d4 802c 	ldr.w	r8, [r4, #44]	; 0x2c
    2166:	f1b8 0f00 	cmp.w	r8, #0
    216a:	d10c      	bne.n	2186 <_fseeko_r+0x56>
    216c:	231d      	movs	r3, #29
    216e:	602b      	str	r3, [r5, #0]
    2170:	e057      	b.n	2222 <_fseeko_r+0xf2>
    2172:	4b35      	ldr	r3, [pc, #212]	; (2248 <_fseeko_r+0x118>)
    2174:	429c      	cmp	r4, r3
    2176:	d101      	bne.n	217c <_fseeko_r+0x4c>
    2178:	68ac      	ldr	r4, [r5, #8]
    217a:	e7e8      	b.n	214e <_fseeko_r+0x1e>
    217c:	4b33      	ldr	r3, [pc, #204]	; (224c <_fseeko_r+0x11c>)
    217e:	429c      	cmp	r4, r3
    2180:	bf08      	it	eq
    2182:	68ec      	ldreq	r4, [r5, #12]
    2184:	e7e3      	b.n	214e <_fseeko_r+0x1e>
    2186:	2e01      	cmp	r6, #1
    2188:	d030      	beq.n	21ec <_fseeko_r+0xbc>
    218a:	2e02      	cmp	r6, #2
    218c:	d001      	beq.n	2192 <_fseeko_r+0x62>
    218e:	2e00      	cmp	r6, #0
    2190:	d155      	bne.n	223e <_fseeko_r+0x10e>
    2192:	6923      	ldr	r3, [r4, #16]
    2194:	b91b      	cbnz	r3, 219e <_fseeko_r+0x6e>
    2196:	4621      	mov	r1, r4
    2198:	4628      	mov	r0, r5
    219a:	f000 f8bf 	bl	231c <__smakebuf_r>
    219e:	4621      	mov	r1, r4
    21a0:	4628      	mov	r0, r5
    21a2:	f7ff fe91 	bl	1ec8 <_fflush_r>
    21a6:	4607      	mov	r7, r0
    21a8:	2800      	cmp	r0, #0
    21aa:	d13a      	bne.n	2222 <_fseeko_r+0xf2>
    21ac:	4633      	mov	r3, r6
    21ae:	464a      	mov	r2, r9
    21b0:	6a21      	ldr	r1, [r4, #32]
    21b2:	4628      	mov	r0, r5
    21b4:	47c0      	blx	r8
    21b6:	3001      	adds	r0, #1
    21b8:	d033      	beq.n	2222 <_fseeko_r+0xf2>
    21ba:	6b61      	ldr	r1, [r4, #52]	; 0x34
    21bc:	b141      	cbz	r1, 21d0 <_fseeko_r+0xa0>
    21be:	f104 0344 	add.w	r3, r4, #68	; 0x44
    21c2:	4299      	cmp	r1, r3
    21c4:	d002      	beq.n	21cc <_fseeko_r+0x9c>
    21c6:	4628      	mov	r0, r5
    21c8:	f7ff f956 	bl	1478 <__wrap__free_r>
    21cc:	2300      	movs	r3, #0
    21ce:	6363      	str	r3, [r4, #52]	; 0x34
    21d0:	2100      	movs	r1, #0
    21d2:	6923      	ldr	r3, [r4, #16]
    21d4:	6061      	str	r1, [r4, #4]
    21d6:	6023      	str	r3, [r4, #0]
    21d8:	89a3      	ldrh	r3, [r4, #12]
    21da:	2208      	movs	r2, #8
    21dc:	f423 6302 	bic.w	r3, r3, #2080	; 0x820
    21e0:	81a3      	strh	r3, [r4, #12]
    21e2:	f104 005c 	add.w	r0, r4, #92	; 0x5c
    21e6:	f000 f902 	bl	23ee <memset>
    21ea:	e01c      	b.n	2226 <_fseeko_r+0xf6>
    21ec:	4621      	mov	r1, r4
    21ee:	4628      	mov	r0, r5
    21f0:	f7ff fe6a 	bl	1ec8 <_fflush_r>
    21f4:	89a2      	ldrh	r2, [r4, #12]
    21f6:	f412 5280 	ands.w	r2, r2, #4096	; 0x1000
    21fa:	d00c      	beq.n	2216 <_fseeko_r+0xe6>
    21fc:	6d60      	ldr	r0, [r4, #84]	; 0x54
    21fe:	89a3      	ldrh	r3, [r4, #12]
    2200:	075a      	lsls	r2, r3, #29
    2202:	d513      	bpl.n	222c <_fseeko_r+0xfc>
    2204:	6863      	ldr	r3, [r4, #4]
    2206:	1ac0      	subs	r0, r0, r3
    2208:	6b63      	ldr	r3, [r4, #52]	; 0x34
    220a:	b10b      	cbz	r3, 2210 <_fseeko_r+0xe0>
    220c:	6c23      	ldr	r3, [r4, #64]	; 0x40
    220e:	1ac0      	subs	r0, r0, r3
    2210:	4481      	add	r9, r0
    2212:	2600      	movs	r6, #0
    2214:	e7bd      	b.n	2192 <_fseeko_r+0x62>
    2216:	6a21      	ldr	r1, [r4, #32]
    2218:	4633      	mov	r3, r6
    221a:	4628      	mov	r0, r5
    221c:	47c0      	blx	r8
    221e:	1c41      	adds	r1, r0, #1
    2220:	d1ed      	bne.n	21fe <_fseeko_r+0xce>
    2222:	f04f 37ff 	mov.w	r7, #4294967295	; 0xffffffff
    2226:	4638      	mov	r0, r7
    2228:	e8bd 83f8 	ldmia.w	sp!, {r3, r4, r5, r6, r7, r8, r9, pc}
    222c:	071b      	lsls	r3, r3, #28
    222e:	d5ef      	bpl.n	2210 <_fseeko_r+0xe0>
    2230:	6823      	ldr	r3, [r4, #0]
    2232:	2b00      	cmp	r3, #0
    2234:	d0ec      	beq.n	2210 <_fseeko_r+0xe0>
    2236:	6922      	ldr	r2, [r4, #16]
    2238:	1a9b      	subs	r3, r3, r2
    223a:	4418      	add	r0, r3
    223c:	e7e8      	b.n	2210 <_fseeko_r+0xe0>
    223e:	2316      	movs	r3, #22
    2240:	e795      	b.n	216e <_fseeko_r+0x3e>
    2242:	bf00      	nop
    2244:	00005f50 	.word	0x00005f50
    2248:	00005f70 	.word	0x00005f70
    224c:	00005f30 	.word	0x00005f30

00002250 <_fwalk_reent>:
    2250:	e92d 43f8 	stmdb	sp!, {r3, r4, r5, r6, r7, r8, r9, lr}
    2254:	4680      	mov	r8, r0
    2256:	4689      	mov	r9, r1
    2258:	2600      	movs	r6, #0
    225a:	f100 0448 	add.w	r4, r0, #72	; 0x48
    225e:	b914      	cbnz	r4, 2266 <_fwalk_reent+0x16>
    2260:	4630      	mov	r0, r6
    2262:	e8bd 83f8 	ldmia.w	sp!, {r3, r4, r5, r6, r7, r8, r9, pc}
    2266:	68a5      	ldr	r5, [r4, #8]
    2268:	6867      	ldr	r7, [r4, #4]
    226a:	3f01      	subs	r7, #1
    226c:	d501      	bpl.n	2272 <_fwalk_reent+0x22>
    226e:	6824      	ldr	r4, [r4, #0]
    2270:	e7f5      	b.n	225e <_fwalk_reent+0xe>
    2272:	89ab      	ldrh	r3, [r5, #12]
    2274:	2b01      	cmp	r3, #1
    2276:	d907      	bls.n	2288 <_fwalk_reent+0x38>
    2278:	f9b5 300e 	ldrsh.w	r3, [r5, #14]
    227c:	3301      	adds	r3, #1
    227e:	d003      	beq.n	2288 <_fwalk_reent+0x38>
    2280:	4629      	mov	r1, r5
    2282:	4640      	mov	r0, r8
    2284:	47c8      	blx	r9
    2286:	4306      	orrs	r6, r0
    2288:	3568      	adds	r5, #104	; 0x68
    228a:	e7ee      	b.n	226a <_fwalk_reent+0x1a>

0000228c <__libc_init_array>:
    228c:	b570      	push	{r4, r5, r6, lr}
    228e:	2500      	movs	r5, #0
    2290:	4e0c      	ldr	r6, [pc, #48]	; (22c4 <__libc_init_array+0x38>)
    2292:	4c0d      	ldr	r4, [pc, #52]	; (22c8 <__libc_init_array+0x3c>)
    2294:	1ba4      	subs	r4, r4, r6
    2296:	10a4      	asrs	r4, r4, #2
    2298:	42a5      	cmp	r5, r4
    229a:	d109      	bne.n	22b0 <__libc_init_array+0x24>
    229c:	f003 fc4e 	bl	5b3c <_init>
    22a0:	2500      	movs	r5, #0
    22a2:	4e0a      	ldr	r6, [pc, #40]	; (22cc <__libc_init_array+0x40>)
    22a4:	4c0a      	ldr	r4, [pc, #40]	; (22d0 <__libc_init_array+0x44>)
    22a6:	1ba4      	subs	r4, r4, r6
    22a8:	10a4      	asrs	r4, r4, #2
    22aa:	42a5      	cmp	r5, r4
    22ac:	d105      	bne.n	22ba <__libc_init_array+0x2e>
    22ae:	bd70      	pop	{r4, r5, r6, pc}
    22b0:	f856 3025 	ldr.w	r3, [r6, r5, lsl #2]
    22b4:	4798      	blx	r3
    22b6:	3501      	adds	r5, #1
    22b8:	e7ee      	b.n	2298 <__libc_init_array+0xc>
    22ba:	f856 3025 	ldr.w	r3, [r6, r5, lsl #2]
    22be:	4798      	blx	r3
    22c0:	3501      	adds	r5, #1
    22c2:	e7f2      	b.n	22aa <__libc_init_array+0x1e>
    22c4:	100002a8 	.word	0x100002a8
    22c8:	100002a8 	.word	0x100002a8
    22cc:	100002a8 	.word	0x100002a8
    22d0:	100002b0 	.word	0x100002b0

000022d4 <__swhatbuf_r>:
    22d4:	b570      	push	{r4, r5, r6, lr}
    22d6:	460e      	mov	r6, r1
    22d8:	f9b1 100e 	ldrsh.w	r1, [r1, #14]
    22dc:	b090      	sub	sp, #64	; 0x40
    22de:	2900      	cmp	r1, #0
    22e0:	4614      	mov	r4, r2
    22e2:	461d      	mov	r5, r3
    22e4:	da07      	bge.n	22f6 <__swhatbuf_r+0x22>
    22e6:	2300      	movs	r3, #0
    22e8:	602b      	str	r3, [r5, #0]
    22ea:	89b3      	ldrh	r3, [r6, #12]
    22ec:	061a      	lsls	r2, r3, #24
    22ee:	d410      	bmi.n	2312 <__swhatbuf_r+0x3e>
    22f0:	f44f 6380 	mov.w	r3, #1024	; 0x400
    22f4:	e00e      	b.n	2314 <__swhatbuf_r+0x40>
    22f6:	aa01      	add	r2, sp, #4
    22f8:	f002 faf8 	bl	48ec <_fstat_r>
    22fc:	2800      	cmp	r0, #0
    22fe:	dbf2      	blt.n	22e6 <__swhatbuf_r+0x12>
    2300:	9a02      	ldr	r2, [sp, #8]
    2302:	f402 4270 	and.w	r2, r2, #61440	; 0xf000
    2306:	f5a2 5300 	sub.w	r3, r2, #8192	; 0x2000
    230a:	425a      	negs	r2, r3
    230c:	415a      	adcs	r2, r3
    230e:	602a      	str	r2, [r5, #0]
    2310:	e7ee      	b.n	22f0 <__swhatbuf_r+0x1c>
    2312:	2340      	movs	r3, #64	; 0x40
    2314:	2000      	movs	r0, #0
    2316:	6023      	str	r3, [r4, #0]
    2318:	b010      	add	sp, #64	; 0x40
    231a:	bd70      	pop	{r4, r5, r6, pc}

0000231c <__smakebuf_r>:
    231c:	898b      	ldrh	r3, [r1, #12]
    231e:	b573      	push	{r0, r1, r4, r5, r6, lr}
    2320:	079d      	lsls	r5, r3, #30
    2322:	4606      	mov	r6, r0
    2324:	460c      	mov	r4, r1
    2326:	d507      	bpl.n	2338 <__smakebuf_r+0x1c>
    2328:	f104 0347 	add.w	r3, r4, #71	; 0x47
    232c:	6023      	str	r3, [r4, #0]
    232e:	6123      	str	r3, [r4, #16]
    2330:	2301      	movs	r3, #1
    2332:	6163      	str	r3, [r4, #20]
    2334:	b002      	add	sp, #8
    2336:	bd70      	pop	{r4, r5, r6, pc}
    2338:	ab01      	add	r3, sp, #4
    233a:	466a      	mov	r2, sp
    233c:	f7ff ffca 	bl	22d4 <__swhatbuf_r>
    2340:	9900      	ldr	r1, [sp, #0]
    2342:	4605      	mov	r5, r0
    2344:	4630      	mov	r0, r6
    2346:	f7ff f893 	bl	1470 <__wrap__malloc_r>
    234a:	b948      	cbnz	r0, 2360 <__smakebuf_r+0x44>
    234c:	f9b4 300c 	ldrsh.w	r3, [r4, #12]
    2350:	059a      	lsls	r2, r3, #22
    2352:	d4ef      	bmi.n	2334 <__smakebuf_r+0x18>
    2354:	f023 0303 	bic.w	r3, r3, #3
    2358:	f043 0302 	orr.w	r3, r3, #2
    235c:	81a3      	strh	r3, [r4, #12]
    235e:	e7e3      	b.n	2328 <__smakebuf_r+0xc>
    2360:	4b0d      	ldr	r3, [pc, #52]	; (2398 <__smakebuf_r+0x7c>)
    2362:	62b3      	str	r3, [r6, #40]	; 0x28
    2364:	89a3      	ldrh	r3, [r4, #12]
    2366:	6020      	str	r0, [r4, #0]
    2368:	f043 0380 	orr.w	r3, r3, #128	; 0x80
    236c:	81a3      	strh	r3, [r4, #12]
    236e:	9b00      	ldr	r3, [sp, #0]
    2370:	6120      	str	r0, [r4, #16]
    2372:	6163      	str	r3, [r4, #20]
    2374:	9b01      	ldr	r3, [sp, #4]
    2376:	b15b      	cbz	r3, 2390 <__smakebuf_r+0x74>
    2378:	f9b4 100e 	ldrsh.w	r1, [r4, #14]
    237c:	4630      	mov	r0, r6
    237e:	f002 fac7 	bl	4910 <_isatty_r>
    2382:	b128      	cbz	r0, 2390 <__smakebuf_r+0x74>
    2384:	89a3      	ldrh	r3, [r4, #12]
    2386:	f023 0303 	bic.w	r3, r3, #3
    238a:	f043 0301 	orr.w	r3, r3, #1
    238e:	81a3      	strh	r3, [r4, #12]
    2390:	89a3      	ldrh	r3, [r4, #12]
    2392:	431d      	orrs	r5, r3
    2394:	81a5      	strh	r5, [r4, #12]
    2396:	e7cd      	b.n	2334 <__smakebuf_r+0x18>
    2398:	00001f41 	.word	0x00001f41

0000239c <malloc>:
    239c:	4b02      	ldr	r3, [pc, #8]	; (23a8 <malloc+0xc>)
    239e:	4601      	mov	r1, r0
    23a0:	6818      	ldr	r0, [r3, #0]
    23a2:	f7ff b865 	b.w	1470 <__wrap__malloc_r>
    23a6:	bf00      	nop
    23a8:	100000d8 	.word	0x100000d8

000023ac <free>:
    23ac:	4b02      	ldr	r3, [pc, #8]	; (23b8 <free+0xc>)
    23ae:	4601      	mov	r1, r0
    23b0:	6818      	ldr	r0, [r3, #0]
    23b2:	f7ff b861 	b.w	1478 <__wrap__free_r>
    23b6:	bf00      	nop
    23b8:	100000d8 	.word	0x100000d8

000023bc <memchr>:
    23bc:	b510      	push	{r4, lr}
    23be:	b2c9      	uxtb	r1, r1
    23c0:	4402      	add	r2, r0
    23c2:	4290      	cmp	r0, r2
    23c4:	4603      	mov	r3, r0
    23c6:	d101      	bne.n	23cc <memchr+0x10>
    23c8:	2000      	movs	r0, #0
    23ca:	bd10      	pop	{r4, pc}
    23cc:	781c      	ldrb	r4, [r3, #0]
    23ce:	3001      	adds	r0, #1
    23d0:	428c      	cmp	r4, r1
    23d2:	d1f6      	bne.n	23c2 <memchr+0x6>
    23d4:	4618      	mov	r0, r3
    23d6:	bd10      	pop	{r4, pc}

000023d8 <memcpy>:
    23d8:	b510      	push	{r4, lr}
    23da:	1e43      	subs	r3, r0, #1
    23dc:	440a      	add	r2, r1
    23de:	4291      	cmp	r1, r2
    23e0:	d100      	bne.n	23e4 <memcpy+0xc>
    23e2:	bd10      	pop	{r4, pc}
    23e4:	f811 4b01 	ldrb.w	r4, [r1], #1
    23e8:	f803 4f01 	strb.w	r4, [r3, #1]!
    23ec:	e7f7      	b.n	23de <memcpy+0x6>

000023ee <memset>:
    23ee:	4603      	mov	r3, r0
    23f0:	4402      	add	r2, r0
    23f2:	4293      	cmp	r3, r2
    23f4:	d100      	bne.n	23f8 <memset+0xa>
    23f6:	4770      	bx	lr
    23f8:	f803 1b01 	strb.w	r1, [r3], #1
    23fc:	e7f9      	b.n	23f2 <memset+0x4>

000023fe <_calloc_r>:
    23fe:	b538      	push	{r3, r4, r5, lr}
    2400:	fb02 f401 	mul.w	r4, r2, r1
    2404:	4621      	mov	r1, r4
    2406:	f7ff f833 	bl	1470 <__wrap__malloc_r>
    240a:	4605      	mov	r5, r0
    240c:	b118      	cbz	r0, 2416 <_calloc_r+0x18>
    240e:	4622      	mov	r2, r4
    2410:	2100      	movs	r1, #0
    2412:	f7ff ffec 	bl	23ee <memset>
    2416:	4628      	mov	r0, r5
    2418:	bd38      	pop	{r3, r4, r5, pc}
	...

0000241c <_free_r>:
    241c:	b538      	push	{r3, r4, r5, lr}
    241e:	4605      	mov	r5, r0
    2420:	2900      	cmp	r1, #0
    2422:	d043      	beq.n	24ac <_free_r+0x90>
    2424:	f851 3c04 	ldr.w	r3, [r1, #-4]
    2428:	1f0c      	subs	r4, r1, #4
    242a:	2b00      	cmp	r3, #0
    242c:	bfb8      	it	lt
    242e:	18e4      	addlt	r4, r4, r3
    2430:	f7ff f970 	bl	1714 <__malloc_lock>
    2434:	4a1e      	ldr	r2, [pc, #120]	; (24b0 <_free_r+0x94>)
    2436:	6813      	ldr	r3, [r2, #0]
    2438:	4610      	mov	r0, r2
    243a:	b933      	cbnz	r3, 244a <_free_r+0x2e>
    243c:	6063      	str	r3, [r4, #4]
    243e:	6014      	str	r4, [r2, #0]
    2440:	4628      	mov	r0, r5
    2442:	e8bd 4038 	ldmia.w	sp!, {r3, r4, r5, lr}
    2446:	f7ff b969 	b.w	171c <__malloc_unlock>
    244a:	42a3      	cmp	r3, r4
    244c:	d90b      	bls.n	2466 <_free_r+0x4a>
    244e:	6821      	ldr	r1, [r4, #0]
    2450:	1862      	adds	r2, r4, r1
    2452:	4293      	cmp	r3, r2
    2454:	bf01      	itttt	eq
    2456:	681a      	ldreq	r2, [r3, #0]
    2458:	685b      	ldreq	r3, [r3, #4]
    245a:	1852      	addeq	r2, r2, r1
    245c:	6022      	streq	r2, [r4, #0]
    245e:	6063      	str	r3, [r4, #4]
    2460:	6004      	str	r4, [r0, #0]
    2462:	e7ed      	b.n	2440 <_free_r+0x24>
    2464:	4613      	mov	r3, r2
    2466:	685a      	ldr	r2, [r3, #4]
    2468:	b10a      	cbz	r2, 246e <_free_r+0x52>
    246a:	42a2      	cmp	r2, r4
    246c:	d9fa      	bls.n	2464 <_free_r+0x48>
    246e:	6819      	ldr	r1, [r3, #0]
    2470:	1858      	adds	r0, r3, r1
    2472:	42a0      	cmp	r0, r4
    2474:	d10b      	bne.n	248e <_free_r+0x72>
    2476:	6820      	ldr	r0, [r4, #0]
    2478:	4401      	add	r1, r0
    247a:	1858      	adds	r0, r3, r1
    247c:	4282      	cmp	r2, r0
    247e:	6019      	str	r1, [r3, #0]
    2480:	d1de      	bne.n	2440 <_free_r+0x24>
    2482:	6810      	ldr	r0, [r2, #0]
    2484:	6852      	ldr	r2, [r2, #4]
    2486:	4401      	add	r1, r0
    2488:	6019      	str	r1, [r3, #0]
    248a:	605a      	str	r2, [r3, #4]
    248c:	e7d8      	b.n	2440 <_free_r+0x24>
    248e:	d902      	bls.n	2496 <_free_r+0x7a>
    2490:	230c      	movs	r3, #12
    2492:	602b      	str	r3, [r5, #0]
    2494:	e7d4      	b.n	2440 <_free_r+0x24>
    2496:	6820      	ldr	r0, [r4, #0]
    2498:	1821      	adds	r1, r4, r0
    249a:	428a      	cmp	r2, r1
    249c:	bf01      	itttt	eq
    249e:	6811      	ldreq	r1, [r2, #0]
    24a0:	6852      	ldreq	r2, [r2, #4]
    24a2:	1809      	addeq	r1, r1, r0
    24a4:	6021      	streq	r1, [r4, #0]
    24a6:	6062      	str	r2, [r4, #4]
    24a8:	605c      	str	r4, [r3, #4]
    24aa:	e7c9      	b.n	2440 <_free_r+0x24>
    24ac:	bd38      	pop	{r3, r4, r5, pc}
    24ae:	bf00      	nop
    24b0:	10000558 	.word	0x10000558

000024b4 <_malloc_r>:
    24b4:	b570      	push	{r4, r5, r6, lr}
    24b6:	1ccd      	adds	r5, r1, #3
    24b8:	f025 0503 	bic.w	r5, r5, #3
    24bc:	3508      	adds	r5, #8
    24be:	2d0c      	cmp	r5, #12
    24c0:	bf38      	it	cc
    24c2:	250c      	movcc	r5, #12
    24c4:	2d00      	cmp	r5, #0
    24c6:	4606      	mov	r6, r0
    24c8:	db01      	blt.n	24ce <_malloc_r+0x1a>
    24ca:	42a9      	cmp	r1, r5
    24cc:	d903      	bls.n	24d6 <_malloc_r+0x22>
    24ce:	230c      	movs	r3, #12
    24d0:	6033      	str	r3, [r6, #0]
    24d2:	2000      	movs	r0, #0
    24d4:	bd70      	pop	{r4, r5, r6, pc}
    24d6:	f7ff f91d 	bl	1714 <__malloc_lock>
    24da:	4a23      	ldr	r2, [pc, #140]	; (2568 <_malloc_r+0xb4>)
    24dc:	6814      	ldr	r4, [r2, #0]
    24de:	4621      	mov	r1, r4
    24e0:	b991      	cbnz	r1, 2508 <_malloc_r+0x54>
    24e2:	4c22      	ldr	r4, [pc, #136]	; (256c <_malloc_r+0xb8>)
    24e4:	6823      	ldr	r3, [r4, #0]
    24e6:	b91b      	cbnz	r3, 24f0 <_malloc_r+0x3c>
    24e8:	4630      	mov	r0, r6
    24ea:	f000 ff7d 	bl	33e8 <_sbrk_r>
    24ee:	6020      	str	r0, [r4, #0]
    24f0:	4629      	mov	r1, r5
    24f2:	4630      	mov	r0, r6
    24f4:	f000 ff78 	bl	33e8 <_sbrk_r>
    24f8:	1c43      	adds	r3, r0, #1
    24fa:	d126      	bne.n	254a <_malloc_r+0x96>
    24fc:	230c      	movs	r3, #12
    24fe:	4630      	mov	r0, r6
    2500:	6033      	str	r3, [r6, #0]
    2502:	f7ff f90b 	bl	171c <__malloc_unlock>
    2506:	e7e4      	b.n	24d2 <_malloc_r+0x1e>
    2508:	680b      	ldr	r3, [r1, #0]
    250a:	1b5b      	subs	r3, r3, r5
    250c:	d41a      	bmi.n	2544 <_malloc_r+0x90>
    250e:	2b0b      	cmp	r3, #11
    2510:	d90f      	bls.n	2532 <_malloc_r+0x7e>
    2512:	600b      	str	r3, [r1, #0]
    2514:	18cc      	adds	r4, r1, r3
    2516:	50cd      	str	r5, [r1, r3]
    2518:	4630      	mov	r0, r6
    251a:	f7ff f8ff 	bl	171c <__malloc_unlock>
    251e:	f104 000b 	add.w	r0, r4, #11
    2522:	1d23      	adds	r3, r4, #4
    2524:	f020 0007 	bic.w	r0, r0, #7
    2528:	1ac3      	subs	r3, r0, r3
    252a:	d01b      	beq.n	2564 <_malloc_r+0xb0>
    252c:	425a      	negs	r2, r3
    252e:	50e2      	str	r2, [r4, r3]
    2530:	bd70      	pop	{r4, r5, r6, pc}
    2532:	428c      	cmp	r4, r1
    2534:	bf0b      	itete	eq
    2536:	6863      	ldreq	r3, [r4, #4]
    2538:	684b      	ldrne	r3, [r1, #4]
    253a:	6013      	streq	r3, [r2, #0]
    253c:	6063      	strne	r3, [r4, #4]
    253e:	bf18      	it	ne
    2540:	460c      	movne	r4, r1
    2542:	e7e9      	b.n	2518 <_malloc_r+0x64>
    2544:	460c      	mov	r4, r1
    2546:	6849      	ldr	r1, [r1, #4]
    2548:	e7ca      	b.n	24e0 <_malloc_r+0x2c>
    254a:	1cc4      	adds	r4, r0, #3
    254c:	f024 0403 	bic.w	r4, r4, #3
    2550:	42a0      	cmp	r0, r4
    2552:	d005      	beq.n	2560 <_malloc_r+0xac>
    2554:	1a21      	subs	r1, r4, r0
    2556:	4630      	mov	r0, r6
    2558:	f000 ff46 	bl	33e8 <_sbrk_r>
    255c:	3001      	adds	r0, #1
    255e:	d0cd      	beq.n	24fc <_malloc_r+0x48>
    2560:	6025      	str	r5, [r4, #0]
    2562:	e7d9      	b.n	2518 <_malloc_r+0x64>
    2564:	bd70      	pop	{r4, r5, r6, pc}
    2566:	bf00      	nop
    2568:	10000558 	.word	0x10000558
    256c:	1000055c 	.word	0x1000055c

00002570 <_realloc_r>:
    2570:	b5f8      	push	{r3, r4, r5, r6, r7, lr}
    2572:	4607      	mov	r7, r0
    2574:	4614      	mov	r4, r2
    2576:	460e      	mov	r6, r1
    2578:	b921      	cbnz	r1, 2584 <_realloc_r+0x14>
    257a:	4611      	mov	r1, r2
    257c:	e8bd 40f8 	ldmia.w	sp!, {r3, r4, r5, r6, r7, lr}
    2580:	f7fe bf76 	b.w	1470 <__wrap__malloc_r>
    2584:	b922      	cbnz	r2, 2590 <_realloc_r+0x20>
    2586:	f7fe ff77 	bl	1478 <__wrap__free_r>
    258a:	4625      	mov	r5, r4
    258c:	4628      	mov	r0, r5
    258e:	bdf8      	pop	{r3, r4, r5, r6, r7, pc}
    2590:	f002 fcfd 	bl	4f8e <_malloc_usable_size_r>
    2594:	4284      	cmp	r4, r0
    2596:	d90f      	bls.n	25b8 <_realloc_r+0x48>
    2598:	4621      	mov	r1, r4
    259a:	4638      	mov	r0, r7
    259c:	f7fe ff68 	bl	1470 <__wrap__malloc_r>
    25a0:	4605      	mov	r5, r0
    25a2:	2800      	cmp	r0, #0
    25a4:	d0f2      	beq.n	258c <_realloc_r+0x1c>
    25a6:	4631      	mov	r1, r6
    25a8:	4622      	mov	r2, r4
    25aa:	f7ff ff15 	bl	23d8 <memcpy>
    25ae:	4631      	mov	r1, r6
    25b0:	4638      	mov	r0, r7
    25b2:	f7fe ff61 	bl	1478 <__wrap__free_r>
    25b6:	e7e9      	b.n	258c <_realloc_r+0x1c>
    25b8:	4635      	mov	r5, r6
    25ba:	e7e7      	b.n	258c <_realloc_r+0x1c>

000025bc <__sfputc_r>:
    25bc:	6893      	ldr	r3, [r2, #8]
    25be:	b410      	push	{r4}
    25c0:	3b01      	subs	r3, #1
    25c2:	2b00      	cmp	r3, #0
    25c4:	6093      	str	r3, [r2, #8]
    25c6:	da08      	bge.n	25da <__sfputc_r+0x1e>
    25c8:	6994      	ldr	r4, [r2, #24]
    25ca:	42a3      	cmp	r3, r4
    25cc:	db02      	blt.n	25d4 <__sfputc_r+0x18>
    25ce:	b2cb      	uxtb	r3, r1
    25d0:	2b0a      	cmp	r3, #10
    25d2:	d102      	bne.n	25da <__sfputc_r+0x1e>
    25d4:	bc10      	pop	{r4}
    25d6:	f001 ba11 	b.w	39fc <__swbuf_r>
    25da:	6813      	ldr	r3, [r2, #0]
    25dc:	1c58      	adds	r0, r3, #1
    25de:	6010      	str	r0, [r2, #0]
    25e0:	7019      	strb	r1, [r3, #0]
    25e2:	b2c8      	uxtb	r0, r1
    25e4:	bc10      	pop	{r4}
    25e6:	4770      	bx	lr

000025e8 <__sfputs_r>:
    25e8:	b5f8      	push	{r3, r4, r5, r6, r7, lr}
    25ea:	4606      	mov	r6, r0
    25ec:	460f      	mov	r7, r1
    25ee:	4614      	mov	r4, r2
    25f0:	18d5      	adds	r5, r2, r3
    25f2:	42ac      	cmp	r4, r5
    25f4:	d101      	bne.n	25fa <__sfputs_r+0x12>
    25f6:	2000      	movs	r0, #0
    25f8:	e007      	b.n	260a <__sfputs_r+0x22>
    25fa:	463a      	mov	r2, r7
    25fc:	f814 1b01 	ldrb.w	r1, [r4], #1
    2600:	4630      	mov	r0, r6
    2602:	f7ff ffdb 	bl	25bc <__sfputc_r>
    2606:	1c43      	adds	r3, r0, #1
    2608:	d1f3      	bne.n	25f2 <__sfputs_r+0xa>
    260a:	bdf8      	pop	{r3, r4, r5, r6, r7, pc}

0000260c <_vfiprintf_r>:
    260c:	e92d 4ff0 	stmdb	sp!, {r4, r5, r6, r7, r8, r9, r10, r11, lr}
    2610:	b09d      	sub	sp, #116	; 0x74
    2612:	460c      	mov	r4, r1
    2614:	4617      	mov	r7, r2
    2616:	9303      	str	r3, [sp, #12]
    2618:	4606      	mov	r6, r0
    261a:	b118      	cbz	r0, 2624 <_vfiprintf_r+0x18>
    261c:	6983      	ldr	r3, [r0, #24]
    261e:	b90b      	cbnz	r3, 2624 <_vfiprintf_r+0x18>
    2620:	f7ff fcce 	bl	1fc0 <__sinit>
    2624:	4b7c      	ldr	r3, [pc, #496]	; (2818 <_vfiprintf_r+0x20c>)
    2626:	429c      	cmp	r4, r3
    2628:	d157      	bne.n	26da <_vfiprintf_r+0xce>
    262a:	6874      	ldr	r4, [r6, #4]
    262c:	89a3      	ldrh	r3, [r4, #12]
    262e:	0718      	lsls	r0, r3, #28
    2630:	d55d      	bpl.n	26ee <_vfiprintf_r+0xe2>
    2632:	6923      	ldr	r3, [r4, #16]
    2634:	2b00      	cmp	r3, #0
    2636:	d05a      	beq.n	26ee <_vfiprintf_r+0xe2>
    2638:	2300      	movs	r3, #0
    263a:	9309      	str	r3, [sp, #36]	; 0x24
    263c:	2320      	movs	r3, #32
    263e:	f88d 3029 	strb.w	r3, [sp, #41]	; 0x29
    2642:	2330      	movs	r3, #48	; 0x30
    2644:	f04f 0b01 	mov.w	r11, #1
    2648:	f88d 302a 	strb.w	r3, [sp, #42]	; 0x2a
    264c:	46b8      	mov	r8, r7
    264e:	4645      	mov	r5, r8
    2650:	f815 3b01 	ldrb.w	r3, [r5], #1
    2654:	2b00      	cmp	r3, #0
    2656:	d155      	bne.n	2704 <_vfiprintf_r+0xf8>
    2658:	ebb8 0a07 	subs.w	r10, r8, r7
    265c:	d00b      	beq.n	2676 <_vfiprintf_r+0x6a>
    265e:	4653      	mov	r3, r10
    2660:	463a      	mov	r2, r7
    2662:	4621      	mov	r1, r4
    2664:	4630      	mov	r0, r6
    2666:	f7ff ffbf 	bl	25e8 <__sfputs_r>
    266a:	3001      	adds	r0, #1
    266c:	f000 80c4 	beq.w	27f8 <_vfiprintf_r+0x1ec>
    2670:	9b09      	ldr	r3, [sp, #36]	; 0x24
    2672:	4453      	add	r3, r10
    2674:	9309      	str	r3, [sp, #36]	; 0x24
    2676:	f898 3000 	ldrb.w	r3, [r8]
    267a:	2b00      	cmp	r3, #0
    267c:	f000 80bc 	beq.w	27f8 <_vfiprintf_r+0x1ec>
    2680:	2300      	movs	r3, #0
    2682:	f04f 32ff 	mov.w	r2, #4294967295	; 0xffffffff
    2686:	9304      	str	r3, [sp, #16]
    2688:	9307      	str	r3, [sp, #28]
    268a:	9205      	str	r2, [sp, #20]
    268c:	9306      	str	r3, [sp, #24]
    268e:	f88d 3053 	strb.w	r3, [sp, #83]	; 0x53
    2692:	931a      	str	r3, [sp, #104]	; 0x68
    2694:	2205      	movs	r2, #5
    2696:	7829      	ldrb	r1, [r5, #0]
    2698:	4860      	ldr	r0, [pc, #384]	; (281c <_vfiprintf_r+0x210>)
    269a:	f7ff fe8f 	bl	23bc <memchr>
    269e:	f105 0801 	add.w	r8, r5, #1
    26a2:	9b04      	ldr	r3, [sp, #16]
    26a4:	2800      	cmp	r0, #0
    26a6:	d131      	bne.n	270c <_vfiprintf_r+0x100>
    26a8:	06d9      	lsls	r1, r3, #27
    26aa:	bf44      	itt	mi
    26ac:	2220      	movmi	r2, #32
    26ae:	f88d 2053 	strbmi.w	r2, [sp, #83]	; 0x53
    26b2:	071a      	lsls	r2, r3, #28
    26b4:	bf44      	itt	mi
    26b6:	222b      	movmi	r2, #43	; 0x2b
    26b8:	f88d 2053 	strbmi.w	r2, [sp, #83]	; 0x53
    26bc:	782a      	ldrb	r2, [r5, #0]
    26be:	2a2a      	cmp	r2, #42	; 0x2a
    26c0:	d02c      	beq.n	271c <_vfiprintf_r+0x110>
    26c2:	2100      	movs	r1, #0
    26c4:	200a      	movs	r0, #10
    26c6:	9a07      	ldr	r2, [sp, #28]
    26c8:	46a8      	mov	r8, r5
    26ca:	f898 3000 	ldrb.w	r3, [r8]
    26ce:	3501      	adds	r5, #1
    26d0:	3b30      	subs	r3, #48	; 0x30
    26d2:	2b09      	cmp	r3, #9
    26d4:	d96d      	bls.n	27b2 <_vfiprintf_r+0x1a6>
    26d6:	b371      	cbz	r1, 2736 <_vfiprintf_r+0x12a>
    26d8:	e026      	b.n	2728 <_vfiprintf_r+0x11c>
    26da:	4b51      	ldr	r3, [pc, #324]	; (2820 <_vfiprintf_r+0x214>)
    26dc:	429c      	cmp	r4, r3
    26de:	d101      	bne.n	26e4 <_vfiprintf_r+0xd8>
    26e0:	68b4      	ldr	r4, [r6, #8]
    26e2:	e7a3      	b.n	262c <_vfiprintf_r+0x20>
    26e4:	4b4f      	ldr	r3, [pc, #316]	; (2824 <_vfiprintf_r+0x218>)
    26e6:	429c      	cmp	r4, r3
    26e8:	bf08      	it	eq
    26ea:	68f4      	ldreq	r4, [r6, #12]
    26ec:	e79e      	b.n	262c <_vfiprintf_r+0x20>
    26ee:	4621      	mov	r1, r4
    26f0:	4630      	mov	r0, r6
    26f2:	f001 f9e7 	bl	3ac4 <__swsetup_r>
    26f6:	2800      	cmp	r0, #0
    26f8:	d09e      	beq.n	2638 <_vfiprintf_r+0x2c>
    26fa:	f04f 30ff 	mov.w	r0, #4294967295	; 0xffffffff
    26fe:	b01d      	add	sp, #116	; 0x74
    2700:	e8bd 8ff0 	ldmia.w	sp!, {r4, r5, r6, r7, r8, r9, r10, r11, pc}
    2704:	2b25      	cmp	r3, #37	; 0x25
    2706:	d0a7      	beq.n	2658 <_vfiprintf_r+0x4c>
    2708:	46a8      	mov	r8, r5
    270a:	e7a0      	b.n	264e <_vfiprintf_r+0x42>
    270c:	4a43      	ldr	r2, [pc, #268]	; (281c <_vfiprintf_r+0x210>)
    270e:	4645      	mov	r5, r8
    2710:	1a80      	subs	r0, r0, r2
    2712:	fa0b f000 	lsl.w	r0, r11, r0
    2716:	4318      	orrs	r0, r3
    2718:	9004      	str	r0, [sp, #16]
    271a:	e7bb      	b.n	2694 <_vfiprintf_r+0x88>
    271c:	9a03      	ldr	r2, [sp, #12]
    271e:	1d11      	adds	r1, r2, #4
    2720:	6812      	ldr	r2, [r2, #0]
    2722:	9103      	str	r1, [sp, #12]
    2724:	2a00      	cmp	r2, #0
    2726:	db01      	blt.n	272c <_vfiprintf_r+0x120>
    2728:	9207      	str	r2, [sp, #28]
    272a:	e004      	b.n	2736 <_vfiprintf_r+0x12a>
    272c:	4252      	negs	r2, r2
    272e:	f043 0302 	orr.w	r3, r3, #2
    2732:	9207      	str	r2, [sp, #28]
    2734:	9304      	str	r3, [sp, #16]
    2736:	f898 3000 	ldrb.w	r3, [r8]
    273a:	2b2e      	cmp	r3, #46	; 0x2e
    273c:	d110      	bne.n	2760 <_vfiprintf_r+0x154>
    273e:	f898 3001 	ldrb.w	r3, [r8, #1]
    2742:	f108 0101 	add.w	r1, r8, #1
    2746:	2b2a      	cmp	r3, #42	; 0x2a
    2748:	d137      	bne.n	27ba <_vfiprintf_r+0x1ae>
    274a:	9b03      	ldr	r3, [sp, #12]
    274c:	f108 0802 	add.w	r8, r8, #2
    2750:	1d1a      	adds	r2, r3, #4
    2752:	681b      	ldr	r3, [r3, #0]
    2754:	9203      	str	r2, [sp, #12]
    2756:	2b00      	cmp	r3, #0
    2758:	bfb8      	it	lt
    275a:	f04f 33ff 	movlt.w	r3, #4294967295	; 0xffffffff
    275e:	9305      	str	r3, [sp, #20]
    2760:	4d31      	ldr	r5, [pc, #196]	; (2828 <_vfiprintf_r+0x21c>)
    2762:	2203      	movs	r2, #3
    2764:	f898 1000 	ldrb.w	r1, [r8]
    2768:	4628      	mov	r0, r5
    276a:	f7ff fe27 	bl	23bc <memchr>
    276e:	b140      	cbz	r0, 2782 <_vfiprintf_r+0x176>
    2770:	2340      	movs	r3, #64	; 0x40
    2772:	1b40      	subs	r0, r0, r5
    2774:	fa03 f000 	lsl.w	r0, r3, r0
    2778:	9b04      	ldr	r3, [sp, #16]
    277a:	f108 0801 	add.w	r8, r8, #1
    277e:	4303      	orrs	r3, r0
    2780:	9304      	str	r3, [sp, #16]
    2782:	f898 1000 	ldrb.w	r1, [r8]
    2786:	2206      	movs	r2, #6
    2788:	4828      	ldr	r0, [pc, #160]	; (282c <_vfiprintf_r+0x220>)
    278a:	f108 0701 	add.w	r7, r8, #1
    278e:	f88d 1028 	strb.w	r1, [sp, #40]	; 0x28
    2792:	f7ff fe13 	bl	23bc <memchr>
    2796:	2800      	cmp	r0, #0
    2798:	d034      	beq.n	2804 <_vfiprintf_r+0x1f8>
    279a:	4b25      	ldr	r3, [pc, #148]	; (2830 <_vfiprintf_r+0x224>)
    279c:	bb03      	cbnz	r3, 27e0 <_vfiprintf_r+0x1d4>
    279e:	9b03      	ldr	r3, [sp, #12]
    27a0:	3307      	adds	r3, #7
    27a2:	f023 0307 	bic.w	r3, r3, #7
    27a6:	3308      	adds	r3, #8
    27a8:	9303      	str	r3, [sp, #12]
    27aa:	9b09      	ldr	r3, [sp, #36]	; 0x24
    27ac:	444b      	add	r3, r9
    27ae:	9309      	str	r3, [sp, #36]	; 0x24
    27b0:	e74c      	b.n	264c <_vfiprintf_r+0x40>
    27b2:	fb00 3202 	mla	r2, r0, r2, r3
    27b6:	2101      	movs	r1, #1
    27b8:	e786      	b.n	26c8 <_vfiprintf_r+0xbc>
    27ba:	2300      	movs	r3, #0
    27bc:	250a      	movs	r5, #10
    27be:	4618      	mov	r0, r3
    27c0:	9305      	str	r3, [sp, #20]
    27c2:	4688      	mov	r8, r1
    27c4:	f898 2000 	ldrb.w	r2, [r8]
    27c8:	3101      	adds	r1, #1
    27ca:	3a30      	subs	r2, #48	; 0x30
    27cc:	2a09      	cmp	r2, #9
    27ce:	d903      	bls.n	27d8 <_vfiprintf_r+0x1cc>
    27d0:	2b00      	cmp	r3, #0
    27d2:	d0c5      	beq.n	2760 <_vfiprintf_r+0x154>
    27d4:	9005      	str	r0, [sp, #20]
    27d6:	e7c3      	b.n	2760 <_vfiprintf_r+0x154>
    27d8:	fb05 2000 	mla	r0, r5, r0, r2
    27dc:	2301      	movs	r3, #1
    27de:	e7f0      	b.n	27c2 <_vfiprintf_r+0x1b6>
    27e0:	ab03      	add	r3, sp, #12
    27e2:	9300      	str	r3, [sp, #0]
    27e4:	4622      	mov	r2, r4
    27e6:	4b13      	ldr	r3, [pc, #76]	; (2834 <_vfiprintf_r+0x228>)
    27e8:	a904      	add	r1, sp, #16
    27ea:	4630      	mov	r0, r6
    27ec:	f000 f8c0 	bl	2970 <_printf_float>
    27f0:	f1b0 3fff 	cmp.w	r0, #4294967295	; 0xffffffff
    27f4:	4681      	mov	r9, r0
    27f6:	d1d8      	bne.n	27aa <_vfiprintf_r+0x19e>
    27f8:	89a3      	ldrh	r3, [r4, #12]
    27fa:	065b      	lsls	r3, r3, #25
    27fc:	f53f af7d 	bmi.w	26fa <_vfiprintf_r+0xee>
    2800:	9809      	ldr	r0, [sp, #36]	; 0x24
    2802:	e77c      	b.n	26fe <_vfiprintf_r+0xf2>
    2804:	ab03      	add	r3, sp, #12
    2806:	9300      	str	r3, [sp, #0]
    2808:	4622      	mov	r2, r4
    280a:	4b0a      	ldr	r3, [pc, #40]	; (2834 <_vfiprintf_r+0x228>)
    280c:	a904      	add	r1, sp, #16
    280e:	4630      	mov	r0, r6
    2810:	f000 fb5e 	bl	2ed0 <_printf_i>
    2814:	e7ec      	b.n	27f0 <_vfiprintf_r+0x1e4>
    2816:	bf00      	nop
    2818:	00005f50 	.word	0x00005f50
    281c:	00005f94 	.word	0x00005f94
    2820:	00005f70 	.word	0x00005f70
    2824:	00005f30 	.word	0x00005f30
    2828:	00005f9a 	.word	0x00005f9a
    282c:	00005f9e 	.word	0x00005f9e
    2830:	00002971 	.word	0x00002971
    2834:	000025e9 	.word	0x000025e9

00002838 <vfiprintf>:
    2838:	4613      	mov	r3, r2
    283a:	460a      	mov	r2, r1
    283c:	4601      	mov	r1, r0
    283e:	4802      	ldr	r0, [pc, #8]	; (2848 <vfiprintf+0x10>)
    2840:	6800      	ldr	r0, [r0, #0]
    2842:	f7ff bee3 	b.w	260c <_vfiprintf_r>
    2846:	bf00      	nop
    2848:	100000d8 	.word	0x100000d8

0000284c <__cvt>:
    284c:	2b00      	cmp	r3, #0
    284e:	e92d 47f0 	stmdb	sp!, {r4, r5, r6, r7, r8, r9, r10, lr}
    2852:	461e      	mov	r6, r3
    2854:	bfbb      	ittet	lt
    2856:	f103 4300 	addlt.w	r3, r3, #2147483648	; 0x80000000
    285a:	461e      	movlt	r6, r3
    285c:	2300      	movge	r3, #0
    285e:	232d      	movlt	r3, #45	; 0x2d
    2860:	b088      	sub	sp, #32
    2862:	9f14      	ldr	r7, [sp, #80]	; 0x50
    2864:	9912      	ldr	r1, [sp, #72]	; 0x48
    2866:	f027 0720 	bic.w	r7, r7, #32
    286a:	2f46      	cmp	r7, #70	; 0x46
    286c:	4614      	mov	r4, r2
    286e:	9d10      	ldr	r5, [sp, #64]	; 0x40
    2870:	f8dd a04c 	ldr.w	r10, [sp, #76]	; 0x4c
    2874:	700b      	strb	r3, [r1, #0]
    2876:	d004      	beq.n	2882 <__cvt+0x36>
    2878:	2f45      	cmp	r7, #69	; 0x45
    287a:	d100      	bne.n	287e <__cvt+0x32>
    287c:	3501      	adds	r5, #1
    287e:	2302      	movs	r3, #2
    2880:	e000      	b.n	2884 <__cvt+0x38>
    2882:	2303      	movs	r3, #3
    2884:	aa07      	add	r2, sp, #28
    2886:	9204      	str	r2, [sp, #16]
    2888:	aa06      	add	r2, sp, #24
    288a:	9203      	str	r2, [sp, #12]
    288c:	e88d 0428 	stmia.w	sp, {r3, r5, r10}
    2890:	4622      	mov	r2, r4
    2892:	4633      	mov	r3, r6
    2894:	f001 fa20 	bl	3cd8 <_dtoa_r>
    2898:	2f47      	cmp	r7, #71	; 0x47
    289a:	4680      	mov	r8, r0
    289c:	d102      	bne.n	28a4 <__cvt+0x58>
    289e:	9b11      	ldr	r3, [sp, #68]	; 0x44
    28a0:	07db      	lsls	r3, r3, #31
    28a2:	d526      	bpl.n	28f2 <__cvt+0xa6>
    28a4:	2f46      	cmp	r7, #70	; 0x46
    28a6:	eb08 0905 	add.w	r9, r8, r5
    28aa:	d111      	bne.n	28d0 <__cvt+0x84>
    28ac:	f898 3000 	ldrb.w	r3, [r8]
    28b0:	2b30      	cmp	r3, #48	; 0x30
    28b2:	d10a      	bne.n	28ca <__cvt+0x7e>
    28b4:	2200      	movs	r2, #0
    28b6:	2300      	movs	r3, #0
    28b8:	4620      	mov	r0, r4
    28ba:	4631      	mov	r1, r6
    28bc:	f003 f8f6 	bl	5aac <__aeabi_dcmpeq>
    28c0:	b918      	cbnz	r0, 28ca <__cvt+0x7e>
    28c2:	f1c5 0501 	rsb	r5, r5, #1
    28c6:	f8ca 5000 	str.w	r5, [r10]
    28ca:	f8da 3000 	ldr.w	r3, [r10]
    28ce:	4499      	add	r9, r3
    28d0:	2200      	movs	r2, #0
    28d2:	2300      	movs	r3, #0
    28d4:	4620      	mov	r0, r4
    28d6:	4631      	mov	r1, r6
    28d8:	f003 f8e8 	bl	5aac <__aeabi_dcmpeq>
    28dc:	b938      	cbnz	r0, 28ee <__cvt+0xa2>
    28de:	2230      	movs	r2, #48	; 0x30
    28e0:	9b07      	ldr	r3, [sp, #28]
    28e2:	4599      	cmp	r9, r3
    28e4:	d905      	bls.n	28f2 <__cvt+0xa6>
    28e6:	1c59      	adds	r1, r3, #1
    28e8:	9107      	str	r1, [sp, #28]
    28ea:	701a      	strb	r2, [r3, #0]
    28ec:	e7f8      	b.n	28e0 <__cvt+0x94>
    28ee:	f8cd 901c 	str.w	r9, [sp, #28]
    28f2:	4640      	mov	r0, r8
    28f4:	9b07      	ldr	r3, [sp, #28]
    28f6:	9a15      	ldr	r2, [sp, #84]	; 0x54
    28f8:	eba3 0308 	sub.w	r3, r3, r8
    28fc:	6013      	str	r3, [r2, #0]
    28fe:	b008      	add	sp, #32
    2900:	e8bd 87f0 	ldmia.w	sp!, {r4, r5, r6, r7, r8, r9, r10, pc}

00002904 <__exponent>:
    2904:	4603      	mov	r3, r0
    2906:	b5f7      	push	{r0, r1, r2, r4, r5, r6, r7, lr}
    2908:	2900      	cmp	r1, #0
    290a:	f803 2b02 	strb.w	r2, [r3], #2
    290e:	bfb6      	itet	lt
    2910:	222d      	movlt	r2, #45	; 0x2d
    2912:	222b      	movge	r2, #43	; 0x2b
    2914:	4249      	neglt	r1, r1
    2916:	2909      	cmp	r1, #9
    2918:	7042      	strb	r2, [r0, #1]
    291a:	dd21      	ble.n	2960 <__exponent+0x5c>
    291c:	f10d 0207 	add.w	r2, sp, #7
    2920:	4617      	mov	r7, r2
    2922:	260a      	movs	r6, #10
    2924:	fb91 f5f6 	sdiv	r5, r1, r6
    2928:	fb06 1115 	mls	r1, r6, r5, r1
    292c:	2d09      	cmp	r5, #9
    292e:	f101 0130 	add.w	r1, r1, #48	; 0x30
    2932:	f802 1c01 	strb.w	r1, [r2, #-1]
    2936:	f102 34ff 	add.w	r4, r2, #4294967295	; 0xffffffff
    293a:	4629      	mov	r1, r5
    293c:	dc09      	bgt.n	2952 <__exponent+0x4e>
    293e:	3130      	adds	r1, #48	; 0x30
    2940:	3a02      	subs	r2, #2
    2942:	f804 1c01 	strb.w	r1, [r4, #-1]
    2946:	42ba      	cmp	r2, r7
    2948:	461c      	mov	r4, r3
    294a:	d304      	bcc.n	2956 <__exponent+0x52>
    294c:	1a20      	subs	r0, r4, r0
    294e:	b003      	add	sp, #12
    2950:	bdf0      	pop	{r4, r5, r6, r7, pc}
    2952:	4622      	mov	r2, r4
    2954:	e7e6      	b.n	2924 <__exponent+0x20>
    2956:	f812 1b01 	ldrb.w	r1, [r2], #1
    295a:	f803 1b01 	strb.w	r1, [r3], #1
    295e:	e7f2      	b.n	2946 <__exponent+0x42>
    2960:	2230      	movs	r2, #48	; 0x30
    2962:	461c      	mov	r4, r3
    2964:	4411      	add	r1, r2
    2966:	f804 2b02 	strb.w	r2, [r4], #2
    296a:	7059      	strb	r1, [r3, #1]
    296c:	e7ee      	b.n	294c <__exponent+0x48>
	...

00002970 <_printf_float>:
    2970:	e92d 4ff0 	stmdb	sp!, {r4, r5, r6, r7, r8, r9, r10, r11, lr}
    2974:	b091      	sub	sp, #68	; 0x44
    2976:	460c      	mov	r4, r1
    2978:	9f1a      	ldr	r7, [sp, #104]	; 0x68
    297a:	4693      	mov	r11, r2
    297c:	461e      	mov	r6, r3
    297e:	4605      	mov	r5, r0
    2980:	f001 ffe8 	bl	4954 <_localeconv_r>
    2984:	6803      	ldr	r3, [r0, #0]
    2986:	4618      	mov	r0, r3
    2988:	9309      	str	r3, [sp, #36]	; 0x24
    298a:	f000 fec0 	bl	370e <strlen>
    298e:	2300      	movs	r3, #0
    2990:	930e      	str	r3, [sp, #56]	; 0x38
    2992:	683b      	ldr	r3, [r7, #0]
    2994:	900a      	str	r0, [sp, #40]	; 0x28
    2996:	3307      	adds	r3, #7
    2998:	f023 0307 	bic.w	r3, r3, #7
    299c:	f103 0208 	add.w	r2, r3, #8
    29a0:	f894 8018 	ldrb.w	r8, [r4, #24]
    29a4:	f8d4 a000 	ldr.w	r10, [r4]
    29a8:	603a      	str	r2, [r7, #0]
    29aa:	e9d3 2300 	ldrd	r2, r3, [r3]
    29ae:	e9c4 2312 	strd	r2, r3, [r4, #72]	; 0x48
    29b2:	f8d4 904c 	ldr.w	r9, [r4, #76]	; 0x4c
    29b6:	6ca7      	ldr	r7, [r4, #72]	; 0x48
    29b8:	f029 4300 	bic.w	r3, r9, #2147483648	; 0x80000000
    29bc:	930b      	str	r3, [sp, #44]	; 0x2c
    29be:	f04f 32ff 	mov.w	r2, #4294967295	; 0xffffffff
    29c2:	4ba6      	ldr	r3, [pc, #664]	; (2c5c <_printf_float+0x2ec>)
    29c4:	4638      	mov	r0, r7
    29c6:	990b      	ldr	r1, [sp, #44]	; 0x2c
    29c8:	f003 f8a2 	bl	5b10 <__aeabi_dcmpun>
    29cc:	2800      	cmp	r0, #0
    29ce:	f040 81f7 	bne.w	2dc0 <_printf_float+0x450>
    29d2:	f04f 32ff 	mov.w	r2, #4294967295	; 0xffffffff
    29d6:	4ba1      	ldr	r3, [pc, #644]	; (2c5c <_printf_float+0x2ec>)
    29d8:	4638      	mov	r0, r7
    29da:	990b      	ldr	r1, [sp, #44]	; 0x2c
    29dc:	f003 f87a 	bl	5ad4 <__aeabi_dcmple>
    29e0:	2800      	cmp	r0, #0
    29e2:	f040 81ed 	bne.w	2dc0 <_printf_float+0x450>
    29e6:	2200      	movs	r2, #0
    29e8:	2300      	movs	r3, #0
    29ea:	4638      	mov	r0, r7
    29ec:	4649      	mov	r1, r9
    29ee:	f003 f867 	bl	5ac0 <__aeabi_dcmplt>
    29f2:	b110      	cbz	r0, 29fa <_printf_float+0x8a>
    29f4:	232d      	movs	r3, #45	; 0x2d
    29f6:	f884 3043 	strb.w	r3, [r4, #67]	; 0x43
    29fa:	4b99      	ldr	r3, [pc, #612]	; (2c60 <_printf_float+0x2f0>)
    29fc:	4f99      	ldr	r7, [pc, #612]	; (2c64 <_printf_float+0x2f4>)
    29fe:	f1b8 0f47 	cmp.w	r8, #71	; 0x47
    2a02:	bf98      	it	ls
    2a04:	461f      	movls	r7, r3
    2a06:	2303      	movs	r3, #3
    2a08:	f04f 0900 	mov.w	r9, #0
    2a0c:	6123      	str	r3, [r4, #16]
    2a0e:	f02a 0304 	bic.w	r3, r10, #4
    2a12:	6023      	str	r3, [r4, #0]
    2a14:	9600      	str	r6, [sp, #0]
    2a16:	465b      	mov	r3, r11
    2a18:	aa0f      	add	r2, sp, #60	; 0x3c
    2a1a:	4621      	mov	r1, r4
    2a1c:	4628      	mov	r0, r5
    2a1e:	f000 f9df 	bl	2de0 <_printf_common>
    2a22:	3001      	adds	r0, #1
    2a24:	f040 809a 	bne.w	2b5c <_printf_float+0x1ec>
    2a28:	f04f 30ff 	mov.w	r0, #4294967295	; 0xffffffff
    2a2c:	b011      	add	sp, #68	; 0x44
    2a2e:	e8bd 8ff0 	ldmia.w	sp!, {r4, r5, r6, r7, r8, r9, r10, r11, pc}
    2a32:	6862      	ldr	r2, [r4, #4]
    2a34:	a80e      	add	r0, sp, #56	; 0x38
    2a36:	1c53      	adds	r3, r2, #1
    2a38:	f10d 0e34 	add.w	lr, sp, #52	; 0x34
    2a3c:	f44a 6380 	orr.w	r3, r10, #1024	; 0x400
    2a40:	d141      	bne.n	2ac6 <_printf_float+0x156>
    2a42:	2206      	movs	r2, #6
    2a44:	6062      	str	r2, [r4, #4]
    2a46:	2100      	movs	r1, #0
    2a48:	6023      	str	r3, [r4, #0]
    2a4a:	9301      	str	r3, [sp, #4]
    2a4c:	6863      	ldr	r3, [r4, #4]
    2a4e:	f10d 0233 	add.w	r2, sp, #51	; 0x33
    2a52:	9005      	str	r0, [sp, #20]
    2a54:	9202      	str	r2, [sp, #8]
    2a56:	9300      	str	r3, [sp, #0]
    2a58:	463a      	mov	r2, r7
    2a5a:	464b      	mov	r3, r9
    2a5c:	9106      	str	r1, [sp, #24]
    2a5e:	f8cd 8010 	str.w	r8, [sp, #16]
    2a62:	f8cd e00c 	str.w	lr, [sp, #12]
    2a66:	4628      	mov	r0, r5
    2a68:	f7ff fef0 	bl	284c <__cvt>
    2a6c:	f008 03df 	and.w	r3, r8, #223	; 0xdf
    2a70:	2b47      	cmp	r3, #71	; 0x47
    2a72:	4607      	mov	r7, r0
    2a74:	d109      	bne.n	2a8a <_printf_float+0x11a>
    2a76:	9b0d      	ldr	r3, [sp, #52]	; 0x34
    2a78:	1cd8      	adds	r0, r3, #3
    2a7a:	db02      	blt.n	2a82 <_printf_float+0x112>
    2a7c:	6862      	ldr	r2, [r4, #4]
    2a7e:	4293      	cmp	r3, r2
    2a80:	dd59      	ble.n	2b36 <_printf_float+0x1c6>
    2a82:	f1a8 0802 	sub.w	r8, r8, #2
    2a86:	fa5f f888 	uxtb.w	r8, r8
    2a8a:	f1b8 0f65 	cmp.w	r8, #101	; 0x65
    2a8e:	990d      	ldr	r1, [sp, #52]	; 0x34
    2a90:	d836      	bhi.n	2b00 <_printf_float+0x190>
    2a92:	3901      	subs	r1, #1
    2a94:	4642      	mov	r2, r8
    2a96:	f104 0050 	add.w	r0, r4, #80	; 0x50
    2a9a:	910d      	str	r1, [sp, #52]	; 0x34
    2a9c:	f7ff ff32 	bl	2904 <__exponent>
    2aa0:	9a0e      	ldr	r2, [sp, #56]	; 0x38
    2aa2:	4681      	mov	r9, r0
    2aa4:	1883      	adds	r3, r0, r2
    2aa6:	2a01      	cmp	r2, #1
    2aa8:	6123      	str	r3, [r4, #16]
    2aaa:	dc02      	bgt.n	2ab2 <_printf_float+0x142>
    2aac:	6822      	ldr	r2, [r4, #0]
    2aae:	07d1      	lsls	r1, r2, #31
    2ab0:	d501      	bpl.n	2ab6 <_printf_float+0x146>
    2ab2:	3301      	adds	r3, #1
    2ab4:	6123      	str	r3, [r4, #16]
    2ab6:	f89d 3033 	ldrb.w	r3, [sp, #51]	; 0x33
    2aba:	2b00      	cmp	r3, #0
    2abc:	d0aa      	beq.n	2a14 <_printf_float+0xa4>
    2abe:	232d      	movs	r3, #45	; 0x2d
    2ac0:	f884 3043 	strb.w	r3, [r4, #67]	; 0x43
    2ac4:	e7a6      	b.n	2a14 <_printf_float+0xa4>
    2ac6:	f1b8 0f67 	cmp.w	r8, #103	; 0x67
    2aca:	d002      	beq.n	2ad2 <_printf_float+0x162>
    2acc:	f1b8 0f47 	cmp.w	r8, #71	; 0x47
    2ad0:	d1b9      	bne.n	2a46 <_printf_float+0xd6>
    2ad2:	b19a      	cbz	r2, 2afc <_printf_float+0x18c>
    2ad4:	2100      	movs	r1, #0
    2ad6:	9106      	str	r1, [sp, #24]
    2ad8:	f10d 0133 	add.w	r1, sp, #51	; 0x33
    2adc:	e88d 000c 	stmia.w	sp, {r2, r3}
    2ae0:	6023      	str	r3, [r4, #0]
    2ae2:	9005      	str	r0, [sp, #20]
    2ae4:	463a      	mov	r2, r7
    2ae6:	f8cd 8010 	str.w	r8, [sp, #16]
    2aea:	f8cd e00c 	str.w	lr, [sp, #12]
    2aee:	9102      	str	r1, [sp, #8]
    2af0:	464b      	mov	r3, r9
    2af2:	4628      	mov	r0, r5
    2af4:	f7ff feaa 	bl	284c <__cvt>
    2af8:	4607      	mov	r7, r0
    2afa:	e7bc      	b.n	2a76 <_printf_float+0x106>
    2afc:	2201      	movs	r2, #1
    2afe:	e7a1      	b.n	2a44 <_printf_float+0xd4>
    2b00:	f1b8 0f66 	cmp.w	r8, #102	; 0x66
    2b04:	d119      	bne.n	2b3a <_printf_float+0x1ca>
    2b06:	2900      	cmp	r1, #0
    2b08:	6863      	ldr	r3, [r4, #4]
    2b0a:	dd0c      	ble.n	2b26 <_printf_float+0x1b6>
    2b0c:	6121      	str	r1, [r4, #16]
    2b0e:	b913      	cbnz	r3, 2b16 <_printf_float+0x1a6>
    2b10:	6822      	ldr	r2, [r4, #0]
    2b12:	07d2      	lsls	r2, r2, #31
    2b14:	d502      	bpl.n	2b1c <_printf_float+0x1ac>
    2b16:	3301      	adds	r3, #1
    2b18:	440b      	add	r3, r1
    2b1a:	6123      	str	r3, [r4, #16]
    2b1c:	9b0d      	ldr	r3, [sp, #52]	; 0x34
    2b1e:	f04f 0900 	mov.w	r9, #0
    2b22:	65a3      	str	r3, [r4, #88]	; 0x58
    2b24:	e7c7      	b.n	2ab6 <_printf_float+0x146>
    2b26:	b913      	cbnz	r3, 2b2e <_printf_float+0x1be>
    2b28:	6822      	ldr	r2, [r4, #0]
    2b2a:	07d0      	lsls	r0, r2, #31
    2b2c:	d501      	bpl.n	2b32 <_printf_float+0x1c2>
    2b2e:	3302      	adds	r3, #2
    2b30:	e7f3      	b.n	2b1a <_printf_float+0x1aa>
    2b32:	2301      	movs	r3, #1
    2b34:	e7f1      	b.n	2b1a <_printf_float+0x1aa>
    2b36:	f04f 0867 	mov.w	r8, #103	; 0x67
    2b3a:	9b0d      	ldr	r3, [sp, #52]	; 0x34
    2b3c:	9a0e      	ldr	r2, [sp, #56]	; 0x38
    2b3e:	4293      	cmp	r3, r2
    2b40:	db05      	blt.n	2b4e <_printf_float+0x1de>
    2b42:	6822      	ldr	r2, [r4, #0]
    2b44:	6123      	str	r3, [r4, #16]
    2b46:	07d1      	lsls	r1, r2, #31
    2b48:	d5e8      	bpl.n	2b1c <_printf_float+0x1ac>
    2b4a:	3301      	adds	r3, #1
    2b4c:	e7e5      	b.n	2b1a <_printf_float+0x1aa>
    2b4e:	2b00      	cmp	r3, #0
    2b50:	bfcc      	ite	gt
    2b52:	2301      	movgt	r3, #1
    2b54:	f1c3 0302 	rsble	r3, r3, #2
    2b58:	4413      	add	r3, r2
    2b5a:	e7de      	b.n	2b1a <_printf_float+0x1aa>
    2b5c:	6823      	ldr	r3, [r4, #0]
    2b5e:	055a      	lsls	r2, r3, #21
    2b60:	d407      	bmi.n	2b72 <_printf_float+0x202>
    2b62:	6923      	ldr	r3, [r4, #16]
    2b64:	463a      	mov	r2, r7
    2b66:	4659      	mov	r1, r11
    2b68:	4628      	mov	r0, r5
    2b6a:	47b0      	blx	r6
    2b6c:	3001      	adds	r0, #1
    2b6e:	d12a      	bne.n	2bc6 <_printf_float+0x256>
    2b70:	e75a      	b.n	2a28 <_printf_float+0xb8>
    2b72:	f1b8 0f65 	cmp.w	r8, #101	; 0x65
    2b76:	f240 80dc 	bls.w	2d32 <_printf_float+0x3c2>
    2b7a:	e9d4 0112 	ldrd	r0, r1, [r4, #72]	; 0x48
    2b7e:	2200      	movs	r2, #0
    2b80:	2300      	movs	r3, #0
    2b82:	f002 ff93 	bl	5aac <__aeabi_dcmpeq>
    2b86:	2800      	cmp	r0, #0
    2b88:	d039      	beq.n	2bfe <_printf_float+0x28e>
    2b8a:	2301      	movs	r3, #1
    2b8c:	4a36      	ldr	r2, [pc, #216]	; (2c68 <_printf_float+0x2f8>)
    2b8e:	4659      	mov	r1, r11
    2b90:	4628      	mov	r0, r5
    2b92:	47b0      	blx	r6
    2b94:	3001      	adds	r0, #1
    2b96:	f43f af47 	beq.w	2a28 <_printf_float+0xb8>
    2b9a:	9b0e      	ldr	r3, [sp, #56]	; 0x38
    2b9c:	9a0d      	ldr	r2, [sp, #52]	; 0x34
    2b9e:	429a      	cmp	r2, r3
    2ba0:	db02      	blt.n	2ba8 <_printf_float+0x238>
    2ba2:	6823      	ldr	r3, [r4, #0]
    2ba4:	07d8      	lsls	r0, r3, #31
    2ba6:	d50e      	bpl.n	2bc6 <_printf_float+0x256>
    2ba8:	9b0a      	ldr	r3, [sp, #40]	; 0x28
    2baa:	9a09      	ldr	r2, [sp, #36]	; 0x24
    2bac:	4659      	mov	r1, r11
    2bae:	4628      	mov	r0, r5
    2bb0:	47b0      	blx	r6
    2bb2:	3001      	adds	r0, #1
    2bb4:	f43f af38 	beq.w	2a28 <_printf_float+0xb8>
    2bb8:	2700      	movs	r7, #0
    2bba:	f104 081a 	add.w	r8, r4, #26
    2bbe:	9b0e      	ldr	r3, [sp, #56]	; 0x38
    2bc0:	3b01      	subs	r3, #1
    2bc2:	429f      	cmp	r7, r3
    2bc4:	db11      	blt.n	2bea <_printf_float+0x27a>
    2bc6:	6823      	ldr	r3, [r4, #0]
    2bc8:	079f      	lsls	r7, r3, #30
    2bca:	d508      	bpl.n	2bde <_printf_float+0x26e>
    2bcc:	2700      	movs	r7, #0
    2bce:	f104 0819 	add.w	r8, r4, #25
    2bd2:	68e3      	ldr	r3, [r4, #12]
    2bd4:	9a0f      	ldr	r2, [sp, #60]	; 0x3c
    2bd6:	1a9b      	subs	r3, r3, r2
    2bd8:	429f      	cmp	r7, r3
    2bda:	f2c0 80e7 	blt.w	2dac <_printf_float+0x43c>
    2bde:	68e0      	ldr	r0, [r4, #12]
    2be0:	9b0f      	ldr	r3, [sp, #60]	; 0x3c
    2be2:	4298      	cmp	r0, r3
    2be4:	bfb8      	it	lt
    2be6:	4618      	movlt	r0, r3
    2be8:	e720      	b.n	2a2c <_printf_float+0xbc>
    2bea:	2301      	movs	r3, #1
    2bec:	4642      	mov	r2, r8
    2bee:	4659      	mov	r1, r11
    2bf0:	4628      	mov	r0, r5
    2bf2:	47b0      	blx	r6
    2bf4:	3001      	adds	r0, #1
    2bf6:	f43f af17 	beq.w	2a28 <_printf_float+0xb8>
    2bfa:	3701      	adds	r7, #1
    2bfc:	e7df      	b.n	2bbe <_printf_float+0x24e>
    2bfe:	9b0d      	ldr	r3, [sp, #52]	; 0x34
    2c00:	2b00      	cmp	r3, #0
    2c02:	dc33      	bgt.n	2c6c <_printf_float+0x2fc>
    2c04:	2301      	movs	r3, #1
    2c06:	4a18      	ldr	r2, [pc, #96]	; (2c68 <_printf_float+0x2f8>)
    2c08:	4659      	mov	r1, r11
    2c0a:	4628      	mov	r0, r5
    2c0c:	47b0      	blx	r6
    2c0e:	3001      	adds	r0, #1
    2c10:	f43f af0a 	beq.w	2a28 <_printf_float+0xb8>
    2c14:	9b0d      	ldr	r3, [sp, #52]	; 0x34
    2c16:	b923      	cbnz	r3, 2c22 <_printf_float+0x2b2>
    2c18:	9b0e      	ldr	r3, [sp, #56]	; 0x38
    2c1a:	b913      	cbnz	r3, 2c22 <_printf_float+0x2b2>
    2c1c:	6823      	ldr	r3, [r4, #0]
    2c1e:	07d9      	lsls	r1, r3, #31
    2c20:	d5d1      	bpl.n	2bc6 <_printf_float+0x256>
    2c22:	9b0a      	ldr	r3, [sp, #40]	; 0x28
    2c24:	9a09      	ldr	r2, [sp, #36]	; 0x24
    2c26:	4659      	mov	r1, r11
    2c28:	4628      	mov	r0, r5
    2c2a:	47b0      	blx	r6
    2c2c:	3001      	adds	r0, #1
    2c2e:	f43f aefb 	beq.w	2a28 <_printf_float+0xb8>
    2c32:	f04f 0800 	mov.w	r8, #0
    2c36:	f104 091a 	add.w	r9, r4, #26
    2c3a:	9b0d      	ldr	r3, [sp, #52]	; 0x34
    2c3c:	425b      	negs	r3, r3
    2c3e:	4598      	cmp	r8, r3
    2c40:	db01      	blt.n	2c46 <_printf_float+0x2d6>
    2c42:	9b0e      	ldr	r3, [sp, #56]	; 0x38
    2c44:	e78e      	b.n	2b64 <_printf_float+0x1f4>
    2c46:	2301      	movs	r3, #1
    2c48:	464a      	mov	r2, r9
    2c4a:	4659      	mov	r1, r11
    2c4c:	4628      	mov	r0, r5
    2c4e:	47b0      	blx	r6
    2c50:	3001      	adds	r0, #1
    2c52:	f43f aee9 	beq.w	2a28 <_printf_float+0xb8>
    2c56:	f108 0801 	add.w	r8, r8, #1
    2c5a:	e7ee      	b.n	2c3a <_printf_float+0x2ca>
    2c5c:	7fefffff 	.word	0x7fefffff
    2c60:	00005fa5 	.word	0x00005fa5
    2c64:	00005fa9 	.word	0x00005fa9
    2c68:	00005ffa 	.word	0x00005ffa
    2c6c:	9a0e      	ldr	r2, [sp, #56]	; 0x38
    2c6e:	6da3      	ldr	r3, [r4, #88]	; 0x58
    2c70:	429a      	cmp	r2, r3
    2c72:	bfa8      	it	ge
    2c74:	461a      	movge	r2, r3
    2c76:	2a00      	cmp	r2, #0
    2c78:	4690      	mov	r8, r2
    2c7a:	dc36      	bgt.n	2cea <_printf_float+0x37a>
    2c7c:	f04f 0a00 	mov.w	r10, #0
    2c80:	f104 031a 	add.w	r3, r4, #26
    2c84:	ea28 78e8 	bic.w	r8, r8, r8, asr #31
    2c88:	930b      	str	r3, [sp, #44]	; 0x2c
    2c8a:	f8d4 9058 	ldr.w	r9, [r4, #88]	; 0x58
    2c8e:	eba9 0308 	sub.w	r3, r9, r8
    2c92:	459a      	cmp	r10, r3
    2c94:	db31      	blt.n	2cfa <_printf_float+0x38a>
    2c96:	9b0e      	ldr	r3, [sp, #56]	; 0x38
    2c98:	9a0d      	ldr	r2, [sp, #52]	; 0x34
    2c9a:	429a      	cmp	r2, r3
    2c9c:	db38      	blt.n	2d10 <_printf_float+0x3a0>
    2c9e:	6823      	ldr	r3, [r4, #0]
    2ca0:	07da      	lsls	r2, r3, #31
    2ca2:	d435      	bmi.n	2d10 <_printf_float+0x3a0>
    2ca4:	9b0e      	ldr	r3, [sp, #56]	; 0x38
    2ca6:	990d      	ldr	r1, [sp, #52]	; 0x34
    2ca8:	eba3 0209 	sub.w	r2, r3, r9
    2cac:	eba3 0801 	sub.w	r8, r3, r1
    2cb0:	4590      	cmp	r8, r2
    2cb2:	bfa8      	it	ge
    2cb4:	4690      	movge	r8, r2
    2cb6:	f1b8 0f00 	cmp.w	r8, #0
    2cba:	dc31      	bgt.n	2d20 <_printf_float+0x3b0>
    2cbc:	2700      	movs	r7, #0
    2cbe:	ea28 78e8 	bic.w	r8, r8, r8, asr #31
    2cc2:	f104 091a 	add.w	r9, r4, #26
    2cc6:	9a0d      	ldr	r2, [sp, #52]	; 0x34
    2cc8:	9b0e      	ldr	r3, [sp, #56]	; 0x38
    2cca:	1a9b      	subs	r3, r3, r2
    2ccc:	eba3 0308 	sub.w	r3, r3, r8
    2cd0:	429f      	cmp	r7, r3
    2cd2:	f6bf af78 	bge.w	2bc6 <_printf_float+0x256>
    2cd6:	2301      	movs	r3, #1
    2cd8:	464a      	mov	r2, r9
    2cda:	4659      	mov	r1, r11
    2cdc:	4628      	mov	r0, r5
    2cde:	47b0      	blx	r6
    2ce0:	3001      	adds	r0, #1
    2ce2:	f43f aea1 	beq.w	2a28 <_printf_float+0xb8>
    2ce6:	3701      	adds	r7, #1
    2ce8:	e7ed      	b.n	2cc6 <_printf_float+0x356>
    2cea:	4613      	mov	r3, r2
    2cec:	4659      	mov	r1, r11
    2cee:	463a      	mov	r2, r7
    2cf0:	4628      	mov	r0, r5
    2cf2:	47b0      	blx	r6
    2cf4:	3001      	adds	r0, #1
    2cf6:	d1c1      	bne.n	2c7c <_printf_float+0x30c>
    2cf8:	e696      	b.n	2a28 <_printf_float+0xb8>
    2cfa:	2301      	movs	r3, #1
    2cfc:	9a0b      	ldr	r2, [sp, #44]	; 0x2c
    2cfe:	4659      	mov	r1, r11
    2d00:	4628      	mov	r0, r5
    2d02:	47b0      	blx	r6
    2d04:	3001      	adds	r0, #1
    2d06:	f43f ae8f 	beq.w	2a28 <_printf_float+0xb8>
    2d0a:	f10a 0a01 	add.w	r10, r10, #1
    2d0e:	e7bc      	b.n	2c8a <_printf_float+0x31a>
    2d10:	9b0a      	ldr	r3, [sp, #40]	; 0x28
    2d12:	9a09      	ldr	r2, [sp, #36]	; 0x24
    2d14:	4659      	mov	r1, r11
    2d16:	4628      	mov	r0, r5
    2d18:	47b0      	blx	r6
    2d1a:	3001      	adds	r0, #1
    2d1c:	d1c2      	bne.n	2ca4 <_printf_float+0x334>
    2d1e:	e683      	b.n	2a28 <_printf_float+0xb8>
    2d20:	4643      	mov	r3, r8
    2d22:	eb07 0209 	add.w	r2, r7, r9
    2d26:	4659      	mov	r1, r11
    2d28:	4628      	mov	r0, r5
    2d2a:	47b0      	blx	r6
    2d2c:	3001      	adds	r0, #1
    2d2e:	d1c5      	bne.n	2cbc <_printf_float+0x34c>
    2d30:	e67a      	b.n	2a28 <_printf_float+0xb8>
    2d32:	9a0e      	ldr	r2, [sp, #56]	; 0x38
    2d34:	2a01      	cmp	r2, #1
    2d36:	dc01      	bgt.n	2d3c <_printf_float+0x3cc>
    2d38:	07db      	lsls	r3, r3, #31
    2d3a:	d534      	bpl.n	2da6 <_printf_float+0x436>
    2d3c:	2301      	movs	r3, #1
    2d3e:	463a      	mov	r2, r7
    2d40:	4659      	mov	r1, r11
    2d42:	4628      	mov	r0, r5
    2d44:	47b0      	blx	r6
    2d46:	3001      	adds	r0, #1
    2d48:	f43f ae6e 	beq.w	2a28 <_printf_float+0xb8>
    2d4c:	9b0a      	ldr	r3, [sp, #40]	; 0x28
    2d4e:	9a09      	ldr	r2, [sp, #36]	; 0x24
    2d50:	4659      	mov	r1, r11
    2d52:	4628      	mov	r0, r5
    2d54:	47b0      	blx	r6
    2d56:	3001      	adds	r0, #1
    2d58:	f43f ae66 	beq.w	2a28 <_printf_float+0xb8>
    2d5c:	e9d4 0112 	ldrd	r0, r1, [r4, #72]	; 0x48
    2d60:	2200      	movs	r2, #0
    2d62:	2300      	movs	r3, #0
    2d64:	f002 fea2 	bl	5aac <__aeabi_dcmpeq>
    2d68:	b150      	cbz	r0, 2d80 <_printf_float+0x410>
    2d6a:	2700      	movs	r7, #0
    2d6c:	f104 081a 	add.w	r8, r4, #26
    2d70:	9b0e      	ldr	r3, [sp, #56]	; 0x38
    2d72:	3b01      	subs	r3, #1
    2d74:	429f      	cmp	r7, r3
    2d76:	db0c      	blt.n	2d92 <_printf_float+0x422>
    2d78:	464b      	mov	r3, r9
    2d7a:	f104 0250 	add.w	r2, r4, #80	; 0x50
    2d7e:	e6f2      	b.n	2b66 <_printf_float+0x1f6>
    2d80:	9b0e      	ldr	r3, [sp, #56]	; 0x38
    2d82:	1c7a      	adds	r2, r7, #1
    2d84:	3b01      	subs	r3, #1
    2d86:	4659      	mov	r1, r11
    2d88:	4628      	mov	r0, r5
    2d8a:	47b0      	blx	r6
    2d8c:	3001      	adds	r0, #1
    2d8e:	d1f3      	bne.n	2d78 <_printf_float+0x408>
    2d90:	e64a      	b.n	2a28 <_printf_float+0xb8>
    2d92:	2301      	movs	r3, #1
    2d94:	4642      	mov	r2, r8
    2d96:	4659      	mov	r1, r11
    2d98:	4628      	mov	r0, r5
    2d9a:	47b0      	blx	r6
    2d9c:	3001      	adds	r0, #1
    2d9e:	f43f ae43 	beq.w	2a28 <_printf_float+0xb8>
    2da2:	3701      	adds	r7, #1
    2da4:	e7e4      	b.n	2d70 <_printf_float+0x400>
    2da6:	2301      	movs	r3, #1
    2da8:	463a      	mov	r2, r7
    2daa:	e7ec      	b.n	2d86 <_printf_float+0x416>
    2dac:	2301      	movs	r3, #1
    2dae:	4642      	mov	r2, r8
    2db0:	4659      	mov	r1, r11
    2db2:	4628      	mov	r0, r5
    2db4:	47b0      	blx	r6
    2db6:	3001      	adds	r0, #1
    2db8:	f43f ae36 	beq.w	2a28 <_printf_float+0xb8>
    2dbc:	3701      	adds	r7, #1
    2dbe:	e708      	b.n	2bd2 <_printf_float+0x262>
    2dc0:	463a      	mov	r2, r7
    2dc2:	464b      	mov	r3, r9
    2dc4:	4638      	mov	r0, r7
    2dc6:	4649      	mov	r1, r9
    2dc8:	f002 fea2 	bl	5b10 <__aeabi_dcmpun>
    2dcc:	2800      	cmp	r0, #0
    2dce:	f43f ae30 	beq.w	2a32 <_printf_float+0xc2>
    2dd2:	4b01      	ldr	r3, [pc, #4]	; (2dd8 <_printf_float+0x468>)
    2dd4:	4f01      	ldr	r7, [pc, #4]	; (2ddc <_printf_float+0x46c>)
    2dd6:	e612      	b.n	29fe <_printf_float+0x8e>
    2dd8:	00005fad 	.word	0x00005fad
    2ddc:	00005fb1 	.word	0x00005fb1

00002de0 <_printf_common>:
    2de0:	e92d 47f0 	stmdb	sp!, {r4, r5, r6, r7, r8, r9, r10, lr}
    2de4:	4691      	mov	r9, r2
    2de6:	461f      	mov	r7, r3
    2de8:	688a      	ldr	r2, [r1, #8]
    2dea:	690b      	ldr	r3, [r1, #16]
    2dec:	4606      	mov	r6, r0
    2dee:	4293      	cmp	r3, r2
    2df0:	bfb8      	it	lt
    2df2:	4613      	movlt	r3, r2
    2df4:	f8c9 3000 	str.w	r3, [r9]
    2df8:	f891 2043 	ldrb.w	r2, [r1, #67]	; 0x43
    2dfc:	460c      	mov	r4, r1
    2dfe:	f8dd 8020 	ldr.w	r8, [sp, #32]
    2e02:	b112      	cbz	r2, 2e0a <_printf_common+0x2a>
    2e04:	3301      	adds	r3, #1
    2e06:	f8c9 3000 	str.w	r3, [r9]
    2e0a:	6823      	ldr	r3, [r4, #0]
    2e0c:	0699      	lsls	r1, r3, #26
    2e0e:	bf42      	ittt	mi
    2e10:	f8d9 3000 	ldrmi.w	r3, [r9]
    2e14:	3302      	addmi	r3, #2
    2e16:	f8c9 3000 	strmi.w	r3, [r9]
    2e1a:	6825      	ldr	r5, [r4, #0]
    2e1c:	f015 0506 	ands.w	r5, r5, #6
    2e20:	d107      	bne.n	2e32 <_printf_common+0x52>
    2e22:	f104 0a19 	add.w	r10, r4, #25
    2e26:	68e3      	ldr	r3, [r4, #12]
    2e28:	f8d9 2000 	ldr.w	r2, [r9]
    2e2c:	1a9b      	subs	r3, r3, r2
    2e2e:	429d      	cmp	r5, r3
    2e30:	db2a      	blt.n	2e88 <_printf_common+0xa8>
    2e32:	f894 3043 	ldrb.w	r3, [r4, #67]	; 0x43
    2e36:	6822      	ldr	r2, [r4, #0]
    2e38:	3300      	adds	r3, #0
    2e3a:	bf18      	it	ne
    2e3c:	2301      	movne	r3, #1
    2e3e:	0692      	lsls	r2, r2, #26
    2e40:	d42f      	bmi.n	2ea2 <_printf_common+0xc2>
    2e42:	f104 0243 	add.w	r2, r4, #67	; 0x43
    2e46:	4639      	mov	r1, r7
    2e48:	4630      	mov	r0, r6
    2e4a:	47c0      	blx	r8
    2e4c:	3001      	adds	r0, #1
    2e4e:	d022      	beq.n	2e96 <_printf_common+0xb6>
    2e50:	6823      	ldr	r3, [r4, #0]
    2e52:	68e5      	ldr	r5, [r4, #12]
    2e54:	f003 0306 	and.w	r3, r3, #6
    2e58:	2b04      	cmp	r3, #4
    2e5a:	bf18      	it	ne
    2e5c:	2500      	movne	r5, #0
    2e5e:	f8d9 2000 	ldr.w	r2, [r9]
    2e62:	f04f 0900 	mov.w	r9, #0
    2e66:	bf08      	it	eq
    2e68:	1aad      	subeq	r5, r5, r2
    2e6a:	68a3      	ldr	r3, [r4, #8]
    2e6c:	6922      	ldr	r2, [r4, #16]
    2e6e:	bf08      	it	eq
    2e70:	ea25 75e5 	biceq.w	r5, r5, r5, asr #31
    2e74:	4293      	cmp	r3, r2
    2e76:	bfc4      	itt	gt
    2e78:	1a9b      	subgt	r3, r3, r2
    2e7a:	18ed      	addgt	r5, r5, r3
    2e7c:	341a      	adds	r4, #26
    2e7e:	454d      	cmp	r5, r9
    2e80:	d11b      	bne.n	2eba <_printf_common+0xda>
    2e82:	2000      	movs	r0, #0
    2e84:	e8bd 87f0 	ldmia.w	sp!, {r4, r5, r6, r7, r8, r9, r10, pc}
    2e88:	2301      	movs	r3, #1
    2e8a:	4652      	mov	r2, r10
    2e8c:	4639      	mov	r1, r7
    2e8e:	4630      	mov	r0, r6
    2e90:	47c0      	blx	r8
    2e92:	3001      	adds	r0, #1
    2e94:	d103      	bne.n	2e9e <_printf_common+0xbe>
    2e96:	f04f 30ff 	mov.w	r0, #4294967295	; 0xffffffff
    2e9a:	e8bd 87f0 	ldmia.w	sp!, {r4, r5, r6, r7, r8, r9, r10, pc}
    2e9e:	3501      	adds	r5, #1
    2ea0:	e7c1      	b.n	2e26 <_printf_common+0x46>
    2ea2:	2030      	movs	r0, #48	; 0x30
    2ea4:	18e1      	adds	r1, r4, r3
    2ea6:	f881 0043 	strb.w	r0, [r1, #67]	; 0x43
    2eaa:	1c5a      	adds	r2, r3, #1
    2eac:	f894 1045 	ldrb.w	r1, [r4, #69]	; 0x45
    2eb0:	4422      	add	r2, r4
    2eb2:	3302      	adds	r3, #2
    2eb4:	f882 1043 	strb.w	r1, [r2, #67]	; 0x43
    2eb8:	e7c3      	b.n	2e42 <_printf_common+0x62>
    2eba:	2301      	movs	r3, #1
    2ebc:	4622      	mov	r2, r4
    2ebe:	4639      	mov	r1, r7
    2ec0:	4630      	mov	r0, r6
    2ec2:	47c0      	blx	r8
    2ec4:	3001      	adds	r0, #1
    2ec6:	d0e6      	beq.n	2e96 <_printf_common+0xb6>
    2ec8:	f109 0901 	add.w	r9, r9, #1
    2ecc:	e7d7      	b.n	2e7e <_printf_common+0x9e>
	...

00002ed0 <_printf_i>:
    2ed0:	e92d 43f0 	stmdb	sp!, {r4, r5, r6, r7, r8, r9, lr}
    2ed4:	4617      	mov	r7, r2
    2ed6:	7e0a      	ldrb	r2, [r1, #24]
    2ed8:	b085      	sub	sp, #20
    2eda:	2a6e      	cmp	r2, #110	; 0x6e
    2edc:	4698      	mov	r8, r3
    2ede:	4606      	mov	r6, r0
    2ee0:	460c      	mov	r4, r1
    2ee2:	9b0c      	ldr	r3, [sp, #48]	; 0x30
    2ee4:	f101 0e43 	add.w	lr, r1, #67	; 0x43
    2ee8:	f000 80bc 	beq.w	3064 <_printf_i+0x194>
    2eec:	d81a      	bhi.n	2f24 <_printf_i+0x54>
    2eee:	2a63      	cmp	r2, #99	; 0x63
    2ef0:	d02e      	beq.n	2f50 <_printf_i+0x80>
    2ef2:	d80a      	bhi.n	2f0a <_printf_i+0x3a>
    2ef4:	2a00      	cmp	r2, #0
    2ef6:	f000 80c8 	beq.w	308a <_printf_i+0x1ba>
    2efa:	2a58      	cmp	r2, #88	; 0x58
    2efc:	f000 808a 	beq.w	3014 <_printf_i+0x144>
    2f00:	f104 0542 	add.w	r5, r4, #66	; 0x42
    2f04:	f884 2042 	strb.w	r2, [r4, #66]	; 0x42
    2f08:	e02a      	b.n	2f60 <_printf_i+0x90>
    2f0a:	2a64      	cmp	r2, #100	; 0x64
    2f0c:	d001      	beq.n	2f12 <_printf_i+0x42>
    2f0e:	2a69      	cmp	r2, #105	; 0x69
    2f10:	d1f6      	bne.n	2f00 <_printf_i+0x30>
    2f12:	6821      	ldr	r1, [r4, #0]
    2f14:	681a      	ldr	r2, [r3, #0]
    2f16:	f011 0f80 	tst.w	r1, #128	; 0x80
    2f1a:	d023      	beq.n	2f64 <_printf_i+0x94>
    2f1c:	1d11      	adds	r1, r2, #4
    2f1e:	6019      	str	r1, [r3, #0]
    2f20:	6813      	ldr	r3, [r2, #0]
    2f22:	e027      	b.n	2f74 <_printf_i+0xa4>
    2f24:	2a73      	cmp	r2, #115	; 0x73
    2f26:	f000 80b4 	beq.w	3092 <_printf_i+0x1c2>
    2f2a:	d808      	bhi.n	2f3e <_printf_i+0x6e>
    2f2c:	2a6f      	cmp	r2, #111	; 0x6f
    2f2e:	d02a      	beq.n	2f86 <_printf_i+0xb6>
    2f30:	2a70      	cmp	r2, #112	; 0x70
    2f32:	d1e5      	bne.n	2f00 <_printf_i+0x30>
    2f34:	680a      	ldr	r2, [r1, #0]
    2f36:	f042 0220 	orr.w	r2, r2, #32
    2f3a:	600a      	str	r2, [r1, #0]
    2f3c:	e003      	b.n	2f46 <_printf_i+0x76>
    2f3e:	2a75      	cmp	r2, #117	; 0x75
    2f40:	d021      	beq.n	2f86 <_printf_i+0xb6>
    2f42:	2a78      	cmp	r2, #120	; 0x78
    2f44:	d1dc      	bne.n	2f00 <_printf_i+0x30>
    2f46:	2278      	movs	r2, #120	; 0x78
    2f48:	496f      	ldr	r1, [pc, #444]	; (3108 <_printf_i+0x238>)
    2f4a:	f884 2045 	strb.w	r2, [r4, #69]	; 0x45
    2f4e:	e064      	b.n	301a <_printf_i+0x14a>
    2f50:	681a      	ldr	r2, [r3, #0]
    2f52:	f101 0542 	add.w	r5, r1, #66	; 0x42
    2f56:	1d11      	adds	r1, r2, #4
    2f58:	6019      	str	r1, [r3, #0]
    2f5a:	6813      	ldr	r3, [r2, #0]
    2f5c:	f884 3042 	strb.w	r3, [r4, #66]	; 0x42
    2f60:	2301      	movs	r3, #1
    2f62:	e0a3      	b.n	30ac <_printf_i+0x1dc>
    2f64:	f011 0f40 	tst.w	r1, #64	; 0x40
    2f68:	f102 0104 	add.w	r1, r2, #4
    2f6c:	6019      	str	r1, [r3, #0]
    2f6e:	d0d7      	beq.n	2f20 <_printf_i+0x50>
    2f70:	f9b2 3000 	ldrsh.w	r3, [r2]
    2f74:	2b00      	cmp	r3, #0
    2f76:	da03      	bge.n	2f80 <_printf_i+0xb0>
    2f78:	222d      	movs	r2, #45	; 0x2d
    2f7a:	425b      	negs	r3, r3
    2f7c:	f884 2043 	strb.w	r2, [r4, #67]	; 0x43
    2f80:	4962      	ldr	r1, [pc, #392]	; (310c <_printf_i+0x23c>)
    2f82:	220a      	movs	r2, #10
    2f84:	e017      	b.n	2fb6 <_printf_i+0xe6>
    2f86:	6820      	ldr	r0, [r4, #0]
    2f88:	6819      	ldr	r1, [r3, #0]
    2f8a:	f010 0f80 	tst.w	r0, #128	; 0x80
    2f8e:	d003      	beq.n	2f98 <_printf_i+0xc8>
    2f90:	1d08      	adds	r0, r1, #4
    2f92:	6018      	str	r0, [r3, #0]
    2f94:	680b      	ldr	r3, [r1, #0]
    2f96:	e006      	b.n	2fa6 <_printf_i+0xd6>
    2f98:	f010 0f40 	tst.w	r0, #64	; 0x40
    2f9c:	f101 0004 	add.w	r0, r1, #4
    2fa0:	6018      	str	r0, [r3, #0]
    2fa2:	d0f7      	beq.n	2f94 <_printf_i+0xc4>
    2fa4:	880b      	ldrh	r3, [r1, #0]
    2fa6:	2a6f      	cmp	r2, #111	; 0x6f
    2fa8:	bf14      	ite	ne
    2faa:	220a      	movne	r2, #10
    2fac:	2208      	moveq	r2, #8
    2fae:	4957      	ldr	r1, [pc, #348]	; (310c <_printf_i+0x23c>)
    2fb0:	2000      	movs	r0, #0
    2fb2:	f884 0043 	strb.w	r0, [r4, #67]	; 0x43
    2fb6:	6865      	ldr	r5, [r4, #4]
    2fb8:	2d00      	cmp	r5, #0
    2fba:	60a5      	str	r5, [r4, #8]
    2fbc:	f2c0 809c 	blt.w	30f8 <_printf_i+0x228>
    2fc0:	6820      	ldr	r0, [r4, #0]
    2fc2:	f020 0004 	bic.w	r0, r0, #4
    2fc6:	6020      	str	r0, [r4, #0]
    2fc8:	2b00      	cmp	r3, #0
    2fca:	d13f      	bne.n	304c <_printf_i+0x17c>
    2fcc:	2d00      	cmp	r5, #0
    2fce:	f040 8095 	bne.w	30fc <_printf_i+0x22c>
    2fd2:	4675      	mov	r5, lr
    2fd4:	2a08      	cmp	r2, #8
    2fd6:	d10b      	bne.n	2ff0 <_printf_i+0x120>
    2fd8:	6823      	ldr	r3, [r4, #0]
    2fda:	07da      	lsls	r2, r3, #31
    2fdc:	d508      	bpl.n	2ff0 <_printf_i+0x120>
    2fde:	6923      	ldr	r3, [r4, #16]
    2fe0:	6862      	ldr	r2, [r4, #4]
    2fe2:	429a      	cmp	r2, r3
    2fe4:	bfde      	ittt	le
    2fe6:	2330      	movle	r3, #48	; 0x30
    2fe8:	f805 3c01 	strble.w	r3, [r5, #-1]
    2fec:	f105 35ff 	addle.w	r5, r5, #4294967295	; 0xffffffff
    2ff0:	ebae 0305 	sub.w	r3, lr, r5
    2ff4:	6123      	str	r3, [r4, #16]
    2ff6:	f8cd 8000 	str.w	r8, [sp]
    2ffa:	463b      	mov	r3, r7
    2ffc:	aa03      	add	r2, sp, #12
    2ffe:	4621      	mov	r1, r4
    3000:	4630      	mov	r0, r6
    3002:	f7ff feed 	bl	2de0 <_printf_common>
    3006:	3001      	adds	r0, #1
    3008:	d155      	bne.n	30b6 <_printf_i+0x1e6>
    300a:	f04f 30ff 	mov.w	r0, #4294967295	; 0xffffffff
    300e:	b005      	add	sp, #20
    3010:	e8bd 83f0 	ldmia.w	sp!, {r4, r5, r6, r7, r8, r9, pc}
    3014:	f881 2045 	strb.w	r2, [r1, #69]	; 0x45
    3018:	493c      	ldr	r1, [pc, #240]	; (310c <_printf_i+0x23c>)
    301a:	6822      	ldr	r2, [r4, #0]
    301c:	6818      	ldr	r0, [r3, #0]
    301e:	f012 0f80 	tst.w	r2, #128	; 0x80
    3022:	f100 0504 	add.w	r5, r0, #4
    3026:	601d      	str	r5, [r3, #0]
    3028:	d001      	beq.n	302e <_printf_i+0x15e>
    302a:	6803      	ldr	r3, [r0, #0]
    302c:	e002      	b.n	3034 <_printf_i+0x164>
    302e:	0655      	lsls	r5, r2, #25
    3030:	d5fb      	bpl.n	302a <_printf_i+0x15a>
    3032:	8803      	ldrh	r3, [r0, #0]
    3034:	07d0      	lsls	r0, r2, #31
    3036:	bf44      	itt	mi
    3038:	f042 0220 	orrmi.w	r2, r2, #32
    303c:	6022      	strmi	r2, [r4, #0]
    303e:	b91b      	cbnz	r3, 3048 <_printf_i+0x178>
    3040:	6822      	ldr	r2, [r4, #0]
    3042:	f022 0220 	bic.w	r2, r2, #32
    3046:	6022      	str	r2, [r4, #0]
    3048:	2210      	movs	r2, #16
    304a:	e7b1      	b.n	2fb0 <_printf_i+0xe0>
    304c:	4675      	mov	r5, lr
    304e:	fbb3 f0f2 	udiv	r0, r3, r2
    3052:	fb02 3310 	mls	r3, r2, r0, r3
    3056:	5ccb      	ldrb	r3, [r1, r3]
    3058:	f805 3d01 	strb.w	r3, [r5, #-1]!
    305c:	4603      	mov	r3, r0
    305e:	2800      	cmp	r0, #0
    3060:	d1f5      	bne.n	304e <_printf_i+0x17e>
    3062:	e7b7      	b.n	2fd4 <_printf_i+0x104>
    3064:	6808      	ldr	r0, [r1, #0]
    3066:	681a      	ldr	r2, [r3, #0]
    3068:	f010 0f80 	tst.w	r0, #128	; 0x80
    306c:	6949      	ldr	r1, [r1, #20]
    306e:	d004      	beq.n	307a <_printf_i+0x1aa>
    3070:	1d10      	adds	r0, r2, #4
    3072:	6018      	str	r0, [r3, #0]
    3074:	6813      	ldr	r3, [r2, #0]
    3076:	6019      	str	r1, [r3, #0]
    3078:	e007      	b.n	308a <_printf_i+0x1ba>
    307a:	f010 0f40 	tst.w	r0, #64	; 0x40
    307e:	f102 0004 	add.w	r0, r2, #4
    3082:	6018      	str	r0, [r3, #0]
    3084:	6813      	ldr	r3, [r2, #0]
    3086:	d0f6      	beq.n	3076 <_printf_i+0x1a6>
    3088:	8019      	strh	r1, [r3, #0]
    308a:	2300      	movs	r3, #0
    308c:	4675      	mov	r5, lr
    308e:	6123      	str	r3, [r4, #16]
    3090:	e7b1      	b.n	2ff6 <_printf_i+0x126>
    3092:	681a      	ldr	r2, [r3, #0]
    3094:	1d11      	adds	r1, r2, #4
    3096:	6019      	str	r1, [r3, #0]
    3098:	6815      	ldr	r5, [r2, #0]
    309a:	2100      	movs	r1, #0
    309c:	6862      	ldr	r2, [r4, #4]
    309e:	4628      	mov	r0, r5
    30a0:	f7ff f98c 	bl	23bc <memchr>
    30a4:	b108      	cbz	r0, 30aa <_printf_i+0x1da>
    30a6:	1b40      	subs	r0, r0, r5
    30a8:	6060      	str	r0, [r4, #4]
    30aa:	6863      	ldr	r3, [r4, #4]
    30ac:	6123      	str	r3, [r4, #16]
    30ae:	2300      	movs	r3, #0
    30b0:	f884 3043 	strb.w	r3, [r4, #67]	; 0x43
    30b4:	e79f      	b.n	2ff6 <_printf_i+0x126>
    30b6:	6923      	ldr	r3, [r4, #16]
    30b8:	462a      	mov	r2, r5
    30ba:	4639      	mov	r1, r7
    30bc:	4630      	mov	r0, r6
    30be:	47c0      	blx	r8
    30c0:	3001      	adds	r0, #1
    30c2:	d0a2      	beq.n	300a <_printf_i+0x13a>
    30c4:	6823      	ldr	r3, [r4, #0]
    30c6:	079b      	lsls	r3, r3, #30
    30c8:	d507      	bpl.n	30da <_printf_i+0x20a>
    30ca:	2500      	movs	r5, #0
    30cc:	f104 0919 	add.w	r9, r4, #25
    30d0:	68e3      	ldr	r3, [r4, #12]
    30d2:	9a03      	ldr	r2, [sp, #12]
    30d4:	1a9b      	subs	r3, r3, r2
    30d6:	429d      	cmp	r5, r3
    30d8:	db05      	blt.n	30e6 <_printf_i+0x216>
    30da:	68e0      	ldr	r0, [r4, #12]
    30dc:	9b03      	ldr	r3, [sp, #12]
    30de:	4298      	cmp	r0, r3
    30e0:	bfb8      	it	lt
    30e2:	4618      	movlt	r0, r3
    30e4:	e793      	b.n	300e <_printf_i+0x13e>
    30e6:	2301      	movs	r3, #1
    30e8:	464a      	mov	r2, r9
    30ea:	4639      	mov	r1, r7
    30ec:	4630      	mov	r0, r6
    30ee:	47c0      	blx	r8
    30f0:	3001      	adds	r0, #1
    30f2:	d08a      	beq.n	300a <_printf_i+0x13a>
    30f4:	3501      	adds	r5, #1
    30f6:	e7eb      	b.n	30d0 <_printf_i+0x200>
    30f8:	2b00      	cmp	r3, #0
    30fa:	d1a7      	bne.n	304c <_printf_i+0x17c>
    30fc:	780b      	ldrb	r3, [r1, #0]
    30fe:	f104 0542 	add.w	r5, r4, #66	; 0x42
    3102:	f884 3042 	strb.w	r3, [r4, #66]	; 0x42
    3106:	e765      	b.n	2fd4 <_printf_i+0x104>
    3108:	00005fc6 	.word	0x00005fc6
    310c:	00005fb5 	.word	0x00005fb5

00003110 <_scanf_chars>:
    3110:	e92d 41f0 	stmdb	sp!, {r4, r5, r6, r7, r8, lr}
    3114:	4615      	mov	r5, r2
    3116:	688a      	ldr	r2, [r1, #8]
    3118:	4680      	mov	r8, r0
    311a:	460c      	mov	r4, r1
    311c:	b932      	cbnz	r2, 312c <_scanf_chars+0x1c>
    311e:	698a      	ldr	r2, [r1, #24]
    3120:	2a00      	cmp	r2, #0
    3122:	bf0c      	ite	eq
    3124:	2201      	moveq	r2, #1
    3126:	f04f 32ff 	movne.w	r2, #4294967295	; 0xffffffff
    312a:	608a      	str	r2, [r1, #8]
    312c:	2600      	movs	r6, #0
    312e:	6822      	ldr	r2, [r4, #0]
    3130:	06d1      	lsls	r1, r2, #27
    3132:	bf5f      	itttt	pl
    3134:	681a      	ldrpl	r2, [r3, #0]
    3136:	1d11      	addpl	r1, r2, #4
    3138:	6019      	strpl	r1, [r3, #0]
    313a:	6817      	ldrpl	r7, [r2, #0]
    313c:	69a3      	ldr	r3, [r4, #24]
    313e:	b1db      	cbz	r3, 3178 <_scanf_chars+0x68>
    3140:	2b01      	cmp	r3, #1
    3142:	d107      	bne.n	3154 <_scanf_chars+0x44>
    3144:	682b      	ldr	r3, [r5, #0]
    3146:	6962      	ldr	r2, [r4, #20]
    3148:	781b      	ldrb	r3, [r3, #0]
    314a:	5cd3      	ldrb	r3, [r2, r3]
    314c:	b9a3      	cbnz	r3, 3178 <_scanf_chars+0x68>
    314e:	2e00      	cmp	r6, #0
    3150:	d131      	bne.n	31b6 <_scanf_chars+0xa6>
    3152:	e006      	b.n	3162 <_scanf_chars+0x52>
    3154:	2b02      	cmp	r3, #2
    3156:	d007      	beq.n	3168 <_scanf_chars+0x58>
    3158:	2e00      	cmp	r6, #0
    315a:	d12c      	bne.n	31b6 <_scanf_chars+0xa6>
    315c:	69a3      	ldr	r3, [r4, #24]
    315e:	2b01      	cmp	r3, #1
    3160:	d129      	bne.n	31b6 <_scanf_chars+0xa6>
    3162:	2001      	movs	r0, #1
    3164:	e8bd 81f0 	ldmia.w	sp!, {r4, r5, r6, r7, r8, pc}
    3168:	f001 fbe6 	bl	4938 <__locale_ctype_ptr>
    316c:	682b      	ldr	r3, [r5, #0]
    316e:	781b      	ldrb	r3, [r3, #0]
    3170:	4418      	add	r0, r3
    3172:	7843      	ldrb	r3, [r0, #1]
    3174:	071b      	lsls	r3, r3, #28
    3176:	d4ef      	bmi.n	3158 <_scanf_chars+0x48>
    3178:	6823      	ldr	r3, [r4, #0]
    317a:	3601      	adds	r6, #1
    317c:	06da      	lsls	r2, r3, #27
    317e:	bf5e      	ittt	pl
    3180:	682b      	ldrpl	r3, [r5, #0]
    3182:	781b      	ldrbpl	r3, [r3, #0]
    3184:	703b      	strbpl	r3, [r7, #0]
    3186:	682a      	ldr	r2, [r5, #0]
    3188:	686b      	ldr	r3, [r5, #4]
    318a:	f102 0201 	add.w	r2, r2, #1
    318e:	602a      	str	r2, [r5, #0]
    3190:	68a2      	ldr	r2, [r4, #8]
    3192:	f103 33ff 	add.w	r3, r3, #4294967295	; 0xffffffff
    3196:	f102 32ff 	add.w	r2, r2, #4294967295	; 0xffffffff
    319a:	606b      	str	r3, [r5, #4]
    319c:	bf58      	it	pl
    319e:	3701      	addpl	r7, #1
    31a0:	60a2      	str	r2, [r4, #8]
    31a2:	b142      	cbz	r2, 31b6 <_scanf_chars+0xa6>
    31a4:	2b00      	cmp	r3, #0
    31a6:	dcc9      	bgt.n	313c <_scanf_chars+0x2c>
    31a8:	f8d4 3180 	ldr.w	r3, [r4, #384]	; 0x180
    31ac:	4629      	mov	r1, r5
    31ae:	4640      	mov	r0, r8
    31b0:	4798      	blx	r3
    31b2:	2800      	cmp	r0, #0
    31b4:	d0c2      	beq.n	313c <_scanf_chars+0x2c>
    31b6:	6823      	ldr	r3, [r4, #0]
    31b8:	f013 0310 	ands.w	r3, r3, #16
    31bc:	d105      	bne.n	31ca <_scanf_chars+0xba>
    31be:	68e2      	ldr	r2, [r4, #12]
    31c0:	3201      	adds	r2, #1
    31c2:	60e2      	str	r2, [r4, #12]
    31c4:	69a2      	ldr	r2, [r4, #24]
    31c6:	b102      	cbz	r2, 31ca <_scanf_chars+0xba>
    31c8:	703b      	strb	r3, [r7, #0]
    31ca:	6923      	ldr	r3, [r4, #16]
    31cc:	2000      	movs	r0, #0
    31ce:	441e      	add	r6, r3
    31d0:	6126      	str	r6, [r4, #16]
    31d2:	e8bd 81f0 	ldmia.w	sp!, {r4, r5, r6, r7, r8, pc}
	...

000031d8 <_scanf_i>:
    31d8:	e92d 4ff0 	stmdb	sp!, {r4, r5, r6, r7, r8, r9, r10, r11, lr}
    31dc:	460c      	mov	r4, r1
    31de:	469a      	mov	r10, r3
    31e0:	4b74      	ldr	r3, [pc, #464]	; (33b4 <_scanf_i+0x1dc>)
    31e2:	b087      	sub	sp, #28
    31e4:	4683      	mov	r11, r0
    31e6:	4616      	mov	r6, r2
    31e8:	e893 0007 	ldmia.w	r3, {r0, r1, r2}
    31ec:	ab03      	add	r3, sp, #12
    31ee:	68a7      	ldr	r7, [r4, #8]
    31f0:	e883 0007 	stmia.w	r3, {r0, r1, r2}
    31f4:	4b70      	ldr	r3, [pc, #448]	; (33b8 <_scanf_i+0x1e0>)
    31f6:	69a1      	ldr	r1, [r4, #24]
    31f8:	4a70      	ldr	r2, [pc, #448]	; (33bc <_scanf_i+0x1e4>)
    31fa:	f104 091c 	add.w	r9, r4, #28
    31fe:	2903      	cmp	r1, #3
    3200:	bf18      	it	ne
    3202:	461a      	movne	r2, r3
    3204:	1e7b      	subs	r3, r7, #1
    3206:	f5b3 7fae 	cmp.w	r3, #348	; 0x15c
    320a:	bf84      	itt	hi
    320c:	f240 135d 	movwhi	r3, #349	; 0x15d
    3210:	60a3      	strhi	r3, [r4, #8]
    3212:	6823      	ldr	r3, [r4, #0]
    3214:	bf88      	it	hi
    3216:	f46f 75ae 	mvnhi.w	r5, #348	; 0x15c
    321a:	f443 6350 	orr.w	r3, r3, #3328	; 0xd00
    321e:	6023      	str	r3, [r4, #0]
    3220:	bf98      	it	ls
    3222:	2700      	movls	r7, #0
    3224:	464b      	mov	r3, r9
    3226:	f04f 0800 	mov.w	r8, #0
    322a:	9200      	str	r2, [sp, #0]
    322c:	bf88      	it	hi
    322e:	197f      	addhi	r7, r7, r5
    3230:	6831      	ldr	r1, [r6, #0]
    3232:	9301      	str	r3, [sp, #4]
    3234:	ab03      	add	r3, sp, #12
    3236:	f853 0028 	ldr.w	r0, [r3, r8, lsl #2]
    323a:	2202      	movs	r2, #2
    323c:	7809      	ldrb	r1, [r1, #0]
    323e:	f7ff f8bd 	bl	23bc <memchr>
    3242:	9b01      	ldr	r3, [sp, #4]
    3244:	b328      	cbz	r0, 3292 <_scanf_i+0xba>
    3246:	f1b8 0f01 	cmp.w	r8, #1
    324a:	d156      	bne.n	32fa <_scanf_i+0x122>
    324c:	6862      	ldr	r2, [r4, #4]
    324e:	b92a      	cbnz	r2, 325c <_scanf_i+0x84>
    3250:	2208      	movs	r2, #8
    3252:	6062      	str	r2, [r4, #4]
    3254:	6822      	ldr	r2, [r4, #0]
    3256:	f442 7200 	orr.w	r2, r2, #512	; 0x200
    325a:	6022      	str	r2, [r4, #0]
    325c:	6822      	ldr	r2, [r4, #0]
    325e:	f422 62a0 	bic.w	r2, r2, #1280	; 0x500
    3262:	6022      	str	r2, [r4, #0]
    3264:	68a2      	ldr	r2, [r4, #8]
    3266:	1e51      	subs	r1, r2, #1
    3268:	60a1      	str	r1, [r4, #8]
    326a:	b192      	cbz	r2, 3292 <_scanf_i+0xba>
    326c:	6832      	ldr	r2, [r6, #0]
    326e:	1c5d      	adds	r5, r3, #1
    3270:	1c51      	adds	r1, r2, #1
    3272:	6031      	str	r1, [r6, #0]
    3274:	7812      	ldrb	r2, [r2, #0]
    3276:	701a      	strb	r2, [r3, #0]
    3278:	6873      	ldr	r3, [r6, #4]
    327a:	3b01      	subs	r3, #1
    327c:	2b00      	cmp	r3, #0
    327e:	6073      	str	r3, [r6, #4]
    3280:	dc06      	bgt.n	3290 <_scanf_i+0xb8>
    3282:	f8d4 3180 	ldr.w	r3, [r4, #384]	; 0x180
    3286:	4631      	mov	r1, r6
    3288:	4658      	mov	r0, r11
    328a:	4798      	blx	r3
    328c:	2800      	cmp	r0, #0
    328e:	d177      	bne.n	3380 <_scanf_i+0x1a8>
    3290:	462b      	mov	r3, r5
    3292:	f108 0801 	add.w	r8, r8, #1
    3296:	f1b8 0f03 	cmp.w	r8, #3
    329a:	d1c9      	bne.n	3230 <_scanf_i+0x58>
    329c:	6862      	ldr	r2, [r4, #4]
    329e:	b90a      	cbnz	r2, 32a4 <_scanf_i+0xcc>
    32a0:	220a      	movs	r2, #10
    32a2:	6062      	str	r2, [r4, #4]
    32a4:	6862      	ldr	r2, [r4, #4]
    32a6:	4946      	ldr	r1, [pc, #280]	; (33c0 <_scanf_i+0x1e8>)
    32a8:	6960      	ldr	r0, [r4, #20]
    32aa:	1a89      	subs	r1, r1, r2
    32ac:	9301      	str	r3, [sp, #4]
    32ae:	f000 f8ab 	bl	3408 <__sccl>
    32b2:	9b01      	ldr	r3, [sp, #4]
    32b4:	f04f 0800 	mov.w	r8, #0
    32b8:	461d      	mov	r5, r3
    32ba:	68a3      	ldr	r3, [r4, #8]
    32bc:	2b00      	cmp	r3, #0
    32be:	d039      	beq.n	3334 <_scanf_i+0x15c>
    32c0:	6831      	ldr	r1, [r6, #0]
    32c2:	6960      	ldr	r0, [r4, #20]
    32c4:	780a      	ldrb	r2, [r1, #0]
    32c6:	5c80      	ldrb	r0, [r0, r2]
    32c8:	2800      	cmp	r0, #0
    32ca:	d033      	beq.n	3334 <_scanf_i+0x15c>
    32cc:	2a30      	cmp	r2, #48	; 0x30
    32ce:	6822      	ldr	r2, [r4, #0]
    32d0:	d121      	bne.n	3316 <_scanf_i+0x13e>
    32d2:	0510      	lsls	r0, r2, #20
    32d4:	d51f      	bpl.n	3316 <_scanf_i+0x13e>
    32d6:	f108 0801 	add.w	r8, r8, #1
    32da:	b117      	cbz	r7, 32e2 <_scanf_i+0x10a>
    32dc:	3301      	adds	r3, #1
    32de:	3f01      	subs	r7, #1
    32e0:	60a3      	str	r3, [r4, #8]
    32e2:	6873      	ldr	r3, [r6, #4]
    32e4:	3b01      	subs	r3, #1
    32e6:	2b00      	cmp	r3, #0
    32e8:	6073      	str	r3, [r6, #4]
    32ea:	dd1c      	ble.n	3326 <_scanf_i+0x14e>
    32ec:	6833      	ldr	r3, [r6, #0]
    32ee:	3301      	adds	r3, #1
    32f0:	6033      	str	r3, [r6, #0]
    32f2:	68a3      	ldr	r3, [r4, #8]
    32f4:	3b01      	subs	r3, #1
    32f6:	60a3      	str	r3, [r4, #8]
    32f8:	e7df      	b.n	32ba <_scanf_i+0xe2>
    32fa:	f1b8 0f02 	cmp.w	r8, #2
    32fe:	d1b1      	bne.n	3264 <_scanf_i+0x8c>
    3300:	6822      	ldr	r2, [r4, #0]
    3302:	f402 61c0 	and.w	r1, r2, #1536	; 0x600
    3306:	f5b1 7f00 	cmp.w	r1, #512	; 0x200
    330a:	d1c2      	bne.n	3292 <_scanf_i+0xba>
    330c:	2110      	movs	r1, #16
    330e:	f442 7280 	orr.w	r2, r2, #256	; 0x100
    3312:	6061      	str	r1, [r4, #4]
    3314:	e7a5      	b.n	3262 <_scanf_i+0x8a>
    3316:	f422 6210 	bic.w	r2, r2, #2304	; 0x900
    331a:	6022      	str	r2, [r4, #0]
    331c:	780b      	ldrb	r3, [r1, #0]
    331e:	3501      	adds	r5, #1
    3320:	f805 3c01 	strb.w	r3, [r5, #-1]
    3324:	e7dd      	b.n	32e2 <_scanf_i+0x10a>
    3326:	f8d4 3180 	ldr.w	r3, [r4, #384]	; 0x180
    332a:	4631      	mov	r1, r6
    332c:	4658      	mov	r0, r11
    332e:	4798      	blx	r3
    3330:	2800      	cmp	r0, #0
    3332:	d0de      	beq.n	32f2 <_scanf_i+0x11a>
    3334:	6823      	ldr	r3, [r4, #0]
    3336:	05d9      	lsls	r1, r3, #23
    3338:	d50c      	bpl.n	3354 <_scanf_i+0x17c>
    333a:	454d      	cmp	r5, r9
    333c:	d908      	bls.n	3350 <_scanf_i+0x178>
    333e:	f815 1c01 	ldrb.w	r1, [r5, #-1]
    3342:	1e6f      	subs	r7, r5, #1
    3344:	f8d4 317c 	ldr.w	r3, [r4, #380]	; 0x17c
    3348:	4632      	mov	r2, r6
    334a:	4658      	mov	r0, r11
    334c:	4798      	blx	r3
    334e:	463d      	mov	r5, r7
    3350:	454d      	cmp	r5, r9
    3352:	d02c      	beq.n	33ae <_scanf_i+0x1d6>
    3354:	6822      	ldr	r2, [r4, #0]
    3356:	f012 0210 	ands.w	r2, r2, #16
    335a:	d11e      	bne.n	339a <_scanf_i+0x1c2>
    335c:	702a      	strb	r2, [r5, #0]
    335e:	6863      	ldr	r3, [r4, #4]
    3360:	4649      	mov	r1, r9
    3362:	4658      	mov	r0, r11
    3364:	9e00      	ldr	r6, [sp, #0]
    3366:	47b0      	blx	r6
    3368:	6822      	ldr	r2, [r4, #0]
    336a:	f8da 3000 	ldr.w	r3, [r10]
    336e:	f012 0f20 	tst.w	r2, #32
    3372:	d008      	beq.n	3386 <_scanf_i+0x1ae>
    3374:	1d1a      	adds	r2, r3, #4
    3376:	f8ca 2000 	str.w	r2, [r10]
    337a:	681b      	ldr	r3, [r3, #0]
    337c:	6018      	str	r0, [r3, #0]
    337e:	e009      	b.n	3394 <_scanf_i+0x1bc>
    3380:	f04f 0800 	mov.w	r8, #0
    3384:	e7d6      	b.n	3334 <_scanf_i+0x15c>
    3386:	07d2      	lsls	r2, r2, #31
    3388:	d5f4      	bpl.n	3374 <_scanf_i+0x19c>
    338a:	1d1a      	adds	r2, r3, #4
    338c:	f8ca 2000 	str.w	r2, [r10]
    3390:	681b      	ldr	r3, [r3, #0]
    3392:	8018      	strh	r0, [r3, #0]
    3394:	68e3      	ldr	r3, [r4, #12]
    3396:	3301      	adds	r3, #1
    3398:	60e3      	str	r3, [r4, #12]
    339a:	2000      	movs	r0, #0
    339c:	eba5 0509 	sub.w	r5, r5, r9
    33a0:	44a8      	add	r8, r5
    33a2:	6925      	ldr	r5, [r4, #16]
    33a4:	4445      	add	r5, r8
    33a6:	6125      	str	r5, [r4, #16]
    33a8:	b007      	add	sp, #28
    33aa:	e8bd 8ff0 	ldmia.w	sp!, {r4, r5, r6, r7, r8, r9, r10, r11, pc}
    33ae:	2001      	movs	r0, #1
    33b0:	e7fa      	b.n	33a8 <_scanf_i+0x1d0>
    33b2:	bf00      	nop
    33b4:	00005fd8 	.word	0x00005fd8
    33b8:	00003965 	.word	0x00003965
    33bc:	00003845 	.word	0x00003845
    33c0:	00005ff4 	.word	0x00005ff4

000033c4 <_open_r>:
    33c4:	b538      	push	{r3, r4, r5, lr}
    33c6:	4605      	mov	r5, r0
    33c8:	4608      	mov	r0, r1
    33ca:	4611      	mov	r1, r2
    33cc:	2200      	movs	r2, #0
    33ce:	4c05      	ldr	r4, [pc, #20]	; (33e4 <_open_r+0x20>)
    33d0:	6022      	str	r2, [r4, #0]
    33d2:	461a      	mov	r2, r3
    33d4:	f7fe f9dc 	bl	1790 <_open>
    33d8:	1c43      	adds	r3, r0, #1
    33da:	d102      	bne.n	33e2 <_open_r+0x1e>
    33dc:	6823      	ldr	r3, [r4, #0]
    33de:	b103      	cbz	r3, 33e2 <_open_r+0x1e>
    33e0:	602b      	str	r3, [r5, #0]
    33e2:	bd38      	pop	{r3, r4, r5, pc}
    33e4:	10000568 	.word	0x10000568

000033e8 <_sbrk_r>:
    33e8:	b538      	push	{r3, r4, r5, lr}
    33ea:	2300      	movs	r3, #0
    33ec:	4c05      	ldr	r4, [pc, #20]	; (3404 <_sbrk_r+0x1c>)
    33ee:	4605      	mov	r5, r0
    33f0:	4608      	mov	r0, r1
    33f2:	6023      	str	r3, [r4, #0]
    33f4:	f7fe f94c 	bl	1690 <_sbrk>
    33f8:	1c43      	adds	r3, r0, #1
    33fa:	d102      	bne.n	3402 <_sbrk_r+0x1a>
    33fc:	6823      	ldr	r3, [r4, #0]
    33fe:	b103      	cbz	r3, 3402 <_sbrk_r+0x1a>
    3400:	602b      	str	r3, [r5, #0]
    3402:	bd38      	pop	{r3, r4, r5, pc}
    3404:	10000568 	.word	0x10000568

00003408 <__sccl>:
    3408:	b570      	push	{r4, r5, r6, lr}
    340a:	780b      	ldrb	r3, [r1, #0]
    340c:	1e44      	subs	r4, r0, #1
    340e:	2b5e      	cmp	r3, #94	; 0x5e
    3410:	bf13      	iteet	ne
    3412:	1c4a      	addne	r2, r1, #1
    3414:	1c8a      	addeq	r2, r1, #2
    3416:	784b      	ldrbeq	r3, [r1, #1]
    3418:	2100      	movne	r1, #0
    341a:	bf08      	it	eq
    341c:	2101      	moveq	r1, #1
    341e:	f100 05ff 	add.w	r5, r0, #255	; 0xff
    3422:	f804 1f01 	strb.w	r1, [r4, #1]!
    3426:	42a5      	cmp	r5, r4
    3428:	d1fb      	bne.n	3422 <__sccl+0x1a>
    342a:	b913      	cbnz	r3, 3432 <__sccl+0x2a>
    342c:	3a01      	subs	r2, #1
    342e:	4610      	mov	r0, r2
    3430:	bd70      	pop	{r4, r5, r6, pc}
    3432:	f081 0401 	eor.w	r4, r1, #1
    3436:	4611      	mov	r1, r2
    3438:	54c4      	strb	r4, [r0, r3]
    343a:	780d      	ldrb	r5, [r1, #0]
    343c:	1c4a      	adds	r2, r1, #1
    343e:	2d2d      	cmp	r5, #45	; 0x2d
    3440:	d006      	beq.n	3450 <__sccl+0x48>
    3442:	2d5d      	cmp	r5, #93	; 0x5d
    3444:	d0f3      	beq.n	342e <__sccl+0x26>
    3446:	b90d      	cbnz	r5, 344c <__sccl+0x44>
    3448:	460a      	mov	r2, r1
    344a:	e7f0      	b.n	342e <__sccl+0x26>
    344c:	462b      	mov	r3, r5
    344e:	e7f2      	b.n	3436 <__sccl+0x2e>
    3450:	784e      	ldrb	r6, [r1, #1]
    3452:	2e5d      	cmp	r6, #93	; 0x5d
    3454:	d0fa      	beq.n	344c <__sccl+0x44>
    3456:	42b3      	cmp	r3, r6
    3458:	dcf8      	bgt.n	344c <__sccl+0x44>
    345a:	3102      	adds	r1, #2
    345c:	3301      	adds	r3, #1
    345e:	429e      	cmp	r6, r3
    3460:	54c4      	strb	r4, [r0, r3]
    3462:	dcfb      	bgt.n	345c <__sccl+0x54>
    3464:	e7e9      	b.n	343a <__sccl+0x32>

00003466 <setbuf>:
    3466:	2900      	cmp	r1, #0
    3468:	f44f 6380 	mov.w	r3, #1024	; 0x400
    346c:	bf0c      	ite	eq
    346e:	2202      	moveq	r2, #2
    3470:	2200      	movne	r2, #0
    3472:	f000 b801 	b.w	3478 <setvbuf>
	...

00003478 <setvbuf>:
    3478:	e92d 43f7 	stmdb	sp!, {r0, r1, r2, r4, r5, r6, r7, r8, r9, lr}
    347c:	461d      	mov	r5, r3
    347e:	4b51      	ldr	r3, [pc, #324]	; (35c4 <setvbuf+0x14c>)
    3480:	4604      	mov	r4, r0
    3482:	681e      	ldr	r6, [r3, #0]
    3484:	460f      	mov	r7, r1
    3486:	4690      	mov	r8, r2
    3488:	b126      	cbz	r6, 3494 <setvbuf+0x1c>
    348a:	69b3      	ldr	r3, [r6, #24]
    348c:	b913      	cbnz	r3, 3494 <setvbuf+0x1c>
    348e:	4630      	mov	r0, r6
    3490:	f7fe fd96 	bl	1fc0 <__sinit>
    3494:	4b4c      	ldr	r3, [pc, #304]	; (35c8 <setvbuf+0x150>)
    3496:	429c      	cmp	r4, r3
    3498:	d152      	bne.n	3540 <setvbuf+0xc8>
    349a:	6874      	ldr	r4, [r6, #4]
    349c:	f1b8 0f02 	cmp.w	r8, #2
    34a0:	d006      	beq.n	34b0 <setvbuf+0x38>
    34a2:	f1b8 0f01 	cmp.w	r8, #1
    34a6:	f200 8089 	bhi.w	35bc <setvbuf+0x144>
    34aa:	2d00      	cmp	r5, #0
    34ac:	f2c0 8086 	blt.w	35bc <setvbuf+0x144>
    34b0:	4621      	mov	r1, r4
    34b2:	4630      	mov	r0, r6
    34b4:	f7fe fd08 	bl	1ec8 <_fflush_r>
    34b8:	6b61      	ldr	r1, [r4, #52]	; 0x34
    34ba:	b141      	cbz	r1, 34ce <setvbuf+0x56>
    34bc:	f104 0344 	add.w	r3, r4, #68	; 0x44
    34c0:	4299      	cmp	r1, r3
    34c2:	d002      	beq.n	34ca <setvbuf+0x52>
    34c4:	4630      	mov	r0, r6
    34c6:	f7fd ffd7 	bl	1478 <__wrap__free_r>
    34ca:	2300      	movs	r3, #0
    34cc:	6363      	str	r3, [r4, #52]	; 0x34
    34ce:	2300      	movs	r3, #0
    34d0:	61a3      	str	r3, [r4, #24]
    34d2:	6063      	str	r3, [r4, #4]
    34d4:	89a3      	ldrh	r3, [r4, #12]
    34d6:	061b      	lsls	r3, r3, #24
    34d8:	d503      	bpl.n	34e2 <setvbuf+0x6a>
    34da:	6921      	ldr	r1, [r4, #16]
    34dc:	4630      	mov	r0, r6
    34de:	f7fd ffcb 	bl	1478 <__wrap__free_r>
    34e2:	89a3      	ldrh	r3, [r4, #12]
    34e4:	f1b8 0f02 	cmp.w	r8, #2
    34e8:	f423 634a 	bic.w	r3, r3, #3232	; 0xca0
    34ec:	f023 0303 	bic.w	r3, r3, #3
    34f0:	81a3      	strh	r3, [r4, #12]
    34f2:	d05d      	beq.n	35b0 <setvbuf+0x138>
    34f4:	ab01      	add	r3, sp, #4
    34f6:	466a      	mov	r2, sp
    34f8:	4621      	mov	r1, r4
    34fa:	4630      	mov	r0, r6
    34fc:	f7fe feea 	bl	22d4 <__swhatbuf_r>
    3500:	89a3      	ldrh	r3, [r4, #12]
    3502:	4318      	orrs	r0, r3
    3504:	81a0      	strh	r0, [r4, #12]
    3506:	bb2d      	cbnz	r5, 3554 <setvbuf+0xdc>
    3508:	9d00      	ldr	r5, [sp, #0]
    350a:	4628      	mov	r0, r5
    350c:	f7fe ff46 	bl	239c <malloc>
    3510:	4607      	mov	r7, r0
    3512:	2800      	cmp	r0, #0
    3514:	d14e      	bne.n	35b4 <setvbuf+0x13c>
    3516:	f8dd 9000 	ldr.w	r9, [sp]
    351a:	45a9      	cmp	r9, r5
    351c:	d13c      	bne.n	3598 <setvbuf+0x120>
    351e:	f04f 30ff 	mov.w	r0, #4294967295	; 0xffffffff
    3522:	89a3      	ldrh	r3, [r4, #12]
    3524:	f043 0302 	orr.w	r3, r3, #2
    3528:	81a3      	strh	r3, [r4, #12]
    352a:	2300      	movs	r3, #0
    352c:	60a3      	str	r3, [r4, #8]
    352e:	f104 0347 	add.w	r3, r4, #71	; 0x47
    3532:	6023      	str	r3, [r4, #0]
    3534:	6123      	str	r3, [r4, #16]
    3536:	2301      	movs	r3, #1
    3538:	6163      	str	r3, [r4, #20]
    353a:	b003      	add	sp, #12
    353c:	e8bd 83f0 	ldmia.w	sp!, {r4, r5, r6, r7, r8, r9, pc}
    3540:	4b22      	ldr	r3, [pc, #136]	; (35cc <setvbuf+0x154>)
    3542:	429c      	cmp	r4, r3
    3544:	d101      	bne.n	354a <setvbuf+0xd2>
    3546:	68b4      	ldr	r4, [r6, #8]
    3548:	e7a8      	b.n	349c <setvbuf+0x24>
    354a:	4b21      	ldr	r3, [pc, #132]	; (35d0 <setvbuf+0x158>)
    354c:	429c      	cmp	r4, r3
    354e:	bf08      	it	eq
    3550:	68f4      	ldreq	r4, [r6, #12]
    3552:	e7a3      	b.n	349c <setvbuf+0x24>
    3554:	2f00      	cmp	r7, #0
    3556:	d0d8      	beq.n	350a <setvbuf+0x92>
    3558:	69b3      	ldr	r3, [r6, #24]
    355a:	b913      	cbnz	r3, 3562 <setvbuf+0xea>
    355c:	4630      	mov	r0, r6
    355e:	f7fe fd2f 	bl	1fc0 <__sinit>
    3562:	f1b8 0f01 	cmp.w	r8, #1
    3566:	bf08      	it	eq
    3568:	89a3      	ldrheq	r3, [r4, #12]
    356a:	6027      	str	r7, [r4, #0]
    356c:	bf04      	itt	eq
    356e:	f043 0301 	orreq.w	r3, r3, #1
    3572:	81a3      	strheq	r3, [r4, #12]
    3574:	89a3      	ldrh	r3, [r4, #12]
    3576:	6127      	str	r7, [r4, #16]
    3578:	f013 0008 	ands.w	r0, r3, #8
    357c:	6165      	str	r5, [r4, #20]
    357e:	d01b      	beq.n	35b8 <setvbuf+0x140>
    3580:	f013 0001 	ands.w	r0, r3, #1
    3584:	f04f 0300 	mov.w	r3, #0
    3588:	bf1f      	itttt	ne
    358a:	426d      	negne	r5, r5
    358c:	60a3      	strne	r3, [r4, #8]
    358e:	61a5      	strne	r5, [r4, #24]
    3590:	4618      	movne	r0, r3
    3592:	bf08      	it	eq
    3594:	60a5      	streq	r5, [r4, #8]
    3596:	e7d0      	b.n	353a <setvbuf+0xc2>
    3598:	4648      	mov	r0, r9
    359a:	f7fe feff 	bl	239c <malloc>
    359e:	4607      	mov	r7, r0
    35a0:	2800      	cmp	r0, #0
    35a2:	d0bc      	beq.n	351e <setvbuf+0xa6>
    35a4:	89a3      	ldrh	r3, [r4, #12]
    35a6:	464d      	mov	r5, r9
    35a8:	f043 0380 	orr.w	r3, r3, #128	; 0x80
    35ac:	81a3      	strh	r3, [r4, #12]
    35ae:	e7d3      	b.n	3558 <setvbuf+0xe0>
    35b0:	2000      	movs	r0, #0
    35b2:	e7b6      	b.n	3522 <setvbuf+0xaa>
    35b4:	46a9      	mov	r9, r5
    35b6:	e7f5      	b.n	35a4 <setvbuf+0x12c>
    35b8:	60a0      	str	r0, [r4, #8]
    35ba:	e7be      	b.n	353a <setvbuf+0xc2>
    35bc:	f04f 30ff 	mov.w	r0, #4294967295	; 0xffffffff
    35c0:	e7bb      	b.n	353a <setvbuf+0xc2>
    35c2:	bf00      	nop
    35c4:	100000d8 	.word	0x100000d8
    35c8:	00005f50 	.word	0x00005f50
    35cc:	00005f70 	.word	0x00005f70
    35d0:	00005f30 	.word	0x00005f30

000035d4 <siprintf>:
    35d4:	b40e      	push	{r1, r2, r3}
    35d6:	f44f 7102 	mov.w	r1, #520	; 0x208
    35da:	b500      	push	{lr}
    35dc:	b09c      	sub	sp, #112	; 0x70
    35de:	f8ad 1014 	strh.w	r1, [sp, #20]
    35e2:	f06f 4100 	mvn.w	r1, #2147483648	; 0x80000000
    35e6:	9104      	str	r1, [sp, #16]
    35e8:	9107      	str	r1, [sp, #28]
    35ea:	f64f 71ff 	movw	r1, #65535	; 0xffff
    35ee:	ab1d      	add	r3, sp, #116	; 0x74
    35f0:	9002      	str	r0, [sp, #8]
    35f2:	9006      	str	r0, [sp, #24]
    35f4:	4808      	ldr	r0, [pc, #32]	; (3618 <siprintf+0x44>)
    35f6:	f853 2b04 	ldr.w	r2, [r3], #4
    35fa:	f8ad 1016 	strh.w	r1, [sp, #22]
    35fe:	6800      	ldr	r0, [r0, #0]
    3600:	a902      	add	r1, sp, #8
    3602:	9301      	str	r3, [sp, #4]
    3604:	f001 fd28 	bl	5058 <_svfiprintf_r>
    3608:	2200      	movs	r2, #0
    360a:	9b02      	ldr	r3, [sp, #8]
    360c:	701a      	strb	r2, [r3, #0]
    360e:	b01c      	add	sp, #112	; 0x70
    3610:	f85d eb04 	ldr.w	lr, [sp], #4
    3614:	b003      	add	sp, #12
    3616:	4770      	bx	lr
    3618:	100000d8 	.word	0x100000d8

0000361c <siscanf>:
    361c:	b40e      	push	{r1, r2, r3}
    361e:	f44f 7201 	mov.w	r2, #516	; 0x204
    3622:	b530      	push	{r4, r5, lr}
    3624:	b09c      	sub	sp, #112	; 0x70
    3626:	ac1f      	add	r4, sp, #124	; 0x7c
    3628:	f854 5b04 	ldr.w	r5, [r4], #4
    362c:	f8ad 2014 	strh.w	r2, [sp, #20]
    3630:	9002      	str	r0, [sp, #8]
    3632:	9006      	str	r0, [sp, #24]
    3634:	f000 f86b 	bl	370e <strlen>
    3638:	4b0b      	ldr	r3, [pc, #44]	; (3668 <siscanf+0x4c>)
    363a:	9003      	str	r0, [sp, #12]
    363c:	930b      	str	r3, [sp, #44]	; 0x2c
    363e:	2300      	movs	r3, #0
    3640:	930f      	str	r3, [sp, #60]	; 0x3c
    3642:	9314      	str	r3, [sp, #80]	; 0x50
    3644:	f64f 73ff 	movw	r3, #65535	; 0xffff
    3648:	9007      	str	r0, [sp, #28]
    364a:	4808      	ldr	r0, [pc, #32]	; (366c <siscanf+0x50>)
    364c:	f8ad 3016 	strh.w	r3, [sp, #22]
    3650:	462a      	mov	r2, r5
    3652:	4623      	mov	r3, r4
    3654:	a902      	add	r1, sp, #8
    3656:	6800      	ldr	r0, [r0, #0]
    3658:	9401      	str	r4, [sp, #4]
    365a:	f001 fe4b 	bl	52f4 <__ssvfiscanf_r>
    365e:	b01c      	add	sp, #112	; 0x70
    3660:	e8bd 4030 	ldmia.w	sp!, {r4, r5, lr}
    3664:	b003      	add	sp, #12
    3666:	4770      	bx	lr
    3668:	00003693 	.word	0x00003693
    366c:	100000d8 	.word	0x100000d8

00003670 <__sread>:
    3670:	b510      	push	{r4, lr}
    3672:	460c      	mov	r4, r1
    3674:	f9b1 100e 	ldrsh.w	r1, [r1, #14]
    3678:	f001 ff90 	bl	559c <_read_r>
    367c:	2800      	cmp	r0, #0
    367e:	bfab      	itete	ge
    3680:	6d63      	ldrge	r3, [r4, #84]	; 0x54
    3682:	89a3      	ldrhlt	r3, [r4, #12]
    3684:	181b      	addge	r3, r3, r0
    3686:	f423 5380 	biclt.w	r3, r3, #4096	; 0x1000
    368a:	bfac      	ite	ge
    368c:	6563      	strge	r3, [r4, #84]	; 0x54
    368e:	81a3      	strhlt	r3, [r4, #12]
    3690:	bd10      	pop	{r4, pc}

00003692 <__seofread>:
    3692:	2000      	movs	r0, #0
    3694:	4770      	bx	lr

00003696 <__swrite>:
    3696:	e92d 41f0 	stmdb	sp!, {r4, r5, r6, r7, r8, lr}
    369a:	461f      	mov	r7, r3
    369c:	898b      	ldrh	r3, [r1, #12]
    369e:	4605      	mov	r5, r0
    36a0:	05db      	lsls	r3, r3, #23
    36a2:	460c      	mov	r4, r1
    36a4:	4616      	mov	r6, r2
    36a6:	d505      	bpl.n	36b4 <__swrite+0x1e>
    36a8:	2302      	movs	r3, #2
    36aa:	2200      	movs	r2, #0
    36ac:	f9b1 100e 	ldrsh.w	r1, [r1, #14]
    36b0:	f001 f95e 	bl	4970 <_lseek_r>
    36b4:	89a3      	ldrh	r3, [r4, #12]
    36b6:	4632      	mov	r2, r6
    36b8:	f423 5380 	bic.w	r3, r3, #4096	; 0x1000
    36bc:	81a3      	strh	r3, [r4, #12]
    36be:	f9b4 100e 	ldrsh.w	r1, [r4, #14]
    36c2:	463b      	mov	r3, r7
    36c4:	4628      	mov	r0, r5
    36c6:	e8bd 41f0 	ldmia.w	sp!, {r4, r5, r6, r7, r8, lr}
    36ca:	f000 b9e9 	b.w	3aa0 <_write_r>

000036ce <__sseek>:
    36ce:	b510      	push	{r4, lr}
    36d0:	460c      	mov	r4, r1
    36d2:	f9b1 100e 	ldrsh.w	r1, [r1, #14]
    36d6:	f001 f94b 	bl	4970 <_lseek_r>
    36da:	1c43      	adds	r3, r0, #1
    36dc:	89a3      	ldrh	r3, [r4, #12]
    36de:	bf15      	itete	ne
    36e0:	6560      	strne	r0, [r4, #84]	; 0x54
    36e2:	f423 5380 	biceq.w	r3, r3, #4096	; 0x1000
    36e6:	f443 5380 	orrne.w	r3, r3, #4096	; 0x1000
    36ea:	81a3      	strheq	r3, [r4, #12]
    36ec:	bf18      	it	ne
    36ee:	81a3      	strhne	r3, [r4, #12]
    36f0:	bd10      	pop	{r4, pc}

000036f2 <__sclose>:
    36f2:	f9b1 100e 	ldrsh.w	r1, [r1, #14]
    36f6:	f000 ba53 	b.w	3ba0 <_close_r>

000036fa <strcmp>:
    36fa:	f810 2b01 	ldrb.w	r2, [r0], #1
    36fe:	f811 3b01 	ldrb.w	r3, [r1], #1
    3702:	2a01      	cmp	r2, #1
    3704:	bf28      	it	cs
    3706:	429a      	cmpcs	r2, r3
    3708:	d0f7      	beq.n	36fa <strcmp>
    370a:	1ad0      	subs	r0, r2, r3
    370c:	4770      	bx	lr

0000370e <strlen>:
    370e:	4603      	mov	r3, r0
    3710:	f813 2b01 	ldrb.w	r2, [r3], #1
    3714:	2a00      	cmp	r2, #0
    3716:	d1fb      	bne.n	3710 <strlen+0x2>
    3718:	1a18      	subs	r0, r3, r0
    371a:	3801      	subs	r0, #1
    371c:	4770      	bx	lr

0000371e <strncmp>:
    371e:	b510      	push	{r4, lr}
    3720:	b16a      	cbz	r2, 373e <strncmp+0x20>
    3722:	3901      	subs	r1, #1
    3724:	1884      	adds	r4, r0, r2
    3726:	f810 3b01 	ldrb.w	r3, [r0], #1
    372a:	f811 2f01 	ldrb.w	r2, [r1, #1]!
    372e:	4293      	cmp	r3, r2
    3730:	d103      	bne.n	373a <strncmp+0x1c>
    3732:	42a0      	cmp	r0, r4
    3734:	d001      	beq.n	373a <strncmp+0x1c>
    3736:	2b00      	cmp	r3, #0
    3738:	d1f5      	bne.n	3726 <strncmp+0x8>
    373a:	1a98      	subs	r0, r3, r2
    373c:	bd10      	pop	{r4, pc}
    373e:	4610      	mov	r0, r2
    3740:	bd10      	pop	{r4, pc}

00003742 <_strtol_l.isra.0>:
    3742:	e92d 4ff8 	stmdb	sp!, {r3, r4, r5, r6, r7, r8, r9, r10, r11, lr}
    3746:	4680      	mov	r8, r0
    3748:	4689      	mov	r9, r1
    374a:	4692      	mov	r10, r2
    374c:	461f      	mov	r7, r3
    374e:	468b      	mov	r11, r1
    3750:	465d      	mov	r5, r11
    3752:	980a      	ldr	r0, [sp, #40]	; 0x28
    3754:	f815 4b01 	ldrb.w	r4, [r5], #1
    3758:	f001 f8ea 	bl	4930 <__locale_ctype_ptr_l>
    375c:	4420      	add	r0, r4
    375e:	7846      	ldrb	r6, [r0, #1]
    3760:	f016 0608 	ands.w	r6, r6, #8
    3764:	d10b      	bne.n	377e <_strtol_l.isra.0+0x3c>
    3766:	2c2d      	cmp	r4, #45	; 0x2d
    3768:	d10b      	bne.n	3782 <_strtol_l.isra.0+0x40>
    376a:	2601      	movs	r6, #1
    376c:	782c      	ldrb	r4, [r5, #0]
    376e:	f10b 0502 	add.w	r5, r11, #2
    3772:	b167      	cbz	r7, 378e <_strtol_l.isra.0+0x4c>
    3774:	2f10      	cmp	r7, #16
    3776:	d114      	bne.n	37a2 <_strtol_l.isra.0+0x60>
    3778:	2c30      	cmp	r4, #48	; 0x30
    377a:	d00a      	beq.n	3792 <_strtol_l.isra.0+0x50>
    377c:	e011      	b.n	37a2 <_strtol_l.isra.0+0x60>
    377e:	46ab      	mov	r11, r5
    3780:	e7e6      	b.n	3750 <_strtol_l.isra.0+0xe>
    3782:	2c2b      	cmp	r4, #43	; 0x2b
    3784:	bf04      	itt	eq
    3786:	782c      	ldrbeq	r4, [r5, #0]
    3788:	f10b 0502 	addeq.w	r5, r11, #2
    378c:	e7f1      	b.n	3772 <_strtol_l.isra.0+0x30>
    378e:	2c30      	cmp	r4, #48	; 0x30
    3790:	d127      	bne.n	37e2 <_strtol_l.isra.0+0xa0>
    3792:	782b      	ldrb	r3, [r5, #0]
    3794:	f003 03df 	and.w	r3, r3, #223	; 0xdf
    3798:	2b58      	cmp	r3, #88	; 0x58
    379a:	d14b      	bne.n	3834 <_strtol_l.isra.0+0xf2>
    379c:	2710      	movs	r7, #16
    379e:	786c      	ldrb	r4, [r5, #1]
    37a0:	3502      	adds	r5, #2
    37a2:	2e00      	cmp	r6, #0
    37a4:	bf0c      	ite	eq
    37a6:	f06f 4100 	mvneq.w	r1, #2147483648	; 0x80000000
    37aa:	f04f 4100 	movne.w	r1, #2147483648	; 0x80000000
    37ae:	2200      	movs	r2, #0
    37b0:	fbb1 fef7 	udiv	lr, r1, r7
    37b4:	4610      	mov	r0, r2
    37b6:	fb07 1c1e 	mls	r12, r7, lr, r1
    37ba:	f1a4 0330 	sub.w	r3, r4, #48	; 0x30
    37be:	2b09      	cmp	r3, #9
    37c0:	d811      	bhi.n	37e6 <_strtol_l.isra.0+0xa4>
    37c2:	461c      	mov	r4, r3
    37c4:	42a7      	cmp	r7, r4
    37c6:	dd1d      	ble.n	3804 <_strtol_l.isra.0+0xc2>
    37c8:	1c53      	adds	r3, r2, #1
    37ca:	d007      	beq.n	37dc <_strtol_l.isra.0+0x9a>
    37cc:	4586      	cmp	lr, r0
    37ce:	d316      	bcc.n	37fe <_strtol_l.isra.0+0xbc>
    37d0:	d101      	bne.n	37d6 <_strtol_l.isra.0+0x94>
    37d2:	45a4      	cmp	r12, r4
    37d4:	db13      	blt.n	37fe <_strtol_l.isra.0+0xbc>
    37d6:	2201      	movs	r2, #1
    37d8:	fb00 4007 	mla	r0, r0, r7, r4
    37dc:	f815 4b01 	ldrb.w	r4, [r5], #1
    37e0:	e7eb      	b.n	37ba <_strtol_l.isra.0+0x78>
    37e2:	270a      	movs	r7, #10
    37e4:	e7dd      	b.n	37a2 <_strtol_l.isra.0+0x60>
    37e6:	f1a4 0341 	sub.w	r3, r4, #65	; 0x41
    37ea:	2b19      	cmp	r3, #25
    37ec:	d801      	bhi.n	37f2 <_strtol_l.isra.0+0xb0>
    37ee:	3c37      	subs	r4, #55	; 0x37
    37f0:	e7e8      	b.n	37c4 <_strtol_l.isra.0+0x82>
    37f2:	f1a4 0361 	sub.w	r3, r4, #97	; 0x61
    37f6:	2b19      	cmp	r3, #25
    37f8:	d804      	bhi.n	3804 <_strtol_l.isra.0+0xc2>
    37fa:	3c57      	subs	r4, #87	; 0x57
    37fc:	e7e2      	b.n	37c4 <_strtol_l.isra.0+0x82>
    37fe:	f04f 32ff 	mov.w	r2, #4294967295	; 0xffffffff
    3802:	e7eb      	b.n	37dc <_strtol_l.isra.0+0x9a>
    3804:	1c53      	adds	r3, r2, #1
    3806:	d108      	bne.n	381a <_strtol_l.isra.0+0xd8>
    3808:	2322      	movs	r3, #34	; 0x22
    380a:	4608      	mov	r0, r1
    380c:	f8c8 3000 	str.w	r3, [r8]
    3810:	f1ba 0f00 	cmp.w	r10, #0
    3814:	d107      	bne.n	3826 <_strtol_l.isra.0+0xe4>
    3816:	e8bd 8ff8 	ldmia.w	sp!, {r3, r4, r5, r6, r7, r8, r9, r10, r11, pc}
    381a:	b106      	cbz	r6, 381e <_strtol_l.isra.0+0xdc>
    381c:	4240      	negs	r0, r0
    381e:	f1ba 0f00 	cmp.w	r10, #0
    3822:	d00c      	beq.n	383e <_strtol_l.isra.0+0xfc>
    3824:	b122      	cbz	r2, 3830 <_strtol_l.isra.0+0xee>
    3826:	3d01      	subs	r5, #1
    3828:	f8ca 5000 	str.w	r5, [r10]
    382c:	e8bd 8ff8 	ldmia.w	sp!, {r3, r4, r5, r6, r7, r8, r9, r10, r11, pc}
    3830:	464d      	mov	r5, r9
    3832:	e7f9      	b.n	3828 <_strtol_l.isra.0+0xe6>
    3834:	2430      	movs	r4, #48	; 0x30
    3836:	2f00      	cmp	r7, #0
    3838:	d1b3      	bne.n	37a2 <_strtol_l.isra.0+0x60>
    383a:	2708      	movs	r7, #8
    383c:	e7b1      	b.n	37a2 <_strtol_l.isra.0+0x60>
    383e:	e8bd 8ff8 	ldmia.w	sp!, {r3, r4, r5, r6, r7, r8, r9, r10, r11, pc}
	...

00003844 <_strtol_r>:
    3844:	b537      	push	{r0, r1, r2, r4, r5, lr}
    3846:	4c06      	ldr	r4, [pc, #24]	; (3860 <_strtol_r+0x1c>)
    3848:	4d06      	ldr	r5, [pc, #24]	; (3864 <_strtol_r+0x20>)
    384a:	6824      	ldr	r4, [r4, #0]
    384c:	6a24      	ldr	r4, [r4, #32]
    384e:	2c00      	cmp	r4, #0
    3850:	bf08      	it	eq
    3852:	462c      	moveq	r4, r5
    3854:	9400      	str	r4, [sp, #0]
    3856:	f7ff ff74 	bl	3742 <_strtol_l.isra.0>
    385a:	b003      	add	sp, #12
    385c:	bd30      	pop	{r4, r5, pc}
    385e:	bf00      	nop
    3860:	100000d8 	.word	0x100000d8
    3864:	1000013c 	.word	0x1000013c

00003868 <_strtoul_l.isra.0>:
    3868:	e92d 47f0 	stmdb	sp!, {r4, r5, r6, r7, r8, r9, r10, lr}
    386c:	4680      	mov	r8, r0
    386e:	4689      	mov	r9, r1
    3870:	4692      	mov	r10, r2
    3872:	461e      	mov	r6, r3
    3874:	460f      	mov	r7, r1
    3876:	463d      	mov	r5, r7
    3878:	9808      	ldr	r0, [sp, #32]
    387a:	f815 4b01 	ldrb.w	r4, [r5], #1
    387e:	f001 f857 	bl	4930 <__locale_ctype_ptr_l>
    3882:	4420      	add	r0, r4
    3884:	7843      	ldrb	r3, [r0, #1]
    3886:	f013 0308 	ands.w	r3, r3, #8
    388a:	d10a      	bne.n	38a2 <_strtoul_l.isra.0+0x3a>
    388c:	2c2d      	cmp	r4, #45	; 0x2d
    388e:	d10a      	bne.n	38a6 <_strtoul_l.isra.0+0x3e>
    3890:	2301      	movs	r3, #1
    3892:	782c      	ldrb	r4, [r5, #0]
    3894:	1cbd      	adds	r5, r7, #2
    3896:	b15e      	cbz	r6, 38b0 <_strtoul_l.isra.0+0x48>
    3898:	2e10      	cmp	r6, #16
    389a:	d113      	bne.n	38c4 <_strtoul_l.isra.0+0x5c>
    389c:	2c30      	cmp	r4, #48	; 0x30
    389e:	d009      	beq.n	38b4 <_strtoul_l.isra.0+0x4c>
    38a0:	e010      	b.n	38c4 <_strtoul_l.isra.0+0x5c>
    38a2:	462f      	mov	r7, r5
    38a4:	e7e7      	b.n	3876 <_strtoul_l.isra.0+0xe>
    38a6:	2c2b      	cmp	r4, #43	; 0x2b
    38a8:	bf04      	itt	eq
    38aa:	782c      	ldrbeq	r4, [r5, #0]
    38ac:	1cbd      	addeq	r5, r7, #2
    38ae:	e7f2      	b.n	3896 <_strtoul_l.isra.0+0x2e>
    38b0:	2c30      	cmp	r4, #48	; 0x30
    38b2:	d125      	bne.n	3900 <_strtoul_l.isra.0+0x98>
    38b4:	782a      	ldrb	r2, [r5, #0]
    38b6:	f002 02df 	and.w	r2, r2, #223	; 0xdf
    38ba:	2a58      	cmp	r2, #88	; 0x58
    38bc:	d14a      	bne.n	3954 <_strtoul_l.isra.0+0xec>
    38be:	2610      	movs	r6, #16
    38c0:	786c      	ldrb	r4, [r5, #1]
    38c2:	3502      	adds	r5, #2
    38c4:	f04f 31ff 	mov.w	r1, #4294967295	; 0xffffffff
    38c8:	fbb1 f1f6 	udiv	r1, r1, r6
    38cc:	2700      	movs	r7, #0
    38ce:	fb06 fe01 	mul.w	lr, r6, r1
    38d2:	4638      	mov	r0, r7
    38d4:	ea6f 0e0e 	mvn.w	lr, lr
    38d8:	f1a4 0230 	sub.w	r2, r4, #48	; 0x30
    38dc:	2a09      	cmp	r2, #9
    38de:	d811      	bhi.n	3904 <_strtoul_l.isra.0+0x9c>
    38e0:	4614      	mov	r4, r2
    38e2:	42a6      	cmp	r6, r4
    38e4:	dd1d      	ble.n	3922 <_strtoul_l.isra.0+0xba>
    38e6:	2f00      	cmp	r7, #0
    38e8:	db18      	blt.n	391c <_strtoul_l.isra.0+0xb4>
    38ea:	4281      	cmp	r1, r0
    38ec:	d316      	bcc.n	391c <_strtoul_l.isra.0+0xb4>
    38ee:	d101      	bne.n	38f4 <_strtoul_l.isra.0+0x8c>
    38f0:	45a6      	cmp	lr, r4
    38f2:	db13      	blt.n	391c <_strtoul_l.isra.0+0xb4>
    38f4:	2701      	movs	r7, #1
    38f6:	fb00 4006 	mla	r0, r0, r6, r4
    38fa:	f815 4b01 	ldrb.w	r4, [r5], #1
    38fe:	e7eb      	b.n	38d8 <_strtoul_l.isra.0+0x70>
    3900:	260a      	movs	r6, #10
    3902:	e7df      	b.n	38c4 <_strtoul_l.isra.0+0x5c>
    3904:	f1a4 0241 	sub.w	r2, r4, #65	; 0x41
    3908:	2a19      	cmp	r2, #25
    390a:	d801      	bhi.n	3910 <_strtoul_l.isra.0+0xa8>
    390c:	3c37      	subs	r4, #55	; 0x37
    390e:	e7e8      	b.n	38e2 <_strtoul_l.isra.0+0x7a>
    3910:	f1a4 0261 	sub.w	r2, r4, #97	; 0x61
    3914:	2a19      	cmp	r2, #25
    3916:	d804      	bhi.n	3922 <_strtoul_l.isra.0+0xba>
    3918:	3c57      	subs	r4, #87	; 0x57
    391a:	e7e2      	b.n	38e2 <_strtoul_l.isra.0+0x7a>
    391c:	f04f 37ff 	mov.w	r7, #4294967295	; 0xffffffff
    3920:	e7eb      	b.n	38fa <_strtoul_l.isra.0+0x92>
    3922:	2f00      	cmp	r7, #0
    3924:	da09      	bge.n	393a <_strtoul_l.isra.0+0xd2>
    3926:	2322      	movs	r3, #34	; 0x22
    3928:	f04f 30ff 	mov.w	r0, #4294967295	; 0xffffffff
    392c:	f8c8 3000 	str.w	r3, [r8]
    3930:	f1ba 0f00 	cmp.w	r10, #0
    3934:	d107      	bne.n	3946 <_strtoul_l.isra.0+0xde>
    3936:	e8bd 87f0 	ldmia.w	sp!, {r4, r5, r6, r7, r8, r9, r10, pc}
    393a:	b103      	cbz	r3, 393e <_strtoul_l.isra.0+0xd6>
    393c:	4240      	negs	r0, r0
    393e:	f1ba 0f00 	cmp.w	r10, #0
    3942:	d00c      	beq.n	395e <_strtoul_l.isra.0+0xf6>
    3944:	b127      	cbz	r7, 3950 <_strtoul_l.isra.0+0xe8>
    3946:	3d01      	subs	r5, #1
    3948:	f8ca 5000 	str.w	r5, [r10]
    394c:	e8bd 87f0 	ldmia.w	sp!, {r4, r5, r6, r7, r8, r9, r10, pc}
    3950:	464d      	mov	r5, r9
    3952:	e7f9      	b.n	3948 <_strtoul_l.isra.0+0xe0>
    3954:	2430      	movs	r4, #48	; 0x30
    3956:	2e00      	cmp	r6, #0
    3958:	d1b4      	bne.n	38c4 <_strtoul_l.isra.0+0x5c>
    395a:	2608      	movs	r6, #8
    395c:	e7b2      	b.n	38c4 <_strtoul_l.isra.0+0x5c>
    395e:	e8bd 87f0 	ldmia.w	sp!, {r4, r5, r6, r7, r8, r9, r10, pc}
	...

00003964 <_strtoul_r>:
    3964:	b537      	push	{r0, r1, r2, r4, r5, lr}
    3966:	4c06      	ldr	r4, [pc, #24]	; (3980 <_strtoul_r+0x1c>)
